
bootrom_32.elf:     file format elf32-littleriscv
bootrom_32.elf
architecture: riscv:rv32, flags 0x00000112:
EXEC_P, HAS_SYMS, D_PAGED
start address 0xc0000000

Program Header:
    LOAD off    0x00001000 vaddr 0xc0000000 paddr 0xc0000000 align 2**12
         filesz 0x00001339 memsz 0x00001340 flags rwx

Sections:
Idx Name              Size      VMA       LMA       File off  Algn  Flags
  0 .text.init        00000020  c0000000  c0000000  00001000  2**0  CONTENTS, ALLOC, LOAD, READONLY, CODE
  1 .text             00000fbc  c0000020  c0000020  00001020  2**2  CONTENTS, ALLOC, LOAD, READONLY, CODE
  2 .text.startup     00000040  c0000fdc  c0000fdc  00001fdc  2**2  CONTENTS, ALLOC, LOAD, READONLY, CODE
  3 .data             00000010  c000101c  c000101c  0000201c  2**2  CONTENTS, ALLOC, LOAD, DATA
  4 .rodata           0000030d  c000102c  c000102c  0000202c  2**2  CONTENTS, ALLOC, LOAD, READONLY, DATA
  5 .bss              00000004  c000133c  c000133c  00002339  2**2  ALLOC
  6 .riscv.attributes 0000002a  00000000  00000000  00002339  2**0  CONTENTS, READONLY
  7 .comment          00000012  00000000  00000000  00002363  2**0  CONTENTS, READONLY
  8 .debug_line       000023f2  00000000  00000000  00002375  2**0  CONTENTS, READONLY, DEBUGGING, OCTETS
  9 .debug_info       00001f3b  00000000  00000000  00004767  2**0  CONTENTS, READONLY, DEBUGGING, OCTETS
 10 .debug_abbrev     000007d6  00000000  00000000  000066a2  2**0  CONTENTS, READONLY, DEBUGGING, OCTETS
 11 .debug_aranges    000000c0  00000000  00000000  00006e78  2**3  CONTENTS, READONLY, DEBUGGING, OCTETS
 12 .debug_str        00000499  00000000  00000000  00006f38  2**0  CONTENTS, READONLY, DEBUGGING, OCTETS
 13 .debug_ranges     00000430  00000000  00000000  000073d1  2**0  CONTENTS, READONLY, DEBUGGING, OCTETS
 14 .debug_frame      00000364  00000000  00000000  00007804  2**2  CONTENTS, READONLY, DEBUGGING, OCTETS
 15 .debug_loc        000012ea  00000000  00000000  00007b68  2**0  CONTENTS, READONLY, DEBUGGING, OCTETS
SYMBOL TABLE:
c0000000 l    d  .text.init	00000000 .text.init
c0000020 l    d  .text	00000000 .text
c0000fdc l    d  .text.startup	00000000 .text.startup
c000101c l    d  .data	00000000 .data
c000102c l    d  .rodata	00000000 .rodata
c000133c l    d  .bss	00000000 .bss
00000000 l    d  .riscv.attributes	00000000 .riscv.attributes
00000000 l    d  .comment	00000000 .comment
00000000 l    d  .debug_line	00000000 .debug_line
00000000 l    d  .debug_info	00000000 .debug_info
00000000 l    d  .debug_abbrev	00000000 .debug_abbrev
00000000 l    d  .debug_aranges	00000000 .debug_aranges
00000000 l    d  .debug_str	00000000 .debug_str
00000000 l    d  .debug_ranges	00000000 .debug_ranges
00000000 l    d  .debug_frame	00000000 .debug_frame
00000000 l    d  .debug_loc	00000000 .debug_loc
00000000 l    df *ABS*	00000000 main.c
00000000 l    df *ABS*	00000000 uart.c
c000133c l     O .bss	00000004 m_uart
00000000 l    df *ABS*	00000000 spi.c
00000000 l    df *ABS*	00000000 sd.c
00000000 l    df *ABS*	00000000 gpt.c
c0000780 g     F .text	000000d8 sd_acmd41
c0000708 g     F .text	00000078 sd_cmd55
c000102c g       .data	00000000 _DATA_END_
c0000114 g     F .text	00000088 print_uart_addr
c0000fdc g       .text	00000000 _TEXT_END_
c00001f8 g     F .text	000000c0 spi_init
c0000020 g     F .text	00000014 init_uart
c00000b0 g     F .text	00000064 print_uart_int
c00009f0 g     F .text	0000025c sd_copy
c0000858 g     F .text	00000120 init_sd
c0000000 g       *ABS*	00000000 ROM_BASE
c000019c g     F .text	0000004c print_uart_byte
c0000034 g     F .text	00000020 serial_putchar
c000048c g     F .text	0000009c sd_cmd
c0000584 g     F .text	000000d8 sd_cmd0
c000099c g     F .text	00000054 crc16
c0000084 g     F .text	0000002c bin_to_hex
c0000000 g       .text.init	00000000 _prog_start
c0000c4c g     F .text	00000390 gpt_find_boot_partition
c0000484 g     F .text	00000008 sd_dummy
c0000528 g     F .text	0000005c print_status
c0000370 g     F .text	00000114 spi_write_bytes
c0000fdc g     F .text.startup	00000040 main
c000133c g       .bss	00000000 _BSS_START_
c000065c g     F .text	000000ac sd_cmd8
c0001340 g       .bss	00000000 _BSS_END_
c0000978 g     F .text	00000024 crc7
c000101c g       .data	00000000 _DATA_START_
c0000054 g     F .text	00000030 print_uart
c0001339 g       .rodata	00000000 _RODATA_END_
c00002b8 g     F .text	000000b8 spi_txrx
c00001e8 g     F .text	00000008 write_reg
c00001f0 g     F .text	00000008 read_reg
c000102c g       .rodata	00000000 _RODATA_START_
c000101c g     O .data	00000010 bin_to_hex_table
c0000020 g       .text	00000000 _TEXT_START_



Disassembly of section .text.init:

c0000000 <_prog_start>:

  .section .text.init
  .option norvc
  .globl _prog_start
_prog_start:
  nop
c0000000:	00000013          	nop
  nop
c0000004:	00000013          	nop
  nop
c0000008:	00000013          	nop
  li sp,0xc0010000
c000000c:	c0010137          	lui	sp,0xc0010
#  smp_pause(s0,s1)
  call main
c0000010:	7cd000ef          	jal	ra,c0000fdc <main>
#  smp_resume(s0,s1)
  csrr a0, mhartid
c0000014:	f1402573          	csrr	a0,mhartid
  li s1, DRAM_BASE
c0000018:	800004b7          	lui	s1,0x80000
  jr s1
c000001c:	00048067          	jr	s1 # 80000000 <_BSS_END_+0xbfffecc0>

Disassembly of section .text:

c0000020 <init_uart>:
// init_uart: Initialise UART peripheral
//-----------------------------------------------------------------
void init_uart(uint32_t base_addr, uint32_t baud_rate)           
{
    uint32_t cfg = 0;
    m_uart = (volatile uint32_t *)base_addr;
c0000020:	00001797          	auipc	a5,0x1
c0000024:	30a7ae23          	sw	a0,796(a5) # c000133c <m_uart>

    // Soft reset
    cfg += (1 << ULITE_CONTROL_RST_RX_SHIFT);
    cfg += (1 << ULITE_CONTROL_RST_TX_SHIFT);

    m_uart[ULITE_CONTROL/4]  = cfg;
c0000028:	00300793          	li	a5,3
c000002c:	00f52623          	sw	a5,12(a0)
}
c0000030:	00008067          	ret

c0000034 <serial_putchar>:
// serial_putchar: Polled putchar
//-----------------------------------------------------------------
int serial_putchar(char c)
{
    // While TX FIFO full
    while (m_uart[ULITE_STATUS/4] & (1 << ULITE_STATUS_TXFULL_SHIFT))
c0000034:	00001797          	auipc	a5,0x1
c0000038:	3087a703          	lw	a4,776(a5) # c000133c <m_uart>
c000003c:	00872783          	lw	a5,8(a4)
c0000040:	0087f793          	andi	a5,a5,8
c0000044:	fe079ce3          	bnez	a5,c000003c <serial_putchar+0x8>
        ;

    m_uart[ULITE_TX/4] = c;
c0000048:	00a72223          	sw	a0,4(a4)

    return 0;
}
c000004c:	00000513          	li	a0,0
c0000050:	00008067          	ret

c0000054 <print_uart>:
//-------------------------------------------------------------
// print_uart: Print string (NULL terminated)
//-------------------------------------------------------------
void print_uart(const char *str)
{
    while (*str)
c0000054:	00054683          	lbu	a3,0(a0)
c0000058:	02068463          	beqz	a3,c0000080 <print_uart+0x2c>
    while (m_uart[ULITE_STATUS/4] & (1 << ULITE_STATUS_TXFULL_SHIFT))
c000005c:	00001797          	auipc	a5,0x1
c0000060:	2e07a703          	lw	a4,736(a5) # c000133c <m_uart>
        serial_putchar(*str++);
c0000064:	00150513          	addi	a0,a0,1
    while (m_uart[ULITE_STATUS/4] & (1 << ULITE_STATUS_TXFULL_SHIFT))
c0000068:	00872783          	lw	a5,8(a4)
c000006c:	0087f793          	andi	a5,a5,8
c0000070:	fe079ce3          	bnez	a5,c0000068 <print_uart+0x14>
    m_uart[ULITE_TX/4] = c;
c0000074:	00d72223          	sw	a3,4(a4)
    while (*str)
c0000078:	00054683          	lbu	a3,0(a0)
c000007c:	fe0694e3          	bnez	a3,c0000064 <print_uart+0x10>
}
c0000080:	00008067          	ret

c0000084 <bin_to_hex>:
uint8_t bin_to_hex_table[16] = {
    '0', '1', '2', '3', '4', '5', '6', '7', '8', '9', 'A', 'B', 'C', 'D', 'E', 'F'};

void bin_to_hex(uint8_t inp, uint8_t res[2])
{
    res[1] = bin_to_hex_table[inp & 0xf];
c0000084:	00001797          	auipc	a5,0x1
c0000088:	f9878793          	addi	a5,a5,-104 # c000101c <bin_to_hex_table>
c000008c:	00f57713          	andi	a4,a0,15
c0000090:	00e78733          	add	a4,a5,a4
c0000094:	00074703          	lbu	a4,0(a4)
    res[0] = bin_to_hex_table[(inp >> 4) & 0xf];
c0000098:	00455513          	srli	a0,a0,0x4
c000009c:	00a787b3          	add	a5,a5,a0
    res[1] = bin_to_hex_table[inp & 0xf];
c00000a0:	00e580a3          	sb	a4,1(a1)
    res[0] = bin_to_hex_table[(inp >> 4) & 0xf];
c00000a4:	0007c783          	lbu	a5,0(a5)
c00000a8:	00f58023          	sb	a5,0(a1)
    return;
}
c00000ac:	00008067          	ret

c00000b0 <print_uart_int>:
    while (m_uart[ULITE_STATUS/4] & (1 << ULITE_STATUS_TXFULL_SHIFT))
c00000b0:	00001797          	auipc	a5,0x1
c00000b4:	28c7a703          	lw	a4,652(a5) # c000133c <m_uart>
c00000b8:	00001597          	auipc	a1,0x1
c00000bc:	01800613          	li	a2,24
c00000c0:	f6458593          	addi	a1,a1,-156 # c000101c <bin_to_hex_table>

void print_uart_int(uint32_t addr)
{
    int i;
    for (i = 3; i > -1; i--)
c00000c4:	ff800893          	li	a7,-8
    {
        uint8_t cur = (addr >> (i * 8)) & 0xff;
c00000c8:	00c557b3          	srl	a5,a0,a2
c00000cc:	0ff7f693          	zext.b	a3,a5
    res[0] = bin_to_hex_table[(inp >> 4) & 0xf];
c00000d0:	0046d693          	srli	a3,a3,0x4
    res[1] = bin_to_hex_table[inp & 0xf];
c00000d4:	00f7f793          	andi	a5,a5,15
c00000d8:	00f587b3          	add	a5,a1,a5
    res[0] = bin_to_hex_table[(inp >> 4) & 0xf];
c00000dc:	00d586b3          	add	a3,a1,a3
    res[1] = bin_to_hex_table[inp & 0xf];
c00000e0:	0007c803          	lbu	a6,0(a5)
    res[0] = bin_to_hex_table[(inp >> 4) & 0xf];
c00000e4:	0006c683          	lbu	a3,0(a3)
    while (m_uart[ULITE_STATUS/4] & (1 << ULITE_STATUS_TXFULL_SHIFT))
c00000e8:	00872783          	lw	a5,8(a4)
c00000ec:	0087f793          	andi	a5,a5,8
c00000f0:	fe079ce3          	bnez	a5,c00000e8 <print_uart_int+0x38>
    m_uart[ULITE_TX/4] = c;
c00000f4:	00d72223          	sw	a3,4(a4)
    while (m_uart[ULITE_STATUS/4] & (1 << ULITE_STATUS_TXFULL_SHIFT))
c00000f8:	00872783          	lw	a5,8(a4)
c00000fc:	0087f793          	andi	a5,a5,8
c0000100:	fe079ce3          	bnez	a5,c00000f8 <print_uart_int+0x48>
    m_uart[ULITE_TX/4] = c;
c0000104:	01072223          	sw	a6,4(a4)
    for (i = 3; i > -1; i--)
c0000108:	ff860613          	addi	a2,a2,-8
c000010c:	fb161ee3          	bne	a2,a7,c00000c8 <print_uart_int+0x18>
        uint8_t hex[2];
        bin_to_hex(cur, hex);
        serial_putchar(hex[0]);
        serial_putchar(hex[1]);
    }
}
c0000110:	00008067          	ret

c0000114 <print_uart_addr>:
    while (m_uart[ULITE_STATUS/4] & (1 << ULITE_STATUS_TXFULL_SHIFT))
c0000114:	00001797          	auipc	a5,0x1
c0000118:	2287a703          	lw	a4,552(a5) # c000133c <m_uart>
c000011c:	00001817          	auipc	a6,0x1
c0000120:	03800613          	li	a2,56
c0000124:	f0080813          	addi	a6,a6,-256 # c000101c <bin_to_hex_table>
void print_uart_addr(uint64_t addr)
{
    int i;
    for (i = 7; i > -1; i--)
    {
        uint8_t cur = (addr >> (i * 8)) & 0xff;
c0000128:	00159e93          	slli	t4,a1,0x1
c000012c:	01f00e13          	li	t3,31
    for (i = 7; i > -1; i--)
c0000130:	ff800313          	li	t1,-8
        uint8_t cur = (addr >> (i * 8)) & 0xff;
c0000134:	fe060793          	addi	a5,a2,-32
c0000138:	0407c863          	bltz	a5,c0000188 <print_uart_addr+0x74>
c000013c:	00f5d7b3          	srl	a5,a1,a5
c0000140:	0ff7f693          	zext.b	a3,a5
    res[0] = bin_to_hex_table[(inp >> 4) & 0xf];
c0000144:	0046d693          	srli	a3,a3,0x4
    res[1] = bin_to_hex_table[inp & 0xf];
c0000148:	00f7f793          	andi	a5,a5,15
c000014c:	00f807b3          	add	a5,a6,a5
    res[0] = bin_to_hex_table[(inp >> 4) & 0xf];
c0000150:	00d806b3          	add	a3,a6,a3
    res[1] = bin_to_hex_table[inp & 0xf];
c0000154:	0007c883          	lbu	a7,0(a5)
    res[0] = bin_to_hex_table[(inp >> 4) & 0xf];
c0000158:	0006c683          	lbu	a3,0(a3)
    while (m_uart[ULITE_STATUS/4] & (1 << ULITE_STATUS_TXFULL_SHIFT))
c000015c:	00872783          	lw	a5,8(a4)
c0000160:	0087f793          	andi	a5,a5,8
c0000164:	fe079ce3          	bnez	a5,c000015c <print_uart_addr+0x48>
    m_uart[ULITE_TX/4] = c;
c0000168:	00d72223          	sw	a3,4(a4)
    while (m_uart[ULITE_STATUS/4] & (1 << ULITE_STATUS_TXFULL_SHIFT))
c000016c:	00872783          	lw	a5,8(a4)
c0000170:	0087f793          	andi	a5,a5,8
c0000174:	fe079ce3          	bnez	a5,c000016c <print_uart_addr+0x58>
    m_uart[ULITE_TX/4] = c;
c0000178:	01172223          	sw	a7,4(a4)
    for (i = 7; i > -1; i--)
c000017c:	ff860613          	addi	a2,a2,-8
c0000180:	fa661ae3          	bne	a2,t1,c0000134 <print_uart_addr+0x20>
        uint8_t hex[2];
        bin_to_hex(cur, hex);
        serial_putchar(hex[0]);
        serial_putchar(hex[1]);
    }
}
c0000184:	00008067          	ret
        uint8_t cur = (addr >> (i * 8)) & 0xff;
c0000188:	40ce06b3          	sub	a3,t3,a2
c000018c:	00de96b3          	sll	a3,t4,a3
c0000190:	00c557b3          	srl	a5,a0,a2
c0000194:	00f6e7b3          	or	a5,a3,a5
c0000198:	fa9ff06f          	j	c0000140 <print_uart_addr+0x2c>

c000019c <print_uart_byte>:
    res[1] = bin_to_hex_table[inp & 0xf];
c000019c:	00001797          	auipc	a5,0x1
c00001a0:	e8078793          	addi	a5,a5,-384 # c000101c <bin_to_hex_table>
c00001a4:	00f57713          	andi	a4,a0,15
    res[0] = bin_to_hex_table[(inp >> 4) & 0xf];
c00001a8:	00455513          	srli	a0,a0,0x4
    res[1] = bin_to_hex_table[inp & 0xf];
c00001ac:	00e78733          	add	a4,a5,a4
    res[0] = bin_to_hex_table[(inp >> 4) & 0xf];
c00001b0:	00a787b3          	add	a5,a5,a0
c00001b4:	0007c603          	lbu	a2,0(a5)
    while (m_uart[ULITE_STATUS/4] & (1 << ULITE_STATUS_TXFULL_SHIFT))
c00001b8:	00001797          	auipc	a5,0x1
    res[1] = bin_to_hex_table[inp & 0xf];
c00001bc:	00074683          	lbu	a3,0(a4)
    while (m_uart[ULITE_STATUS/4] & (1 << ULITE_STATUS_TXFULL_SHIFT))
c00001c0:	1847a703          	lw	a4,388(a5) # c000133c <m_uart>
c00001c4:	00872783          	lw	a5,8(a4)
c00001c8:	0087f793          	andi	a5,a5,8
c00001cc:	fe079ce3          	bnez	a5,c00001c4 <print_uart_byte+0x28>
    m_uart[ULITE_TX/4] = c;
c00001d0:	00c72223          	sw	a2,4(a4)
    while (m_uart[ULITE_STATUS/4] & (1 << ULITE_STATUS_TXFULL_SHIFT))
c00001d4:	00872783          	lw	a5,8(a4)
c00001d8:	0087f793          	andi	a5,a5,8
c00001dc:	fe079ce3          	bnez	a5,c00001d4 <print_uart_byte+0x38>
    m_uart[ULITE_TX/4] = c;
c00001e0:	00d72223          	sw	a3,4(a4)
{
    uint8_t hex[2];
    bin_to_hex(byte, hex);
    serial_putchar(hex[0]);
    serial_putchar(hex[1]);
c00001e4:	00008067          	ret

c00001e8 <write_reg>:
#include "uart.h"

void write_reg(uintptr_t addr, uint32_t value)
{
    volatile uint32_t *loc_addr = (volatile uint32_t *)addr;
    *loc_addr = value;
c00001e8:	00b52023          	sw	a1,0(a0)
}
c00001ec:	00008067          	ret

c00001f0 <read_reg>:

uint32_t read_reg(uintptr_t addr)
{
    return *(volatile uint32_t *)addr;
c00001f0:	00052503          	lw	a0,0(a0)
}
c00001f4:	00008067          	ret

c00001f8 <spi_init>:

void spi_init()
{
    print_uart("init SPI\r\n");
c00001f8:	00001517          	auipc	a0,0x1
{
c00001fc:	ff010113          	addi	sp,sp,-16 # c000fff0 <_BSS_END_+0xecb0>
    print_uart("init SPI\r\n");
c0000200:	e4450513          	addi	a0,a0,-444 # c000103c <_DATA_END_+0x10>
{
c0000204:	00112623          	sw	ra,12(sp)
c0000208:	00812423          	sw	s0,8(sp)
c000020c:	00912223          	sw	s1,4(sp)
    print_uart("init SPI\r\n");
c0000210:	e45ff0ef          	jal	ra,c0000054 <print_uart>
    *loc_addr = value;
c0000214:	200007b7          	lui	a5,0x20000
c0000218:	00a00713          	li	a4,10
c000021c:	04e7a023          	sw	a4,64(a5) # 20000040 <ROM_BASE-0x9fffffc0>
c0000220:	00a00793          	li	a5,10
    // reset the axi quadspi core
    write_reg(SPI_RESET_REG, 0x0a);

    for (int i = 0; i < 10; i++)
    {
        __asm__ volatile(
c0000224:	00000013          	nop
    for (int i = 0; i < 10; i++)
c0000228:	fff78793          	addi	a5,a5,-1
c000022c:	fe079ce3          	bnez	a5,c0000224 <spi_init+0x2c>
    *loc_addr = value;
c0000230:	20000437          	lui	s0,0x20000
c0000234:	10400793          	li	a5,260
c0000238:	06f42023          	sw	a5,96(s0) # 20000060 <ROM_BASE-0x9fffffa0>
    return *(volatile uint32_t *)addr;
c000023c:	06442483          	lw	s1,100(s0)
    }

    write_reg(SPI_CONTROL_REG, 0x104);

    uint32_t status = read_reg(SPI_STATUS_REG);
    print_uart("status: 0x");
c0000240:	00001517          	auipc	a0,0x1
c0000244:	e0850513          	addi	a0,a0,-504 # c0001048 <_DATA_END_+0x1c>
c0000248:	e0dff0ef          	jal	ra,c0000054 <print_uart>
    print_uart_addr(status);
c000024c:	00000593          	li	a1,0
c0000250:	00048513          	mv	a0,s1
c0000254:	ec1ff0ef          	jal	ra,c0000114 <print_uart_addr>
    print_uart("\r\n");
c0000258:	00001517          	auipc	a0,0x1
c000025c:	e0c50513          	addi	a0,a0,-500 # c0001064 <_DATA_END_+0x38>
c0000260:	df5ff0ef          	jal	ra,c0000054 <print_uart>
    *loc_addr = value;
c0000264:	16600793          	li	a5,358
c0000268:	06f42023          	sw	a5,96(s0)
    return *(volatile uint32_t *)addr;
c000026c:	06442483          	lw	s1,100(s0)

    // clear all fifos
    write_reg(SPI_CONTROL_REG, 0x166);

    status = read_reg(SPI_STATUS_REG);
    print_uart("status: 0x");
c0000270:	00001517          	auipc	a0,0x1
c0000274:	dd850513          	addi	a0,a0,-552 # c0001048 <_DATA_END_+0x1c>
c0000278:	dddff0ef          	jal	ra,c0000054 <print_uart>
    print_uart_addr(status);
c000027c:	00048513          	mv	a0,s1
c0000280:	00000593          	li	a1,0
c0000284:	e91ff0ef          	jal	ra,c0000114 <print_uart_addr>
    print_uart("\r\n");
c0000288:	00001517          	auipc	a0,0x1
c000028c:	ddc50513          	addi	a0,a0,-548 # c0001064 <_DATA_END_+0x38>
c0000290:	dc5ff0ef          	jal	ra,c0000054 <print_uart>
    *loc_addr = value;
c0000294:	00600793          	li	a5,6
c0000298:	06f42023          	sw	a5,96(s0)

    write_reg(SPI_CONTROL_REG, 0x06);

    print_uart("SPI initialized!\r\n");
}
c000029c:	00812403          	lw	s0,8(sp)
c00002a0:	00c12083          	lw	ra,12(sp)
c00002a4:	00412483          	lw	s1,4(sp)
    print_uart("SPI initialized!\r\n");
c00002a8:	00001517          	auipc	a0,0x1
c00002ac:	dac50513          	addi	a0,a0,-596 # c0001054 <_DATA_END_+0x28>
}
c00002b0:	01010113          	addi	sp,sp,16
    print_uart("SPI initialized!\r\n");
c00002b4:	da1ff06f          	j	c0000054 <print_uart>

c00002b8 <spi_txrx>:

uint8_t spi_txrx(uint8_t byte)
{
c00002b8:	ff010113          	addi	sp,sp,-16
    *loc_addr = value;
c00002bc:	200007b7          	lui	a5,0x20000
{
c00002c0:	00112623          	sw	ra,12(sp)
c00002c4:	00812423          	sw	s0,8(sp)
c00002c8:	00912223          	sw	s1,4(sp)
    *loc_addr = value;
c00002cc:	ffe00713          	li	a4,-2
c00002d0:	06e7a823          	sw	a4,112(a5) # 20000070 <ROM_BASE-0x9fffff90>
c00002d4:	06a7a423          	sw	a0,104(a5)
c00002d8:	000017b7          	lui	a5,0x1
c00002dc:	bb878793          	addi	a5,a5,-1096 # bb8 <ROM_BASE-0xbffff448>

    write_reg(SPI_TRANSMIT_REG, byte);

    for (int i = 0; i < 3000; i++)
    {
        __asm__ volatile(
c00002e0:	00000013          	nop
    for (int i = 0; i < 3000; i++)
c00002e4:	fff78793          	addi	a5,a5,-1
c00002e8:	fe079ce3          	bnez	a5,c00002e0 <spi_txrx+0x28>
    *loc_addr = value;
c00002ec:	10600713          	li	a4,262
c00002f0:	200007b7          	lui	a5,0x20000
c00002f4:	06e7a023          	sw	a4,96(a5) # 20000060 <ROM_BASE-0x9fffffa0>
    return *(volatile uint32_t *)addr;
c00002f8:	20000737          	lui	a4,0x20000
c00002fc:	06472783          	lw	a5,100(a4) # 20000064 <ROM_BASE-0x9fffff9c>
c0000300:	06470413          	addi	s0,a4,100
    }

    // enable spi control master flag
    write_reg(SPI_CONTROL_REG, 0x106);
    
    while ((read_reg(SPI_STATUS_REG) & 0x1) == 0x1)
c0000304:	0017f793          	andi	a5,a5,1
c0000308:	fe079ae3          	bnez	a5,c00002fc <spi_txrx+0x44>
    return *(volatile uint32_t *)addr;
c000030c:	06c72483          	lw	s1,108(a4)
c0000310:	06472783          	lw	a5,100(a4)
        ;

    uint32_t result = read_reg(SPI_RECEIVE_REG);

    if ((read_reg(SPI_STATUS_REG) & 0x1) != 0x1)
c0000314:	0017f793          	andi	a5,a5,1
c0000318:	02078863          	beqz	a5,c0000348 <spi_txrx+0x90>

    // disable spi control master flag
    write_reg(SPI_CONTROL_REG, 0x06);

    return result;
}
c000031c:	00c12083          	lw	ra,12(sp)
c0000320:	00812403          	lw	s0,8(sp)
    *loc_addr = value;
c0000324:	200007b7          	lui	a5,0x20000
c0000328:	fff00713          	li	a4,-1
c000032c:	06e7a823          	sw	a4,112(a5) # 20000070 <ROM_BASE-0x9fffff90>
c0000330:	00600713          	li	a4,6
c0000334:	06e7a023          	sw	a4,96(a5)
}
c0000338:	0ff4f513          	zext.b	a0,s1
c000033c:	00412483          	lw	s1,4(sp)
c0000340:	01010113          	addi	sp,sp,16
c0000344:	00008067          	ret
        print_uart("rx fifo not empty?? ");
c0000348:	00001517          	auipc	a0,0x1
c000034c:	d2050513          	addi	a0,a0,-736 # c0001068 <_DATA_END_+0x3c>
c0000350:	d05ff0ef          	jal	ra,c0000054 <print_uart>
    return *(volatile uint32_t *)addr;
c0000354:	00042503          	lw	a0,0(s0)
        print_uart_addr(read_reg(SPI_STATUS_REG));
c0000358:	00000593          	li	a1,0
c000035c:	db9ff0ef          	jal	ra,c0000114 <print_uart_addr>
        print_uart("\r\n");
c0000360:	00001517          	auipc	a0,0x1
c0000364:	d0450513          	addi	a0,a0,-764 # c0001064 <_DATA_END_+0x38>
c0000368:	cedff0ef          	jal	ra,c0000054 <print_uart>
c000036c:	fb1ff06f          	j	c000031c <spi_txrx+0x64>

c0000370 <spi_write_bytes>:
{
    uint32_t status;
    int j;
    j = 0;

    if (len > 256) // FIFO maxdepth 256
c0000370:	10000793          	li	a5,256
{
c0000374:	00050713          	mv	a4,a0
c0000378:	00058813          	mv	a6,a1
c000037c:	00060513          	mv	a0,a2
c0000380:	00068893          	mv	a7,a3
    if (len > 256) // FIFO maxdepth 256
c0000384:	0eb7ec63          	bltu	a5,a1,c000047c <spi_write_bytes+0x10c>
    *loc_addr = value;
c0000388:	200007b7          	lui	a5,0x20000
c000038c:	ffe00693          	li	a3,-2
c0000390:	06d7a823          	sw	a3,112(a5) # 20000070 <ROM_BASE-0x9fffff90>
        return -1;

    // enable slave select
    write_reg(SPI_SLAVE_SELECT_REG, 0xfffffffe);

    for (int i = 0; i < len; i++)
c0000394:	02058663          	beqz	a1,c00003c0 <spi_write_bytes+0x50>
c0000398:	00b705b3          	add	a1,a4,a1
    *loc_addr = value;
c000039c:	20000637          	lui	a2,0x20000
    {
        write_reg(SPI_TRANSMIT_REG, bytes[i] & 0xff);
c00003a0:	00074683          	lbu	a3,0(a4)
    *loc_addr = value;
c00003a4:	06400793          	li	a5,100
c00003a8:	06d62423          	sw	a3,104(a2) # 20000068 <ROM_BASE-0x9fffff98>
        for (int nop_i = 0; nop_i < 100; nop_i++)
        {
            __asm__ volatile(
c00003ac:	00000013          	nop
        for (int nop_i = 0; nop_i < 100; nop_i++)
c00003b0:	fff78793          	addi	a5,a5,-1
c00003b4:	fe079ce3          	bnez	a5,c00003ac <spi_write_bytes+0x3c>
    for (int i = 0; i < len; i++)
c00003b8:	00170713          	addi	a4,a4,1
c00003bc:	fee592e3          	bne	a1,a4,c00003a0 <spi_write_bytes+0x30>
    *loc_addr = value;
c00003c0:	000017b7          	lui	a5,0x1
c00003c4:	bb878793          	addi	a5,a5,-1096 # bb8 <ROM_BASE-0xbffff448>
        }
    }

    for (int i = 0; i < 3000; i++)
    {
        __asm__ volatile(
c00003c8:	00000013          	nop
    for (int i = 0; i < 3000; i++)
c00003cc:	fff78793          	addi	a5,a5,-1
c00003d0:	fe079ce3          	bnez	a5,c00003c8 <spi_write_bytes+0x58>
    *loc_addr = value;
c00003d4:	10600713          	li	a4,262
c00003d8:	200007b7          	lui	a5,0x20000
c00003dc:	06e7a023          	sw	a4,96(a5) # 20000060 <ROM_BASE-0x9fffffa0>
    return *(volatile uint32_t *)addr;
c00003e0:	20000737          	lui	a4,0x20000
c00003e4:	06472783          	lw	a5,100(a4) # 20000064 <ROM_BASE-0x9fffff9c>
    write_reg(SPI_CONTROL_REG, 0x106);

    do
    {
        status = read_reg(SPI_STATUS_REG);
    } while ((status & 0x1) == 0x1);
c00003e8:	0017f793          	andi	a5,a5,1
c00003ec:	fe079ce3          	bnez	a5,c00003e4 <spi_write_bytes+0x74>

    for (int i = 0; i < len;)
c00003f0:	06080863          	beqz	a6,c0000460 <spi_write_bytes+0xf0>
c00003f4:	00000613          	li	a2,0
    j = 0;
c00003f8:	00000693          	li	a3,0
    return *(volatile uint32_t *)addr;
c00003fc:	200005b7          	lui	a1,0x20000
        }
        else
        {
            j = j + 1;
        }
        if (j > 1000)
c0000400:	3e800e13          	li	t3,1000
            if(size != 1) {
c0000404:	00100313          	li	t1,1
c0000408:	0300006f          	j	c0000438 <spi_write_bytes+0xc8>
c000040c:	00688863          	beq	a7,t1,c000041c <spi_write_bytes+0xac>
                __asm__ volatile(
c0000410:	00000013          	nop
c0000414:	00000013          	nop
c0000418:	00000013          	nop
    return *(volatile uint32_t *)addr;
c000041c:	06c5a703          	lw	a4,108(a1) # 2000006c <ROM_BASE-0x9fffff94>
            ret[i] = read_reg(SPI_RECEIVE_REG);
c0000420:	00f507b3          	add	a5,a0,a5
            i++;
c0000424:	00160613          	addi	a2,a2,1
            ret[i] = read_reg(SPI_RECEIVE_REG);
c0000428:	00e78023          	sb	a4,0(a5)
            j = 0;
c000042c:	00000693          	li	a3,0
    for (int i = 0; i < len;)
c0000430:	00060793          	mv	a5,a2
c0000434:	03067663          	bgeu	a2,a6,c0000460 <spi_write_bytes+0xf0>
    return *(volatile uint32_t *)addr;
c0000438:	0645a703          	lw	a4,100(a1)
            j = j + 1;
c000043c:	00168693          	addi	a3,a3,1
        if ((status & 0x1) != 0x1) // recieve fifo not empty
c0000440:	00177713          	andi	a4,a4,1
c0000444:	fc0704e3          	beqz	a4,c000040c <spi_write_bytes+0x9c>
        if (j > 1000)
c0000448:	fede54e3          	bge	t3,a3,c0000430 <spi_write_bytes+0xc0>
        {
            __asm__ volatile(
c000044c:	00000013          	nop
c0000450:	00000013          	nop
c0000454:	00000013          	nop
                "nop;"
                "nop;"
                "nop");
            return -1;
c0000458:	fff00513          	li	a0,-1
c000045c:	00008067          	ret
    *loc_addr = value;
c0000460:	200007b7          	lui	a5,0x20000
c0000464:	fff00713          	li	a4,-1
c0000468:	06e7a823          	sw	a4,112(a5) # 20000070 <ROM_BASE-0x9fffff90>
c000046c:	00600713          	li	a4,6
c0000470:	06e7a023          	sw	a4,96(a5)
    write_reg(SPI_SLAVE_SELECT_REG, 0xffffffff);

    // disable spi control master flag
    write_reg(SPI_CONTROL_REG, 0x06);

    return 0;
c0000474:	00000513          	li	a0,0
c0000478:	00008067          	ret
        return -1;
c000047c:	fff00513          	li	a0,-1
c0000480:	00008067          	ret

c0000484 <sd_dummy>:
#include "uart.h"

// spi full duplex: send 0xff to receive byte
uint8_t sd_dummy()
{
    return spi_txrx(0xFF);
c0000484:	0ff00513          	li	a0,255
c0000488:	e31ff06f          	j	c00002b8 <spi_txrx>

c000048c <sd_cmd>:
}

uint8_t sd_cmd(uint8_t cmd, uint32_t arg, uint8_t crc)
{
c000048c:	ff010113          	addi	sp,sp,-16
c0000490:	01212023          	sw	s2,0(sp)
c0000494:	00050913          	mv	s2,a0
    return spi_txrx(0xFF);
c0000498:	0ff00513          	li	a0,255
{
c000049c:	00112623          	sw	ra,12(sp)
c00004a0:	00812423          	sw	s0,8(sp)
c00004a4:	00912223          	sw	s1,4(sp)
c00004a8:	00058413          	mv	s0,a1
c00004ac:	00060493          	mv	s1,a2
    return spi_txrx(0xFF);
c00004b0:	e09ff0ef          	jal	ra,c00002b8 <spi_txrx>
    unsigned long n;
    uint8_t r;

    sd_dummy();
    spi_txrx(0x40 | cmd);
c00004b4:	04096513          	ori	a0,s2,64
c00004b8:	e01ff0ef          	jal	ra,c00002b8 <spi_txrx>
    spi_txrx(arg >> 24);
c00004bc:	01845513          	srli	a0,s0,0x18
c00004c0:	df9ff0ef          	jal	ra,c00002b8 <spi_txrx>
    spi_txrx(arg >> 16);
c00004c4:	01045513          	srli	a0,s0,0x10
c00004c8:	0ff57513          	zext.b	a0,a0
c00004cc:	dedff0ef          	jal	ra,c00002b8 <spi_txrx>
    spi_txrx(arg >> 8);
c00004d0:	00845513          	srli	a0,s0,0x8
c00004d4:	0ff57513          	zext.b	a0,a0
c00004d8:	de1ff0ef          	jal	ra,c00002b8 <spi_txrx>
    spi_txrx(arg);
c00004dc:	0ff47513          	zext.b	a0,s0
c00004e0:	dd9ff0ef          	jal	ra,c00002b8 <spi_txrx>
    spi_txrx(crc);
c00004e4:	00048513          	mv	a0,s1
c00004e8:	dd1ff0ef          	jal	ra,c00002b8 <spi_txrx>
c00004ec:	06400413          	li	s0,100
c00004f0:	0080006f          	j	c00004f8 <sd_cmd+0x6c>
        r = sd_dummy();
        if (!(r & 0x80))
        {
            break;
        }
    } while (--n > 0);
c00004f4:	00040e63          	beqz	s0,c0000510 <sd_cmd+0x84>
    return spi_txrx(0xFF);
c00004f8:	0ff00513          	li	a0,255
c00004fc:	dbdff0ef          	jal	ra,c00002b8 <spi_txrx>
        if (!(r & 0x80))
c0000500:	01851793          	slli	a5,a0,0x18
c0000504:	4187d793          	srai	a5,a5,0x18
    } while (--n > 0);
c0000508:	fff40413          	addi	s0,s0,-1
        if (!(r & 0x80))
c000050c:	fe07c4e3          	bltz	a5,c00004f4 <sd_cmd+0x68>
    if (n == 0)
    {
        // print_uart("could not find valid sd response\r\n");
    }
    return r;
}
c0000510:	00c12083          	lw	ra,12(sp)
c0000514:	00812403          	lw	s0,8(sp)
c0000518:	00412483          	lw	s1,4(sp)
c000051c:	00012903          	lw	s2,0(sp)
c0000520:	01010113          	addi	sp,sp,16
c0000524:	00008067          	ret

c0000528 <print_status>:

void print_status(const char *cmd, uint8_t response)
{
c0000528:	ff010113          	addi	sp,sp,-16
c000052c:	00912223          	sw	s1,4(sp)
c0000530:	00050493          	mv	s1,a0
    print_uart("SD command ");
c0000534:	00001517          	auipc	a0,0x1
c0000538:	b4c50513          	addi	a0,a0,-1204 # c0001080 <_DATA_END_+0x54>
{
c000053c:	00112623          	sw	ra,12(sp)
c0000540:	00812423          	sw	s0,8(sp)
c0000544:	00058413          	mv	s0,a1
    print_uart("SD command ");
c0000548:	b0dff0ef          	jal	ra,c0000054 <print_uart>
    print_uart(cmd);
c000054c:	00048513          	mv	a0,s1
c0000550:	b05ff0ef          	jal	ra,c0000054 <print_uart>
    print_uart(" \tresponse : ");
c0000554:	00001517          	auipc	a0,0x1
c0000558:	b3850513          	addi	a0,a0,-1224 # c000108c <_DATA_END_+0x60>
c000055c:	af9ff0ef          	jal	ra,c0000054 <print_uart>
    print_uart_byte(response);
c0000560:	00040513          	mv	a0,s0
c0000564:	c39ff0ef          	jal	ra,c000019c <print_uart_byte>
    print_uart("\r\n");
}
c0000568:	00812403          	lw	s0,8(sp)
c000056c:	00c12083          	lw	ra,12(sp)
c0000570:	00412483          	lw	s1,4(sp)
    print_uart("\r\n");
c0000574:	00001517          	auipc	a0,0x1
c0000578:	af050513          	addi	a0,a0,-1296 # c0001064 <_DATA_END_+0x38>
}
c000057c:	01010113          	addi	sp,sp,16
    print_uart("\r\n");
c0000580:	ad5ff06f          	j	c0000054 <print_uart>

c0000584 <sd_cmd0>:

int sd_cmd0()
{
c0000584:	ff010113          	addi	sp,sp,-16
    int counter = 10000;
    uint8_t r = 0xff;
    while (r != 0x1)
    {
        r = sd_cmd(0, 0, 0x95);
c0000588:	09500613          	li	a2,149
c000058c:	00000593          	li	a1,0
c0000590:	00000513          	li	a0,0
{
c0000594:	00112623          	sw	ra,12(sp)
c0000598:	00812423          	sw	s0,8(sp)
c000059c:	00912223          	sw	s1,4(sp)
c00005a0:	01212023          	sw	s2,0(sp)
        r = sd_cmd(0, 0, 0x95);
c00005a4:	ee9ff0ef          	jal	ra,c000048c <sd_cmd>
c00005a8:	00050413          	mv	s0,a0
    return spi_txrx(0xFF);
c00005ac:	000024b7          	lui	s1,0x2
c00005b0:	0ff00513          	li	a0,255
c00005b4:	d05ff0ef          	jal	ra,c00002b8 <spi_txrx>
c00005b8:	70f48493          	addi	s1,s1,1807 # 270f <ROM_BASE-0xbfffd8f1>
    while (r != 0x1)
c00005bc:	00100913          	li	s2,1
c00005c0:	0180006f          	j	c00005d8 <sd_cmd0+0x54>
        r = sd_cmd(0, 0, 0x95);
c00005c4:	ec9ff0ef          	jal	ra,c000048c <sd_cmd>
c00005c8:	00050413          	mv	s0,a0
    return spi_txrx(0xFF);
c00005cc:	0ff00513          	li	a0,255
c00005d0:	ce9ff0ef          	jal	ra,c00002b8 <spi_txrx>
        sd_dummy(); // R1: 1 Byte response
        counter--;
        if (counter <= 0)
c00005d4:	06048663          	beqz	s1,c0000640 <sd_cmd0+0xbc>
        r = sd_cmd(0, 0, 0x95);
c00005d8:	09500613          	li	a2,149
c00005dc:	00000593          	li	a1,0
c00005e0:	00000513          	li	a0,0
        if (counter <= 0)
c00005e4:	fff48493          	addi	s1,s1,-1
    while (r != 0x1)
c00005e8:	fd241ee3          	bne	s0,s2,c00005c4 <sd_cmd0+0x40>
    print_uart("SD command ");
c00005ec:	00001517          	auipc	a0,0x1
c00005f0:	a9450513          	addi	a0,a0,-1388 # c0001080 <_DATA_END_+0x54>
c00005f4:	a61ff0ef          	jal	ra,c0000054 <print_uart>
    print_uart(cmd);
c00005f8:	00001517          	auipc	a0,0x1
c00005fc:	aa450513          	addi	a0,a0,-1372 # c000109c <_DATA_END_+0x70>
c0000600:	a55ff0ef          	jal	ra,c0000054 <print_uart>
    print_uart(" \tresponse : ");
c0000604:	00001517          	auipc	a0,0x1
c0000608:	a8850513          	addi	a0,a0,-1400 # c000108c <_DATA_END_+0x60>
c000060c:	a49ff0ef          	jal	ra,c0000054 <print_uart>
    print_uart_byte(response);
c0000610:	00100513          	li	a0,1
c0000614:	b89ff0ef          	jal	ra,c000019c <print_uart_byte>
    print_uart("\r\n");
c0000618:	00001517          	auipc	a0,0x1
c000061c:	a4c50513          	addi	a0,a0,-1460 # c0001064 <_DATA_END_+0x38>
c0000620:	a35ff0ef          	jal	ra,c0000054 <print_uart>
            return 1 == 0;
    }
    print_status("cmd0", r);

    return r == 0x1;
}
c0000624:	00c12083          	lw	ra,12(sp)
c0000628:	00812403          	lw	s0,8(sp)
c000062c:	00412483          	lw	s1,4(sp)
c0000630:	00012903          	lw	s2,0(sp)
    return r == 0x1;
c0000634:	00100513          	li	a0,1
}
c0000638:	01010113          	addi	sp,sp,16
c000063c:	00008067          	ret
c0000640:	00c12083          	lw	ra,12(sp)
c0000644:	00812403          	lw	s0,8(sp)
c0000648:	00412483          	lw	s1,4(sp)
c000064c:	00012903          	lw	s2,0(sp)
            return 1 == 0;
c0000650:	00000513          	li	a0,0
}
c0000654:	01010113          	addi	sp,sp,16
c0000658:	00008067          	ret

c000065c <sd_cmd8>:

int sd_cmd8()
{
c000065c:	ff010113          	addi	sp,sp,-16
    uint8_t r1 = sd_cmd(8, 0x1aa, 0x87);
c0000660:	08700613          	li	a2,135
c0000664:	1aa00593          	li	a1,426
c0000668:	00800513          	li	a0,8
{
c000066c:	00112623          	sw	ra,12(sp)
c0000670:	00812423          	sw	s0,8(sp)
c0000674:	00912223          	sw	s1,4(sp)
c0000678:	01212023          	sw	s2,0(sp)
    uint8_t r1 = sd_cmd(8, 0x1aa, 0x87);
c000067c:	e11ff0ef          	jal	ra,c000048c <sd_cmd>
c0000680:	00050413          	mv	s0,a0
    return spi_txrx(0xFF);
c0000684:	0ff00513          	li	a0,255
c0000688:	c31ff0ef          	jal	ra,c00002b8 <spi_txrx>
c000068c:	0ff00513          	li	a0,255
c0000690:	c29ff0ef          	jal	ra,c00002b8 <spi_txrx>
c0000694:	0ff00513          	li	a0,255
c0000698:	c21ff0ef          	jal	ra,c00002b8 <spi_txrx>
c000069c:	00050493          	mv	s1,a0
c00006a0:	0ff00513          	li	a0,255
c00006a4:	c15ff0ef          	jal	ra,c00002b8 <spi_txrx>
c00006a8:	00050913          	mv	s2,a0
c00006ac:	0ff00513          	li	a0,255
c00006b0:	c09ff0ef          	jal	ra,c00002b8 <spi_txrx>
c00006b4:	0ff00513          	li	a0,255
c00006b8:	c01ff0ef          	jal	ra,c00002b8 <spi_txrx>
    uint8_t r4 = sd_dummy(); /* voltage */
    uint8_t r5 = sd_dummy(); /* check pattern */
    sd_dummy();

    sd_dummy(); // additional 0xff for good measure
    return r1 == 0x1 && (r4 & 0xf) == 0x1 && r5 == 0xaa;
c00006bc:	00100793          	li	a5,1
c00006c0:	00000513          	li	a0,0
c00006c4:	00f40e63          	beq	s0,a5,c00006e0 <sd_cmd8+0x84>
}
c00006c8:	00c12083          	lw	ra,12(sp)
c00006cc:	00812403          	lw	s0,8(sp)
c00006d0:	00412483          	lw	s1,4(sp)
c00006d4:	00012903          	lw	s2,0(sp)
c00006d8:	01010113          	addi	sp,sp,16
c00006dc:	00008067          	ret
    return r1 == 0x1 && (r4 & 0xf) == 0x1 && r5 == 0xaa;
c00006e0:	00f4f793          	andi	a5,s1,15
c00006e4:	fe8792e3          	bne	a5,s0,c00006c8 <sd_cmd8+0x6c>
}
c00006e8:	00c12083          	lw	ra,12(sp)
c00006ec:	00812403          	lw	s0,8(sp)
    return r1 == 0x1 && (r4 & 0xf) == 0x1 && r5 == 0xaa;
c00006f0:	f5690793          	addi	a5,s2,-170
}
c00006f4:	00412483          	lw	s1,4(sp)
c00006f8:	00012903          	lw	s2,0(sp)
    return r1 == 0x1 && (r4 & 0xf) == 0x1 && r5 == 0xaa;
c00006fc:	0017b513          	seqz	a0,a5
}
c0000700:	01010113          	addi	sp,sp,16
c0000704:	00008067          	ret

c0000708 <sd_cmd55>:

int sd_cmd55()
{
c0000708:	ff010113          	addi	sp,sp,-16
    uint8_t r = sd_cmd(55, 0x0, 0x65);
c000070c:	06500613          	li	a2,101
c0000710:	00000593          	li	a1,0
c0000714:	03700513          	li	a0,55
{
c0000718:	00112623          	sw	ra,12(sp)
c000071c:	00812423          	sw	s0,8(sp)
    uint8_t r = sd_cmd(55, 0x0, 0x65);
c0000720:	d6dff0ef          	jal	ra,c000048c <sd_cmd>
c0000724:	00050413          	mv	s0,a0
    return spi_txrx(0xFF);
c0000728:	0ff00513          	li	a0,255
c000072c:	b8dff0ef          	jal	ra,c00002b8 <spi_txrx>
    print_uart("SD command ");
c0000730:	00001517          	auipc	a0,0x1
c0000734:	95050513          	addi	a0,a0,-1712 # c0001080 <_DATA_END_+0x54>
c0000738:	91dff0ef          	jal	ra,c0000054 <print_uart>
    print_uart(cmd);
c000073c:	00001517          	auipc	a0,0x1
c0000740:	96850513          	addi	a0,a0,-1688 # c00010a4 <_DATA_END_+0x78>
c0000744:	911ff0ef          	jal	ra,c0000054 <print_uart>
    print_uart(" \tresponse : ");
c0000748:	00001517          	auipc	a0,0x1
c000074c:	94450513          	addi	a0,a0,-1724 # c000108c <_DATA_END_+0x60>
c0000750:	905ff0ef          	jal	ra,c0000054 <print_uart>
    print_uart_byte(response);
c0000754:	00040513          	mv	a0,s0
c0000758:	a45ff0ef          	jal	ra,c000019c <print_uart_byte>
    print_uart("\r\n");
c000075c:	00001517          	auipc	a0,0x1
c0000760:	90850513          	addi	a0,a0,-1784 # c0001064 <_DATA_END_+0x38>
c0000764:	8f1ff0ef          	jal	ra,c0000054 <print_uart>
    sd_dummy();
    print_status("cmd55", r);
    return r == 0x1;
}
c0000768:	00c12083          	lw	ra,12(sp)
    return r == 0x1;
c000076c:	fff40513          	addi	a0,s0,-1
}
c0000770:	00812403          	lw	s0,8(sp)
c0000774:	00153513          	seqz	a0,a0
c0000778:	01010113          	addi	sp,sp,16
c000077c:	00008067          	ret

c0000780 <sd_acmd41>:

int sd_acmd41()
{
c0000780:	ff010113          	addi	sp,sp,-16
c0000784:	00912223          	sw	s1,4(sp)
c0000788:	00112623          	sw	ra,12(sp)
c000078c:	00812423          	sw	s0,8(sp)
    {
        sd_cmd55();
        r = sd_cmd(41, 0x40000000, 0x77); /* HCS = 1 */
        print_status("cmd41", r);
        sd_dummy();
    } while (r == 0x1);
c0000790:	00100493          	li	s1,1
    uint8_t r = sd_cmd(55, 0x0, 0x65);
c0000794:	06500613          	li	a2,101
c0000798:	00000593          	li	a1,0
c000079c:	03700513          	li	a0,55
c00007a0:	cedff0ef          	jal	ra,c000048c <sd_cmd>
c00007a4:	00050413          	mv	s0,a0
    return spi_txrx(0xFF);
c00007a8:	0ff00513          	li	a0,255
c00007ac:	b0dff0ef          	jal	ra,c00002b8 <spi_txrx>
    print_uart("SD command ");
c00007b0:	00001517          	auipc	a0,0x1
c00007b4:	8d050513          	addi	a0,a0,-1840 # c0001080 <_DATA_END_+0x54>
c00007b8:	89dff0ef          	jal	ra,c0000054 <print_uart>
    print_uart(cmd);
c00007bc:	00001517          	auipc	a0,0x1
c00007c0:	8e850513          	addi	a0,a0,-1816 # c00010a4 <_DATA_END_+0x78>
c00007c4:	891ff0ef          	jal	ra,c0000054 <print_uart>
    print_uart(" \tresponse : ");
c00007c8:	00001517          	auipc	a0,0x1
c00007cc:	8c450513          	addi	a0,a0,-1852 # c000108c <_DATA_END_+0x60>
c00007d0:	885ff0ef          	jal	ra,c0000054 <print_uart>
    print_uart_byte(response);
c00007d4:	00040513          	mv	a0,s0
c00007d8:	9c5ff0ef          	jal	ra,c000019c <print_uart_byte>
    print_uart("\r\n");
c00007dc:	00001517          	auipc	a0,0x1
c00007e0:	88850513          	addi	a0,a0,-1912 # c0001064 <_DATA_END_+0x38>
c00007e4:	871ff0ef          	jal	ra,c0000054 <print_uart>
        r = sd_cmd(41, 0x40000000, 0x77); /* HCS = 1 */
c00007e8:	07700613          	li	a2,119
c00007ec:	400005b7          	lui	a1,0x40000
c00007f0:	02900513          	li	a0,41
c00007f4:	c99ff0ef          	jal	ra,c000048c <sd_cmd>
c00007f8:	00050413          	mv	s0,a0
    print_uart("SD command ");
c00007fc:	00001517          	auipc	a0,0x1
c0000800:	88450513          	addi	a0,a0,-1916 # c0001080 <_DATA_END_+0x54>
c0000804:	851ff0ef          	jal	ra,c0000054 <print_uart>
    print_uart(cmd);
c0000808:	00001517          	auipc	a0,0x1
c000080c:	8a450513          	addi	a0,a0,-1884 # c00010ac <_DATA_END_+0x80>
c0000810:	845ff0ef          	jal	ra,c0000054 <print_uart>
    print_uart(" \tresponse : ");
c0000814:	00001517          	auipc	a0,0x1
c0000818:	87850513          	addi	a0,a0,-1928 # c000108c <_DATA_END_+0x60>
c000081c:	839ff0ef          	jal	ra,c0000054 <print_uart>
    print_uart_byte(response);
c0000820:	00040513          	mv	a0,s0
c0000824:	979ff0ef          	jal	ra,c000019c <print_uart_byte>
    print_uart("\r\n");
c0000828:	00001517          	auipc	a0,0x1
c000082c:	83c50513          	addi	a0,a0,-1988 # c0001064 <_DATA_END_+0x38>
c0000830:	825ff0ef          	jal	ra,c0000054 <print_uart>
    return spi_txrx(0xFF);
c0000834:	0ff00513          	li	a0,255
c0000838:	a81ff0ef          	jal	ra,c00002b8 <spi_txrx>
    } while (r == 0x1);
c000083c:	f4940ce3          	beq	s0,s1,c0000794 <sd_acmd41+0x14>
    return (r == 0x00);
}
c0000840:	00c12083          	lw	ra,12(sp)
c0000844:	00143513          	seqz	a0,s0
c0000848:	00812403          	lw	s0,8(sp)
c000084c:	00412483          	lw	s1,4(sp)
c0000850:	01010113          	addi	sp,sp,16
c0000854:	00008067          	ret

c0000858 <init_sd>:

int init_sd()
{
c0000858:	ff010113          	addi	sp,sp,-16
c000085c:	00112623          	sw	ra,12(sp)
c0000860:	00812423          	sw	s0,8(sp)
c0000864:	00912223          	sw	s1,4(sp)
c0000868:	01212023          	sw	s2,0(sp)
    spi_init();
c000086c:	98dff0ef          	jal	ra,c00001f8 <spi_init>

    print_uart("initializing SD... \r\n");
c0000870:	00001517          	auipc	a0,0x1
c0000874:	84450513          	addi	a0,a0,-1980 # c00010b4 <_DATA_END_+0x88>
c0000878:	fdcff0ef          	jal	ra,c0000054 <print_uart>
c000087c:	00a00413          	li	s0,10
    // https://electronics.stackexchange.com/questions/77417/what-is-the-correct-command-sequence-for-microsd-card-initialization-in-spi
    // and the siFive implementation:
    // https://github.com/sifive/freedom-u540-c000-bootloader/blob/09ac8c24dae741e6234e2b1e663784294367e147/sd/sd.c

    // send 10 bytes 0xff
    for (int i = 0; i < 10; i++)
c0000880:	fff40413          	addi	s0,s0,-1
    return spi_txrx(0xFF);
c0000884:	0ff00513          	li	a0,255
c0000888:	a31ff0ef          	jal	ra,c00002b8 <spi_txrx>
    for (int i = 0; i < 10; i++)
c000088c:	fe041ae3          	bnez	s0,c0000880 <init_sd+0x28>
        r = sd_cmd(0, 0, 0x95);
c0000890:	09500613          	li	a2,149
c0000894:	00000593          	li	a1,0
c0000898:	00000513          	li	a0,0
c000089c:	bf1ff0ef          	jal	ra,c000048c <sd_cmd>
c00008a0:	00050413          	mv	s0,a0
    return spi_txrx(0xFF);
c00008a4:	000024b7          	lui	s1,0x2
c00008a8:	0ff00513          	li	a0,255
c00008ac:	a0dff0ef          	jal	ra,c00002b8 <spi_txrx>
c00008b0:	70f48493          	addi	s1,s1,1807 # 270f <ROM_BASE-0xbfffd8f1>
    while (r != 0x1)
c00008b4:	00100913          	li	s2,1
c00008b8:	0180006f          	j	c00008d0 <init_sd+0x78>
        r = sd_cmd(0, 0, 0x95);
c00008bc:	bd1ff0ef          	jal	ra,c000048c <sd_cmd>
c00008c0:	00050413          	mv	s0,a0
    return spi_txrx(0xFF);
c00008c4:	0ff00513          	li	a0,255
c00008c8:	9f1ff0ef          	jal	ra,c00002b8 <spi_txrx>
        if (counter <= 0)
c00008cc:	08048063          	beqz	s1,c000094c <init_sd+0xf4>
        r = sd_cmd(0, 0, 0x95);
c00008d0:	09500613          	li	a2,149
c00008d4:	00000593          	li	a1,0
c00008d8:	00000513          	li	a0,0
        if (counter <= 0)
c00008dc:	fff48493          	addi	s1,s1,-1
    while (r != 0x1)
c00008e0:	fd241ee3          	bne	s0,s2,c00008bc <init_sd+0x64>
    print_uart("SD command ");
c00008e4:	00000517          	auipc	a0,0x0
c00008e8:	79c50513          	addi	a0,a0,1948 # c0001080 <_DATA_END_+0x54>
c00008ec:	f68ff0ef          	jal	ra,c0000054 <print_uart>
    print_uart(cmd);
c00008f0:	00000517          	auipc	a0,0x0
c00008f4:	7ac50513          	addi	a0,a0,1964 # c000109c <_DATA_END_+0x70>
c00008f8:	f5cff0ef          	jal	ra,c0000054 <print_uart>
    print_uart(" \tresponse : ");
c00008fc:	00000517          	auipc	a0,0x0
c0000900:	79050513          	addi	a0,a0,1936 # c000108c <_DATA_END_+0x60>
c0000904:	f50ff0ef          	jal	ra,c0000054 <print_uart>
    print_uart_byte(response);
c0000908:	00100513          	li	a0,1
c000090c:	891ff0ef          	jal	ra,c000019c <print_uart_byte>
    print_uart("\r\n");
c0000910:	00000517          	auipc	a0,0x0
c0000914:	75450513          	addi	a0,a0,1876 # c0001064 <_DATA_END_+0x38>
c0000918:	f3cff0ef          	jal	ra,c0000054 <print_uart>
     sd_dummy();

    if (!sd_cmd0())
        return SD_INIT_ERROR_CMD0;
    if (!sd_cmd8())
c000091c:	d41ff0ef          	jal	ra,c000065c <sd_cmd8>
c0000920:	04050463          	beqz	a0,c0000968 <init_sd+0x110>
        return SD_INIT_ERROR_CMD8;
    if (!sd_acmd41())
c0000924:	e5dff0ef          	jal	ra,c0000780 <sd_acmd41>
c0000928:	00050793          	mv	a5,a0
        return SD_INIT_ERROR_ACMD41;
    return 0;
c000092c:	00000513          	li	a0,0
    if (!sd_acmd41())
c0000930:	04078063          	beqz	a5,c0000970 <init_sd+0x118>
}
c0000934:	00c12083          	lw	ra,12(sp)
c0000938:	00812403          	lw	s0,8(sp)
c000093c:	00412483          	lw	s1,4(sp)
c0000940:	00012903          	lw	s2,0(sp)
c0000944:	01010113          	addi	sp,sp,16
c0000948:	00008067          	ret
c000094c:	00c12083          	lw	ra,12(sp)
c0000950:	00812403          	lw	s0,8(sp)
c0000954:	00412483          	lw	s1,4(sp)
c0000958:	00012903          	lw	s2,0(sp)
        return SD_INIT_ERROR_CMD0;
c000095c:	fff00513          	li	a0,-1
}
c0000960:	01010113          	addi	sp,sp,16
c0000964:	00008067          	ret
        return SD_INIT_ERROR_CMD8;
c0000968:	ffe00513          	li	a0,-2
c000096c:	fc9ff06f          	j	c0000934 <init_sd+0xdc>
        return SD_INIT_ERROR_ACMD41;
c0000970:	ffd00513          	li	a0,-3
c0000974:	fc1ff06f          	j	c0000934 <init_sd+0xdc>

c0000978 <crc7>:

uint8_t crc7(uint8_t prev, uint8_t in)
{
    // CRC polynomial 0x89
    uint8_t remainder = prev & in;
c0000978:	00b575b3          	and	a1,a0,a1
    remainder ^= (remainder >> 4) ^ (remainder >> 7);
c000097c:	0075d793          	srli	a5,a1,0x7
c0000980:	0045d513          	srli	a0,a1,0x4
c0000984:	00f54533          	xor	a0,a0,a5
c0000988:	00b54533          	xor	a0,a0,a1
    remainder ^= remainder << 4;
c000098c:	00451593          	slli	a1,a0,0x4
c0000990:	00a5c533          	xor	a0,a1,a0
    return remainder & 0x7f;
}
c0000994:	07f57513          	andi	a0,a0,127
c0000998:	00008067          	ret

c000099c <crc16>:

uint16_t crc16(uint16_t crc, uint8_t data)
{
    // CRC polynomial 0x11021
    crc = (uint8_t)(crc >> 8) | (crc << 8);
c000099c:	00851793          	slli	a5,a0,0x8
c00009a0:	00855513          	srli	a0,a0,0x8
c00009a4:	00a7e7b3          	or	a5,a5,a0
c00009a8:	01079513          	slli	a0,a5,0x10
c00009ac:	01055513          	srli	a0,a0,0x10
    crc ^= data;
c00009b0:	00b545b3          	xor	a1,a0,a1
    crc ^= (uint8_t)(crc >> 4) & 0xf;
c00009b4:	0045d513          	srli	a0,a1,0x4
c00009b8:	00f57513          	andi	a0,a0,15
c00009bc:	00b54533          	xor	a0,a0,a1
    crc ^= crc << 12;
c00009c0:	00c51593          	slli	a1,a0,0xc
c00009c4:	00b54533          	xor	a0,a0,a1
    crc ^= (crc & 0xff) << 5;
c00009c8:	01051793          	slli	a5,a0,0x10
c00009cc:	0107d793          	srli	a5,a5,0x10
c00009d0:	00002737          	lui	a4,0x2
c00009d4:	fe070713          	addi	a4,a4,-32 # 1fe0 <ROM_BASE-0xbfffe020>
c00009d8:	00579793          	slli	a5,a5,0x5
c00009dc:	00e7f7b3          	and	a5,a5,a4
c00009e0:	00f54533          	xor	a0,a0,a5
    return crc;
}
c00009e4:	01051513          	slli	a0,a0,0x10
c00009e8:	01055513          	srli	a0,a0,0x10
c00009ec:	00008067          	ret

c00009f0 <sd_copy>:

int sd_copy(void *dst, uint32_t src_lba, uint32_t size)
{
c00009f0:	f5010113          	addi	sp,sp,-176
c00009f4:	09312e23          	sw	s3,156(sp)
c00009f8:	09812423          	sw	s8,136(sp)
c00009fc:	0a112623          	sw	ra,172(sp)
c0000a00:	0a812423          	sw	s0,168(sp)
c0000a04:	0a912223          	sw	s1,164(sp)
c0000a08:	0b212023          	sw	s2,160(sp)
c0000a0c:	09412c23          	sw	s4,152(sp)
c0000a10:	09512a23          	sw	s5,148(sp)
c0000a14:	09612823          	sw	s6,144(sp)
c0000a18:	09712623          	sw	s7,140(sp)
c0000a1c:	09912223          	sw	s9,132(sp)
c0000a20:	09a12023          	sw	s10,128(sp)
c0000a24:	00050c13          	mv	s8,a0
c0000a28:	00060993          	mv	s3,a2
    volatile uint8_t *p = dst;
    long size_index = size;
    int rc = 0;

    uint8_t ff[128];
    for (int j = 0; j < 128; j++)
c0000a2c:	00010793          	mv	a5,sp
c0000a30:	08010693          	addi	a3,sp,128
        ff[j] = 0xff;
c0000a34:	fff00713          	li	a4,-1
c0000a38:	00e78023          	sb	a4,0(a5)
    for (int j = 0; j < 128; j++)
c0000a3c:	00178793          	addi	a5,a5,1
c0000a40:	fed79ce3          	bne	a5,a3,c0000a38 <sd_copy+0x48>
    crc = crc7(crc, (src_lba >> 24) & 0xff);
    crc = crc7(crc, (src_lba >> 16) & 0xff);
    crc = crc7(crc, (src_lba >> 8) & 0xff);
    crc = crc7(crc, src_lba & 0xff);
    crc = (crc << 1) | 1;
    if (sd_cmd(18, src_lba, crc) != 0x00)
c0000a44:	00100613          	li	a2,1
c0000a48:	01200513          	li	a0,18
c0000a4c:	a41ff0ef          	jal	ra,c000048c <sd_cmd>
    long size_index = size;
c0000a50:	00098a93          	mv	s5,s3
    if (sd_cmd(18, src_lba, crc) != 0x00)
c0000a54:	1c051863          	bnez	a0,c0000c24 <sd_copy+0x234>
    crc ^= (crc & 0xff) << 5;
c0000a58:	00002cb7          	lui	s9,0x2
            rc = SD_COPY_ERROR_CMD18_CRC;
            // print_uart("SD COPY ERROR CMD18 CRC\r\n");
            break;
        }

        if ((size_index % 4000) == 0 | size_index == size)
c0000a5c:	00001b37          	lui	s6,0x1
        while (sd_dummy() != SD_DATA_TOKEN)
c0000a60:	0fe00a13          	li	s4,254
    crc ^= (crc & 0xff) << 5;
c0000a64:	fe0c8c93          	addi	s9,s9,-32 # 1fe0 <ROM_BASE-0xbfffe020>
        if ((size_index % 4000) == 0 | size_index == size)
c0000a68:	fa0b0b13          	addi	s6,s6,-96 # fa0 <ROM_BASE-0xbffff060>
        {
            print_uart("\r\nsize_index:\r\n");
c0000a6c:	1f400b93          	li	s7,500
    return spi_txrx(0xFF);
c0000a70:	0ff00513          	li	a0,255
c0000a74:	845ff0ef          	jal	ra,c00002b8 <spi_txrx>
        while (sd_dummy() != SD_DATA_TOKEN)
c0000a78:	ff451ce3          	bne	a0,s4,c0000a70 <sd_copy+0x80>
c0000a7c:	000c0493          	mv	s1,s8
        crc = 0;
c0000a80:	00000413          	li	s0,0
c0000a84:	040c0c13          	addi	s8,s8,64
c0000a88:	20048913          	addi	s2,s1,512
            print_uart("spi_write_bytes begin, n = ");
c0000a8c:	00000517          	auipc	a0,0x0
c0000a90:	65c50513          	addi	a0,a0,1628 # c00010e8 <_DATA_END_+0xbc>
c0000a94:	dc0ff0ef          	jal	ra,c0000054 <print_uart>
            print_uart_int((uint32_t)n);
c0000a98:	40990533          	sub	a0,s2,s1
c0000a9c:	e14ff0ef          	jal	ra,c00000b0 <print_uart_int>
            print_uart("\r\n");
c0000aa0:	00000517          	auipc	a0,0x0
c0000aa4:	5c450513          	addi	a0,a0,1476 # c0001064 <_DATA_END_+0x38>
c0000aa8:	dacff0ef          	jal	ra,c0000054 <print_uart>
            spi_write_bytes(ff, bytes_per_transfer, (uint8_t *)p, size);
c0000aac:	00098693          	mv	a3,s3
c0000ab0:	00048613          	mv	a2,s1
c0000ab4:	04000593          	li	a1,64
c0000ab8:	00010513          	mv	a0,sp
c0000abc:	8b5ff0ef          	jal	ra,c0000370 <spi_write_bytes>
            print_uart("spi_write_bytes end\r\n");
c0000ac0:	00000517          	auipc	a0,0x0
c0000ac4:	64450513          	addi	a0,a0,1604 # c0001104 <_DATA_END_+0xd8>
c0000ac8:	00048d13          	mv	s10,s1
c0000acc:	d88ff0ef          	jal	ra,c0000054 <print_uart>
                crc = crc16(crc, p[i]);
c0000ad0:	000d4783          	lbu	a5,0(s10)
    crc ^= data;
c0000ad4:	00841713          	slli	a4,s0,0x8
c0000ad8:	00845413          	srli	s0,s0,0x8
                crc = crc16(crc, p[i]);
c0000adc:	0ff7f793          	zext.b	a5,a5
    crc ^= data;
c0000ae0:	00876433          	or	s0,a4,s0
c0000ae4:	00f44433          	xor	s0,s0,a5
c0000ae8:	01041793          	slli	a5,s0,0x10
c0000aec:	0107d793          	srli	a5,a5,0x10
    crc ^= (uint8_t)(crc >> 4) & 0xf;
c0000af0:	0047d413          	srli	s0,a5,0x4
c0000af4:	00f47413          	andi	s0,s0,15
c0000af8:	00f44433          	xor	s0,s0,a5
    crc ^= crc << 12;
c0000afc:	00c41793          	slli	a5,s0,0xc
c0000b00:	00f44433          	xor	s0,s0,a5
    crc ^= (crc & 0xff) << 5;
c0000b04:	01041793          	slli	a5,s0,0x10
c0000b08:	0107d793          	srli	a5,a5,0x10
c0000b0c:	00579793          	slli	a5,a5,0x5
c0000b10:	0197f7b3          	and	a5,a5,s9
c0000b14:	00f44433          	xor	s0,s0,a5
c0000b18:	01041413          	slli	s0,s0,0x10
            for (int i = 0; i < bytes_per_transfer; i++)
c0000b1c:	001d0d13          	addi	s10,s10,1
    crc ^= (crc & 0xff) << 5;
c0000b20:	01045413          	srli	s0,s0,0x10
            for (int i = 0; i < bytes_per_transfer; i++)
c0000b24:	fb8d16e3          	bne	s10,s8,c0000ad0 <sd_copy+0xe0>
            p += bytes_per_transfer;
c0000b28:	04048493          	addi	s1,s1,64
        } while (n > 0);
c0000b2c:	040d0c13          	addi	s8,s10,64
c0000b30:	f5249ee3          	bne	s1,s2,c0000a8c <sd_copy+0x9c>
    return spi_txrx(0xFF);
c0000b34:	0ff00513          	li	a0,255
c0000b38:	f80ff0ef          	jal	ra,c00002b8 <spi_txrx>
        crc_exp = ((uint16_t)sd_dummy() << 8);
c0000b3c:	00851913          	slli	s2,a0,0x8
c0000b40:	01091913          	slli	s2,s2,0x10
    return spi_txrx(0xFF);
c0000b44:	0ff00513          	li	a0,255
        crc_exp = ((uint16_t)sd_dummy() << 8);
c0000b48:	01095913          	srli	s2,s2,0x10
    return spi_txrx(0xFF);
c0000b4c:	f6cff0ef          	jal	ra,c00002b8 <spi_txrx>
        crc_exp |= sd_dummy();
c0000b50:	00a967b3          	or	a5,s2,a0
        if (crc != crc_exp)
c0000b54:	01079793          	slli	a5,a5,0x10
c0000b58:	0107d793          	srli	a5,a5,0x10
            p += bytes_per_transfer;
c0000b5c:	00048c13          	mv	s8,s1
        if (crc != crc_exp)
c0000b60:	04879a63          	bne	a5,s0,c0000bb4 <sd_copy+0x1c4>
        if ((size_index % 4000) == 0 | size_index == size)
c0000b64:	036ae7b3          	rem	a5,s5,s6
c0000b68:	02078063          	beqz	a5,c0000b88 <sd_copy+0x198>
c0000b6c:	013a8e63          	beq	s5,s3,c0000b88 <sd_copy+0x198>
            print_uart("\r\nsize_index:\r\n");
c0000b70:	037ae7b3          	rem	a5,s5,s7
        }

        if ((size_index % 500) == 0)
c0000b74:	02078463          	beqz	a5,c0000b9c <sd_copy+0x1ac>
        {
            print_uart_int((uint32_t)size_index);
            print_uart("        ");
        }

    } while (--size_index > 0);
c0000b78:	fffa8a93          	addi	s5,s5,-1
c0000b7c:	ef504ae3          	bgtz	s5,c0000a70 <sd_copy+0x80>
    int rc = 0;
c0000b80:	00000413          	li	s0,0
c0000b84:	0400006f          	j	c0000bc4 <sd_copy+0x1d4>
            print_uart("\r\nsize_index:\r\n");
c0000b88:	00000517          	auipc	a0,0x0
c0000b8c:	59450513          	addi	a0,a0,1428 # c000111c <_DATA_END_+0xf0>
c0000b90:	cc4ff0ef          	jal	ra,c0000054 <print_uart>
c0000b94:	037ae7b3          	rem	a5,s5,s7
        if ((size_index % 500) == 0)
c0000b98:	fe0790e3          	bnez	a5,c0000b78 <sd_copy+0x188>
            print_uart_int((uint32_t)size_index);
c0000b9c:	000a8513          	mv	a0,s5
c0000ba0:	d10ff0ef          	jal	ra,c00000b0 <print_uart_int>
            print_uart("        ");
c0000ba4:	00000517          	auipc	a0,0x0
c0000ba8:	58850513          	addi	a0,a0,1416 # c000112c <_DATA_END_+0x100>
c0000bac:	ca8ff0ef          	jal	ra,c0000054 <print_uart>
c0000bb0:	fc9ff06f          	j	c0000b78 <sd_copy+0x188>
            __asm__ volatile(
c0000bb4:	00000013          	nop
c0000bb8:	00000013          	nop
c0000bbc:	00000013          	nop
            rc = SD_COPY_ERROR_CMD18_CRC;
c0000bc0:	ffe00413          	li	s0,-2

    print_uart("\r\n");
c0000bc4:	00000517          	auipc	a0,0x0
c0000bc8:	4a050513          	addi	a0,a0,1184 # c0001064 <_DATA_END_+0x38>
c0000bcc:	c88ff0ef          	jal	ra,c0000054 <print_uart>

    sd_cmd(SD_CMD_STOP_TRANSMISSION, 0, 0x01);
c0000bd0:	00100613          	li	a2,1
c0000bd4:	00000593          	li	a1,0
c0000bd8:	00c00513          	li	a0,12
c0000bdc:	8b1ff0ef          	jal	ra,c000048c <sd_cmd>
    return spi_txrx(0xFF);
c0000be0:	0ff00513          	li	a0,255
c0000be4:	ed4ff0ef          	jal	ra,c00002b8 <spi_txrx>
    sd_dummy();
    return rc;
}
c0000be8:	0ac12083          	lw	ra,172(sp)
c0000bec:	00040513          	mv	a0,s0
c0000bf0:	0a812403          	lw	s0,168(sp)
c0000bf4:	0a412483          	lw	s1,164(sp)
c0000bf8:	0a012903          	lw	s2,160(sp)
c0000bfc:	09c12983          	lw	s3,156(sp)
c0000c00:	09812a03          	lw	s4,152(sp)
c0000c04:	09412a83          	lw	s5,148(sp)
c0000c08:	09012b03          	lw	s6,144(sp)
c0000c0c:	08c12b83          	lw	s7,140(sp)
c0000c10:	08812c03          	lw	s8,136(sp)
c0000c14:	08412c83          	lw	s9,132(sp)
c0000c18:	08012d03          	lw	s10,128(sp)
c0000c1c:	0b010113          	addi	sp,sp,176
c0000c20:	00008067          	ret
c0000c24:	00800413          	li	s0,8
        for (int j = 0; j < 8; j++)
c0000c28:	fff40413          	addi	s0,s0,-1
    return spi_txrx(0xFF);
c0000c2c:	0ff00513          	li	a0,255
c0000c30:	e88ff0ef          	jal	ra,c00002b8 <spi_txrx>
        for (int j = 0; j < 8; j++)
c0000c34:	fe041ae3          	bnez	s0,c0000c28 <sd_copy+0x238>
        print_uart("could not read SD block\r\n");
c0000c38:	00000517          	auipc	a0,0x0
c0000c3c:	49450513          	addi	a0,a0,1172 # c00010cc <_DATA_END_+0xa0>
c0000c40:	c14ff0ef          	jal	ra,c0000054 <print_uart>
        return -1;
c0000c44:	fff00413          	li	s0,-1
c0000c48:	fa1ff06f          	j	c0000be8 <sd_copy+0x1f8>

c0000c4c <gpt_find_boot_partition>:
#include "sd.h"
#include "uart.h"
#include <stddef.h>

int gpt_find_boot_partition(uint8_t* dest, uint32_t size)
{
c0000c4c:	fd010113          	addi	sp,sp,-48
c0000c50:	02812423          	sw	s0,40(sp)
c0000c54:	01712623          	sw	s7,12(sp)
c0000c58:	02112623          	sw	ra,44(sp)
c0000c5c:	02912223          	sw	s1,36(sp)
c0000c60:	03212023          	sw	s2,32(sp)
c0000c64:	01312e23          	sw	s3,28(sp)
c0000c68:	01412c23          	sw	s4,24(sp)
c0000c6c:	01512a23          	sw	s5,20(sp)
c0000c70:	01612823          	sw	s6,16(sp)
c0000c74:	01812423          	sw	s8,8(sp)
c0000c78:	03010413          	addi	s0,sp,48
c0000c7c:	00050b93          	mv	s7,a0
    int ret = init_sd();
c0000c80:	bd9ff0ef          	jal	ra,c0000858 <init_sd>
    if (ret != 0) {
c0000c84:	28051e63          	bnez	a0,c0000f20 <gpt_find_boot_partition+0x2d4>
        print_uart("could not initialize sd... exiting\r\n");
        return -1;
    }

    print_uart("sd initialized!\r\n");
c0000c88:	00000517          	auipc	a0,0x0
c0000c8c:	4d850513          	addi	a0,a0,1240 # c0001160 <_DATA_END_+0x134>
c0000c90:	bc4ff0ef          	jal	ra,c0000054 <print_uart>

    // load LBA1
    size_t block_size = 512;
    uint8_t lba1_buf[block_size];
c0000c94:	e0010113          	addi	sp,sp,-512

    int res = sd_copy(lba1_buf, 1, 1);
c0000c98:	00100613          	li	a2,1
c0000c9c:	00100593          	li	a1,1
c0000ca0:	00010513          	mv	a0,sp
c0000ca4:	d4dff0ef          	jal	ra,c00009f0 <sd_copy>
    uint8_t lba1_buf[block_size];
c0000ca8:	00010913          	mv	s2,sp
    int res = sd_copy(lba1_buf, 1, 1);
c0000cac:	00050493          	mv	s1,a0

    if (res != 0)
c0000cb0:	2e051a63          	bnez	a0,c0000fa4 <gpt_find_boot_partition+0x358>
        return -2;
    }

    gpt_pth_t *lba1 = (gpt_pth_t *)lba1_buf;

    print_uart("gpt partition table header:");
c0000cb4:	00000517          	auipc	a0,0x0
c0000cb8:	4ec50513          	addi	a0,a0,1260 # c00011a0 <_DATA_END_+0x174>
c0000cbc:	b98ff0ef          	jal	ra,c0000054 <print_uart>
    print_uart("\r\n\tsignature:\t");
c0000cc0:	00000517          	auipc	a0,0x0
c0000cc4:	4fc50513          	addi	a0,a0,1276 # c00011bc <_DATA_END_+0x190>
c0000cc8:	b8cff0ef          	jal	ra,c0000054 <print_uart>
    print_uart_addr(lba1->signature);
c0000ccc:	00412583          	lw	a1,4(sp)
c0000cd0:	00012503          	lw	a0,0(sp)
c0000cd4:	c40ff0ef          	jal	ra,c0000114 <print_uart_addr>
    print_uart("\r\n\trevision:\t");
c0000cd8:	00000517          	auipc	a0,0x0
c0000cdc:	4f450513          	addi	a0,a0,1268 # c00011cc <_DATA_END_+0x1a0>
c0000ce0:	b74ff0ef          	jal	ra,c0000054 <print_uart>
    print_uart_int(lba1->revision);
c0000ce4:	00812503          	lw	a0,8(sp)
c0000ce8:	bc8ff0ef          	jal	ra,c00000b0 <print_uart_int>
    print_uart("\r\n\tsize:\t\t");
c0000cec:	00000517          	auipc	a0,0x0
c0000cf0:	4f050513          	addi	a0,a0,1264 # c00011dc <_DATA_END_+0x1b0>
c0000cf4:	b60ff0ef          	jal	ra,c0000054 <print_uart>
    print_uart_int(lba1->header_size);
c0000cf8:	00c12503          	lw	a0,12(sp)
c0000cfc:	bb4ff0ef          	jal	ra,c00000b0 <print_uart_int>
    print_uart("\r\n\tcrc_header:\t");
c0000d00:	00000517          	auipc	a0,0x0
c0000d04:	4e850513          	addi	a0,a0,1256 # c00011e8 <_DATA_END_+0x1bc>
c0000d08:	b4cff0ef          	jal	ra,c0000054 <print_uart>
    print_uart_int(lba1->crc_header);
c0000d0c:	01012503          	lw	a0,16(sp)
c0000d10:	ba0ff0ef          	jal	ra,c00000b0 <print_uart_int>
    print_uart("\r\n\treserved:\t");
c0000d14:	00000517          	auipc	a0,0x0
c0000d18:	4e450513          	addi	a0,a0,1252 # c00011f8 <_DATA_END_+0x1cc>
c0000d1c:	b38ff0ef          	jal	ra,c0000054 <print_uart>
    print_uart_int(lba1->reserved);
c0000d20:	01412503          	lw	a0,20(sp)
c0000d24:	b8cff0ef          	jal	ra,c00000b0 <print_uart_int>
    print_uart("\r\n\tcurrent lba:\t");
c0000d28:	00000517          	auipc	a0,0x0
c0000d2c:	4e050513          	addi	a0,a0,1248 # c0001208 <_DATA_END_+0x1dc>
c0000d30:	b24ff0ef          	jal	ra,c0000054 <print_uart>
    print_uart_addr(lba1->current_lba);
c0000d34:	01c12583          	lw	a1,28(sp)
c0000d38:	01812503          	lw	a0,24(sp)
c0000d3c:	bd8ff0ef          	jal	ra,c0000114 <print_uart_addr>
    print_uart("\r\n\tbackup lba:\t");
c0000d40:	00000517          	auipc	a0,0x0
c0000d44:	4dc50513          	addi	a0,a0,1244 # c000121c <_DATA_END_+0x1f0>
c0000d48:	b0cff0ef          	jal	ra,c0000054 <print_uart>
    print_uart_addr(lba1->backup_lba);
c0000d4c:	02412583          	lw	a1,36(sp)
c0000d50:	02012503          	lw	a0,32(sp)
c0000d54:	bc0ff0ef          	jal	ra,c0000114 <print_uart_addr>
    print_uart("\r\n\tpartition entries lba:   \t");
c0000d58:	00000517          	auipc	a0,0x0
c0000d5c:	4d450513          	addi	a0,a0,1236 # c000122c <_DATA_END_+0x200>
c0000d60:	af4ff0ef          	jal	ra,c0000054 <print_uart>
    print_uart_addr(lba1->partition_entries_lba);
c0000d64:	04c12583          	lw	a1,76(sp)
c0000d68:	04812503          	lw	a0,72(sp)
c0000d6c:	ba8ff0ef          	jal	ra,c0000114 <print_uart_addr>
    print_uart("\r\n\tnumber partition entries:\t");
c0000d70:	00000517          	auipc	a0,0x0
c0000d74:	4dc50513          	addi	a0,a0,1244 # c000124c <_DATA_END_+0x220>
c0000d78:	adcff0ef          	jal	ra,c0000054 <print_uart>
    print_uart_int(lba1->nr_partition_entries);
c0000d7c:	05012503          	lw	a0,80(sp)
c0000d80:	b30ff0ef          	jal	ra,c00000b0 <print_uart_int>
    print_uart("\r\n\tsize partition entries:  \t");
c0000d84:	00000517          	auipc	a0,0x0
c0000d88:	4e850513          	addi	a0,a0,1256 # c000126c <_DATA_END_+0x240>
c0000d8c:	ac8ff0ef          	jal	ra,c0000054 <print_uart>
    print_uart_int(lba1->size_partition_entry);
c0000d90:	05412503          	lw	a0,84(sp)
c0000d94:	b1cff0ef          	jal	ra,c00000b0 <print_uart_int>
    print_uart("\r\n");
c0000d98:	00000517          	auipc	a0,0x0
c0000d9c:	2cc50513          	addi	a0,a0,716 # c0001064 <_DATA_END_+0x38>
c0000da0:	ab4ff0ef          	jal	ra,c0000054 <print_uart>

    uint8_t lba2_buf[block_size];

    res = sd_copy(lba2_buf, lba1->partition_entries_lba, 1);
c0000da4:	04892583          	lw	a1,72(s2)
    uint8_t lba2_buf[block_size];
c0000da8:	e0010113          	addi	sp,sp,-512
    res = sd_copy(lba2_buf, lba1->partition_entries_lba, 1);
c0000dac:	00100613          	li	a2,1
c0000db0:	00010513          	mv	a0,sp
c0000db4:	c3dff0ef          	jal	ra,c00009f0 <sd_copy>
    uint8_t lba2_buf[block_size];
c0000db8:	00010c13          	mv	s8,sp
    res = sd_copy(lba2_buf, lba1->partition_entries_lba, 1);
c0000dbc:	00050a93          	mv	s5,a0

    if (res != 0)
c0000dc0:	1a051663          	bnez	a0,c0000f6c <gpt_find_boot_partition+0x320>
c0000dc4:	08010913          	addi	s2,sp,128
c0000dc8:	02010993          	addi	s3,sp,32
c0000dcc:	01010a13          	addi	s4,sp,16
        print_uart_addr(res);
        print_uart("\r\n");
        return -2;
    }

    for (int i = 0; i < 4; i++)
c0000dd0:	00400b13          	li	s6,4
    {
        partition_entries_t *part_entry = (partition_entries_t *)(lba2_buf + (i * 128));
        print_uart("gpt partition entry ");
c0000dd4:	00000517          	auipc	a0,0x0
c0000dd8:	4b850513          	addi	a0,a0,1208 # c000128c <_DATA_END_+0x260>
c0000ddc:	a78ff0ef          	jal	ra,c0000054 <print_uart>
        print_uart_byte(i);
c0000de0:	0ffaf513          	zext.b	a0,s5
c0000de4:	bb8ff0ef          	jal	ra,c000019c <print_uart_byte>
        print_uart("\r\n\tpartition type guid:\t");
c0000de8:	00000517          	auipc	a0,0x0
c0000dec:	4bc50513          	addi	a0,a0,1212 # c00012a4 <_DATA_END_+0x278>
c0000df0:	a64ff0ef          	jal	ra,c0000054 <print_uart>
        for (int j = 0; j < 16; j++)
c0000df4:	f8090493          	addi	s1,s2,-128
            print_uart_byte(part_entry->partition_type_guid[j]);
c0000df8:	0004c503          	lbu	a0,0(s1)
        for (int j = 0; j < 16; j++)
c0000dfc:	00148493          	addi	s1,s1,1
            print_uart_byte(part_entry->partition_type_guid[j]);
c0000e00:	b9cff0ef          	jal	ra,c000019c <print_uart_byte>
        for (int j = 0; j < 16; j++)
c0000e04:	ff449ae3          	bne	s1,s4,c0000df8 <gpt_find_boot_partition+0x1ac>
        print_uart("\r\n\tpartition guid:     \t");
c0000e08:	00000517          	auipc	a0,0x0
c0000e0c:	4b850513          	addi	a0,a0,1208 # c00012c0 <_DATA_END_+0x294>
c0000e10:	a44ff0ef          	jal	ra,c0000054 <print_uart>
c0000e14:	000a0493          	mv	s1,s4
        for (int j = 0; j < 16; j++)
            print_uart_byte(part_entry->partition_guid[j]);
c0000e18:	0004c503          	lbu	a0,0(s1)
        for (int j = 0; j < 16; j++)
c0000e1c:	00148493          	addi	s1,s1,1
            print_uart_byte(part_entry->partition_guid[j]);
c0000e20:	b7cff0ef          	jal	ra,c000019c <print_uart_byte>
        for (int j = 0; j < 16; j++)
c0000e24:	ff349ae3          	bne	s1,s3,c0000e18 <gpt_find_boot_partition+0x1cc>
        print_uart("\r\n\tfirst lba:\t");
c0000e28:	00000517          	auipc	a0,0x0
c0000e2c:	4b450513          	addi	a0,a0,1204 # c00012dc <_DATA_END_+0x2b0>
c0000e30:	a24ff0ef          	jal	ra,c0000054 <print_uart>
        print_uart_addr(part_entry->first_lba);
c0000e34:	0049a583          	lw	a1,4(s3)
c0000e38:	0009a503          	lw	a0,0(s3)
c0000e3c:	fb890493          	addi	s1,s2,-72
c0000e40:	ad4ff0ef          	jal	ra,c0000114 <print_uart_addr>
        print_uart("\r\n\tlast lba:\t");
c0000e44:	00000517          	auipc	a0,0x0
c0000e48:	4a850513          	addi	a0,a0,1192 # c00012ec <_DATA_END_+0x2c0>
c0000e4c:	a08ff0ef          	jal	ra,c0000054 <print_uart>
        print_uart_addr(part_entry->last_lba);
c0000e50:	00c9a583          	lw	a1,12(s3)
c0000e54:	0089a503          	lw	a0,8(s3)
c0000e58:	abcff0ef          	jal	ra,c0000114 <print_uart_addr>
        print_uart("\r\n\tattributes:\t");
c0000e5c:	00000517          	auipc	a0,0x0
c0000e60:	4a050513          	addi	a0,a0,1184 # c00012fc <_DATA_END_+0x2d0>
c0000e64:	9f0ff0ef          	jal	ra,c0000054 <print_uart>
        print_uart_addr(part_entry->attributes);
c0000e68:	0109a503          	lw	a0,16(s3)
c0000e6c:	0149a583          	lw	a1,20(s3)
c0000e70:	aa4ff0ef          	jal	ra,c0000114 <print_uart_addr>
        print_uart("\r\n\tname:\t");
c0000e74:	00000517          	auipc	a0,0x0
c0000e78:	49850513          	addi	a0,a0,1176 # c000130c <_DATA_END_+0x2e0>
c0000e7c:	9d8ff0ef          	jal	ra,c0000054 <print_uart>
        for (int j = 0; j < 72; j++)
            print_uart_byte(part_entry->name[j]);
c0000e80:	0004c503          	lbu	a0,0(s1)
        for (int j = 0; j < 72; j++)
c0000e84:	00148493          	addi	s1,s1,1
            print_uart_byte(part_entry->name[j]);
c0000e88:	b14ff0ef          	jal	ra,c000019c <print_uart_byte>
        for (int j = 0; j < 72; j++)
c0000e8c:	ff249ae3          	bne	s1,s2,c0000e80 <gpt_find_boot_partition+0x234>
        print_uart("\r\n");
c0000e90:	00000517          	auipc	a0,0x0
c0000e94:	1d450513          	addi	a0,a0,468 # c0001064 <_DATA_END_+0x38>
    for (int i = 0; i < 4; i++)
c0000e98:	001a8a93          	addi	s5,s5,1
        print_uart("\r\n");
c0000e9c:	9b8ff0ef          	jal	ra,c0000054 <print_uart>
    for (int i = 0; i < 4; i++)
c0000ea0:	08048913          	addi	s2,s1,128
c0000ea4:	08098993          	addi	s3,s3,128
c0000ea8:	080a0a13          	addi	s4,s4,128
c0000eac:	f36a94e3          	bne	s5,s6,c0000dd4 <gpt_find_boot_partition+0x188>
    }

    partition_entries_t *boot = (partition_entries_t *)(lba2_buf);
    print_uart("copying boot image\r\n");
c0000eb0:	00000517          	auipc	a0,0x0
c0000eb4:	46850513          	addi	a0,a0,1128 # c0001318 <_DATA_END_+0x2ec>
c0000eb8:	99cff0ef          	jal	ra,c0000054 <print_uart>
    res = sd_copy(dest, boot->first_lba, boot->last_lba - boot->first_lba + 1);
c0000ebc:	028c2603          	lw	a2,40(s8)
c0000ec0:	020c2583          	lw	a1,32(s8)
c0000ec4:	000b8513          	mv	a0,s7
c0000ec8:	00160613          	addi	a2,a2,1
c0000ecc:	40b60633          	sub	a2,a2,a1
c0000ed0:	b21ff0ef          	jal	ra,c00009f0 <sd_copy>
c0000ed4:	00050493          	mv	s1,a0

    if (res != 0)
c0000ed8:	04051e63          	bnez	a0,c0000f34 <gpt_find_boot_partition+0x2e8>
        print_uart_addr(res);
        print_uart("\r\n");
        return -2;
    }

    print_uart(" done!\r\n");
c0000edc:	00000517          	auipc	a0,0x0
c0000ee0:	45450513          	addi	a0,a0,1108 # c0001330 <_DATA_END_+0x304>
c0000ee4:	970ff0ef          	jal	ra,c0000054 <print_uart>
    return 0;
}
c0000ee8:	fd040113          	addi	sp,s0,-48
c0000eec:	02c12083          	lw	ra,44(sp)
c0000ef0:	00048513          	mv	a0,s1
c0000ef4:	02812403          	lw	s0,40(sp)
c0000ef8:	02412483          	lw	s1,36(sp)
c0000efc:	02012903          	lw	s2,32(sp)
c0000f00:	01c12983          	lw	s3,28(sp)
c0000f04:	01812a03          	lw	s4,24(sp)
c0000f08:	01412a83          	lw	s5,20(sp)
c0000f0c:	01012b03          	lw	s6,16(sp)
c0000f10:	00c12b83          	lw	s7,12(sp)
c0000f14:	00812c03          	lw	s8,8(sp)
c0000f18:	03010113          	addi	sp,sp,48
c0000f1c:	00008067          	ret
        print_uart("could not initialize sd... exiting\r\n");
c0000f20:	00000517          	auipc	a0,0x0
c0000f24:	21850513          	addi	a0,a0,536 # c0001138 <_DATA_END_+0x10c>
c0000f28:	92cff0ef          	jal	ra,c0000054 <print_uart>
        return -1;
c0000f2c:	fff00493          	li	s1,-1
c0000f30:	fb9ff06f          	j	c0000ee8 <gpt_find_boot_partition+0x29c>
        print_uart("SD card failed!\r\n");
c0000f34:	00000517          	auipc	a0,0x0
c0000f38:	24050513          	addi	a0,a0,576 # c0001174 <_DATA_END_+0x148>
c0000f3c:	918ff0ef          	jal	ra,c0000054 <print_uart>
        print_uart("sd copy return value: ");
c0000f40:	00000517          	auipc	a0,0x0
c0000f44:	24850513          	addi	a0,a0,584 # c0001188 <_DATA_END_+0x15c>
c0000f48:	90cff0ef          	jal	ra,c0000054 <print_uart>
        print_uart_addr(res);
c0000f4c:	00048513          	mv	a0,s1
c0000f50:	41f4d593          	srai	a1,s1,0x1f
c0000f54:	9c0ff0ef          	jal	ra,c0000114 <print_uart_addr>
        print_uart("\r\n");
c0000f58:	00000517          	auipc	a0,0x0
c0000f5c:	10c50513          	addi	a0,a0,268 # c0001064 <_DATA_END_+0x38>
c0000f60:	8f4ff0ef          	jal	ra,c0000054 <print_uart>
        return -2;
c0000f64:	ffe00493          	li	s1,-2
c0000f68:	f81ff06f          	j	c0000ee8 <gpt_find_boot_partition+0x29c>
        print_uart("SD card failed!\r\n");
c0000f6c:	00000517          	auipc	a0,0x0
c0000f70:	20850513          	addi	a0,a0,520 # c0001174 <_DATA_END_+0x148>
c0000f74:	8e0ff0ef          	jal	ra,c0000054 <print_uart>
        print_uart("sd copy return value: ");
c0000f78:	00000517          	auipc	a0,0x0
c0000f7c:	21050513          	addi	a0,a0,528 # c0001188 <_DATA_END_+0x15c>
c0000f80:	8d4ff0ef          	jal	ra,c0000054 <print_uart>
        print_uart_addr(res);
c0000f84:	000a8513          	mv	a0,s5
c0000f88:	41fad593          	srai	a1,s5,0x1f
c0000f8c:	988ff0ef          	jal	ra,c0000114 <print_uart_addr>
        print_uart("\r\n");
c0000f90:	00000517          	auipc	a0,0x0
c0000f94:	0d450513          	addi	a0,a0,212 # c0001064 <_DATA_END_+0x38>
c0000f98:	8bcff0ef          	jal	ra,c0000054 <print_uart>
        return -2;
c0000f9c:	ffe00493          	li	s1,-2
c0000fa0:	f49ff06f          	j	c0000ee8 <gpt_find_boot_partition+0x29c>
        print_uart("SD card failed!\r\n");
c0000fa4:	00000517          	auipc	a0,0x0
c0000fa8:	1d050513          	addi	a0,a0,464 # c0001174 <_DATA_END_+0x148>
c0000fac:	8a8ff0ef          	jal	ra,c0000054 <print_uart>
        print_uart("sd copy return value: ");
c0000fb0:	00000517          	auipc	a0,0x0
c0000fb4:	1d850513          	addi	a0,a0,472 # c0001188 <_DATA_END_+0x15c>
c0000fb8:	89cff0ef          	jal	ra,c0000054 <print_uart>
        print_uart_addr(res);
c0000fbc:	00048513          	mv	a0,s1
c0000fc0:	41f4d593          	srai	a1,s1,0x1f
c0000fc4:	950ff0ef          	jal	ra,c0000114 <print_uart_addr>
        print_uart("\r\n");
c0000fc8:	00000517          	auipc	a0,0x0
c0000fcc:	09c50513          	addi	a0,a0,156 # c0001064 <_DATA_END_+0x38>
c0000fd0:	884ff0ef          	jal	ra,c0000054 <print_uart>
        return -2;
c0000fd4:	ffe00493          	li	s1,-2
c0000fd8:	f11ff06f          	j	c0000ee8 <gpt_find_boot_partition+0x29c>

Disassembly of section .text.startup:

c0000fdc <main>:
#include "gpt.h"
#include "smp.h"

int main()
{   
    init_uart(0x10000000, 9600);
c0000fdc:	000025b7          	lui	a1,0x2
{   
c0000fe0:	ff010113          	addi	sp,sp,-16
    init_uart(0x10000000, 9600);
c0000fe4:	58058593          	addi	a1,a1,1408 # 2580 <ROM_BASE-0xbfffda80>
c0000fe8:	10000537          	lui	a0,0x10000
{   
c0000fec:	00112623          	sw	ra,12(sp)
    init_uart(0x10000000, 9600);
c0000ff0:	830ff0ef          	jal	ra,c0000020 <init_uart>
    print_uart("Hello World!\r\n");
c0000ff4:	00000517          	auipc	a0,0x0
c0000ff8:	03850513          	addi	a0,a0,56 # c000102c <_DATA_END_>
c0000ffc:	858ff0ef          	jal	ra,c0000054 <print_uart>
    
    int res = gpt_find_boot_partition((uint8_t *)0x80000000UL, 2 * 16384);
c0001000:	000085b7          	lui	a1,0x8
c0001004:	80000537          	lui	a0,0x80000
c0001008:	c45ff0ef          	jal	ra,c0000c4c <gpt_find_boot_partition>

    // "li s0, 0x50000000;"
    // "jr s0");

    // while (1) ;
}
c000100c:	00c12083          	lw	ra,12(sp)
c0001010:	00000513          	li	a0,0
c0001014:	01010113          	addi	sp,sp,16
c0001018:	00008067          	ret

Disassembly of section .data:

c000101c <bin_to_hex_table>:
c000101c:	3130                	fld	fa2,96(a0)
c000101e:	3332                	fld	ft6,296(sp)
c0001020:	3534                	fld	fa3,104(a0)
c0001022:	3736                	fld	fa4,360(sp)
c0001024:	3938                	fld	fa4,112(a0)
c0001026:	4241                	li	tp,16
c0001028:	46454443          	fmadd.q	fs0,fa0,ft4,fs0,rmm

Disassembly of section .rodata:

c000102c <_RODATA_START_>:
c000102c:	6548                	flw	fa0,12(a0)
c000102e:	6c6c                	flw	fa1,92(s0)
c0001030:	6f57206f          	j	c0073f24 <_BSS_END_+0x72be4>
c0001034:	6c72                	flw	fs8,28(sp)
c0001036:	2164                	fld	fs1,192(a0)
c0001038:	0a0d                	addi	s4,s4,3
c000103a:	0000                	unimp
c000103c:	6e69                	lui	t3,0x1a
c000103e:	7469                	lui	s0,0xffffa
c0001040:	5320                	lw	s0,96(a4)
c0001042:	4950                	lw	a2,20(a0)
c0001044:	0a0d                	addi	s4,s4,3
c0001046:	0000                	unimp
c0001048:	74617473          	csrrci	s0,0x746,2
c000104c:	7375                	lui	t1,0xffffd
c000104e:	203a                	fld	ft0,392(sp)
c0001050:	7830                	flw	fa2,112(s0)
c0001052:	0000                	unimp
c0001054:	20495053          	0x20495053
c0001058:	6e69                	lui	t3,0x1a
c000105a:	7469                	lui	s0,0xffffa
c000105c:	6169                	addi	sp,sp,208
c000105e:	696c                	flw	fa1,84(a0)
c0001060:	657a                	flw	fa0,156(sp)
c0001062:	2164                	fld	fs1,192(a0)
c0001064:	0a0d                	addi	s4,s4,3
c0001066:	0000                	unimp
c0001068:	7872                	flw	fa6,60(sp)
c000106a:	6620                	flw	fs0,72(a2)
c000106c:	6669                	lui	a2,0x1a
c000106e:	6f6e206f          	j	c00e3764 <_BSS_END_+0xe2424>
c0001072:	2074                	fld	fa3,192(s0)
c0001074:	6d65                	lui	s10,0x19
c0001076:	7470                	flw	fa2,108(s0)
c0001078:	3f79                	jal	c0001016 <main+0x3a>
c000107a:	0000203f 44530000 	0x445300000000203f
c0001082:	6320                	flw	fs0,64(a4)
c0001084:	616d6d6f          	jal	s10,c00d769a <_BSS_END_+0xd635a>
c0001088:	646e                	flw	fs0,216(sp)
c000108a:	0020                	addi	s0,sp,8
c000108c:	0920                	addi	s0,sp,152
c000108e:	6572                	flw	fa0,28(sp)
c0001090:	6e6f7073          	csrci	0x6e6,30
c0001094:	3a206573          	csrrsi	a0,pmpcfg2,0
c0001098:	0020                	addi	s0,sp,8
c000109a:	0000                	unimp
c000109c:	30646d63          	bltu	s0,t1,c00013b6 <_BSS_END_+0x76>
c00010a0:	0000                	unimp
c00010a2:	0000                	unimp
c00010a4:	35646d63          	bltu	s0,s6,c00013fe <_BSS_END_+0xbe>
c00010a8:	0035                	c.nop	13
c00010aa:	0000                	unimp
c00010ac:	34646d63          	bltu	s0,t1,c0001406 <_BSS_END_+0xc6>
c00010b0:	0031                	c.nop	12
c00010b2:	0000                	unimp
c00010b4:	6e69                	lui	t3,0x1a
c00010b6:	7469                	lui	s0,0xffffa
c00010b8:	6169                	addi	sp,sp,208
c00010ba:	696c                	flw	fa1,84(a0)
c00010bc:	697a                	flw	fs2,156(sp)
c00010be:	676e                	flw	fa4,216(sp)
c00010c0:	5320                	lw	s0,96(a4)
c00010c2:	2e44                	fld	fs1,152(a2)
c00010c4:	2e2e                	fld	ft8,200(sp)
c00010c6:	0d20                	addi	s0,sp,664
c00010c8:	000a                	c.slli	zero,0x2
c00010ca:	0000                	unimp
c00010cc:	6c756f63          	bltu	a0,t2,c00017aa <_BSS_END_+0x46a>
c00010d0:	2064                	fld	fs1,192(s0)
c00010d2:	6f6e                	flw	ft10,216(sp)
c00010d4:	2074                	fld	fa3,192(s0)
c00010d6:	6572                	flw	fa0,28(sp)
c00010d8:	6461                	lui	s0,0x18
c00010da:	5320                	lw	s0,96(a4)
c00010dc:	2044                	fld	fs1,128(s0)
c00010de:	6c62                	flw	fs8,24(sp)
c00010e0:	0d6b636f          	jal	t1,c00b71b6 <_BSS_END_+0xb5e76>
c00010e4:	000a                	c.slli	zero,0x2
c00010e6:	0000                	unimp
c00010e8:	5f697073          	csrci	0x5f6,18
c00010ec:	74697277          	0x74697277
c00010f0:	5f65                	li	t5,-7
c00010f2:	7962                	flw	fs2,56(sp)
c00010f4:	6574                	flw	fa3,76(a0)
c00010f6:	65622073          	csrs	0x656,tp
c00010fa:	2c6e6967          	0x2c6e6967
c00010fe:	6e20                	flw	fs0,88(a2)
c0001100:	3d20                	fld	fs0,120(a0)
c0001102:	0020                	addi	s0,sp,8
c0001104:	5f697073          	csrci	0x5f6,18
c0001108:	74697277          	0x74697277
c000110c:	5f65                	li	t5,-7
c000110e:	7962                	flw	fs2,56(sp)
c0001110:	6574                	flw	fa3,76(a0)
c0001112:	6e652073          	csrs	0x6e6,a0
c0001116:	0d64                	addi	s1,sp,668
c0001118:	000a                	c.slli	zero,0x2
c000111a:	0000                	unimp
c000111c:	0a0d                	addi	s4,s4,3
c000111e:	657a6973          	csrrsi	s2,0x657,20
c0001122:	695f 646e 7865      	0x7865646e695f
c0001128:	0d3a                	slli	s10,s10,0xe
c000112a:	000a                	c.slli	zero,0x2
c000112c:	2020                	fld	fs0,64(s0)
c000112e:	2020                	fld	fs0,64(s0)
c0001130:	2020                	fld	fs0,64(s0)
c0001132:	2020                	fld	fs0,64(s0)
c0001134:	0000                	unimp
c0001136:	0000                	unimp
c0001138:	6c756f63          	bltu	a0,t2,c0001816 <_BSS_END_+0x4d6>
c000113c:	2064                	fld	fs1,192(s0)
c000113e:	6f6e                	flw	ft10,216(sp)
c0001140:	2074                	fld	fa3,192(s0)
c0001142:	6e69                	lui	t3,0x1a
c0001144:	7469                	lui	s0,0xffffa
c0001146:	6169                	addi	sp,sp,208
c0001148:	696c                	flw	fa1,84(a0)
c000114a:	657a                	flw	fa0,156(sp)
c000114c:	7320                	flw	fs0,96(a4)
c000114e:	2e64                	fld	fs1,216(a2)
c0001150:	2e2e                	fld	ft8,200(sp)
c0001152:	6520                	flw	fs0,72(a0)
c0001154:	6978                	flw	fa4,84(a0)
c0001156:	6974                	flw	fa3,84(a0)
c0001158:	676e                	flw	fa4,216(sp)
c000115a:	0a0d                	addi	s4,s4,3
c000115c:	0000                	unimp
c000115e:	0000                	unimp
c0001160:	69206473          	csrrsi	s0,0x692,0
c0001164:	696e                	flw	fs2,216(sp)
c0001166:	6974                	flw	fa3,84(a0)
c0001168:	6c61                	lui	s8,0x18
c000116a:	7a69                	lui	s4,0xffffa
c000116c:	6465                	lui	s0,0x19
c000116e:	0d21                	addi	s10,s10,8
c0001170:	000a                	c.slli	zero,0x2
c0001172:	0000                	unimp
c0001174:	63204453          	0x63204453
c0001178:	7261                	lui	tp,0xffff8
c000117a:	2064                	fld	fs1,192(s0)
c000117c:	6166                	flw	ft2,88(sp)
c000117e:	6c69                	lui	s8,0x1a
c0001180:	6465                	lui	s0,0x19
c0001182:	0d21                	addi	s10,s10,8
c0001184:	000a                	c.slli	zero,0x2
c0001186:	0000                	unimp
c0001188:	63206473          	csrrsi	s0,0x632,0
c000118c:	2079706f          	j	c0098b92 <_BSS_END_+0x97852>
c0001190:	6572                	flw	fa0,28(sp)
c0001192:	7574                	flw	fa3,108(a0)
c0001194:	6e72                	flw	ft8,28(sp)
c0001196:	7620                	flw	fs0,104(a2)
c0001198:	6c61                	lui	s8,0x18
c000119a:	6575                	lui	a0,0x1d
c000119c:	203a                	fld	ft0,392(sp)
c000119e:	0000                	unimp
c00011a0:	20747067          	0x20747067
c00011a4:	6170                	flw	fa2,68(a0)
c00011a6:	7472                	flw	fs0,60(sp)
c00011a8:	7469                	lui	s0,0xffffa
c00011aa:	6f69                	lui	t5,0x1a
c00011ac:	206e                	fld	ft0,216(sp)
c00011ae:	6174                	flw	fa3,68(a0)
c00011b0:	6c62                	flw	fs8,24(sp)
c00011b2:	2065                	jal	c000125a <_RODATA_START_+0x22e>
c00011b4:	6568                	flw	fa0,76(a0)
c00011b6:	6461                	lui	s0,0x18
c00011b8:	7265                	lui	tp,0xffff9
c00011ba:	003a                	c.slli	zero,0xe
c00011bc:	0a0d                	addi	s4,s4,3
c00011be:	7309                	lui	t1,0xfffe2
c00011c0:	6769                	lui	a4,0x1a
c00011c2:	616e                	flw	ft2,216(sp)
c00011c4:	7574                	flw	fa3,108(a0)
c00011c6:	6572                	flw	fa0,28(sp)
c00011c8:	093a                	slli	s2,s2,0xe
c00011ca:	0000                	unimp
c00011cc:	0a0d                	addi	s4,s4,3
c00011ce:	7209                	lui	tp,0xfffe2
c00011d0:	7665                	lui	a2,0xffff9
c00011d2:	7369                	lui	t1,0xffffa
c00011d4:	6f69                	lui	t5,0x1a
c00011d6:	3a6e                	fld	fs4,248(sp)
c00011d8:	0009                	c.nop	2
c00011da:	0000                	unimp
c00011dc:	0a0d                	addi	s4,s4,3
c00011de:	7309                	lui	t1,0xfffe2
c00011e0:	7a69                	lui	s4,0xffffa
c00011e2:	3a65                	jal	c0000b9a <sd_copy+0x1aa>
c00011e4:	0909                	addi	s2,s2,2
c00011e6:	0000                	unimp
c00011e8:	0a0d                	addi	s4,s4,3
c00011ea:	6309                	lui	t1,0x2
c00011ec:	6372                	flw	ft6,28(sp)
c00011ee:	685f 6165 6564      	0x65646165685f
c00011f4:	3a72                	fld	fs4,312(sp)
c00011f6:	0009                	c.nop	2
c00011f8:	0a0d                	addi	s4,s4,3
c00011fa:	7209                	lui	tp,0xfffe2
c00011fc:	7365                	lui	t1,0xffff9
c00011fe:	7265                	lui	tp,0xffff9
c0001200:	6576                	flw	fa0,92(sp)
c0001202:	3a64                	fld	fs1,240(a2)
c0001204:	0009                	c.nop	2
c0001206:	0000                	unimp
c0001208:	0a0d                	addi	s4,s4,3
c000120a:	6309                	lui	t1,0x2
c000120c:	7275                	lui	tp,0xffffd
c000120e:	6572                	flw	fa0,28(sp)
c0001210:	746e                	flw	fs0,248(sp)
c0001212:	6c20                	flw	fs0,88(s0)
c0001214:	6162                	flw	ft2,24(sp)
c0001216:	093a                	slli	s2,s2,0xe
c0001218:	0000                	unimp
c000121a:	0000                	unimp
c000121c:	0a0d                	addi	s4,s4,3
c000121e:	6209                	lui	tp,0x2
c0001220:	6361                	lui	t1,0x18
c0001222:	2070756b          	0x2070756b
c0001226:	626c                	flw	fa1,68(a2)
c0001228:	3a61                	jal	c0000bc0 <sd_copy+0x1d0>
c000122a:	0009                	c.nop	2
c000122c:	0a0d                	addi	s4,s4,3
c000122e:	7009                	c.lui	zero,0xfffe2
c0001230:	7261                	lui	tp,0xffff8
c0001232:	6974                	flw	fa3,84(a0)
c0001234:	6974                	flw	fa3,84(a0)
c0001236:	65206e6f          	jal	t3,c0007888 <_BSS_END_+0x6548>
c000123a:	746e                	flw	fs0,248(sp)
c000123c:	6972                	flw	fs2,28(sp)
c000123e:	7365                	lui	t1,0xffff9
c0001240:	6c20                	flw	fs0,88(s0)
c0001242:	6162                	flw	ft2,24(sp)
c0001244:	203a                	fld	ft0,392(sp)
c0001246:	2020                	fld	fs0,64(s0)
c0001248:	0009                	c.nop	2
c000124a:	0000                	unimp
c000124c:	0a0d                	addi	s4,s4,3
c000124e:	6e09                	lui	t3,0x2
c0001250:	6d75                	lui	s10,0x1d
c0001252:	6562                	flw	fa0,24(sp)
c0001254:	2072                	fld	ft0,280(sp)
c0001256:	6170                	flw	fa2,68(a0)
c0001258:	7472                	flw	fs0,60(sp)
c000125a:	7469                	lui	s0,0xffffa
c000125c:	6f69                	lui	t5,0x1a
c000125e:	206e                	fld	ft0,216(sp)
c0001260:	6e65                	lui	t3,0x19
c0001262:	7274                	flw	fa3,100(a2)
c0001264:	6569                	lui	a0,0x1a
c0001266:	00093a73          	csrrc	s4,ustatus,s2
c000126a:	0000                	unimp
c000126c:	0a0d                	addi	s4,s4,3
c000126e:	7309                	lui	t1,0xfffe2
c0001270:	7a69                	lui	s4,0xffffa
c0001272:	2065                	jal	c000131a <_RODATA_START_+0x2ee>
c0001274:	6170                	flw	fa2,68(a0)
c0001276:	7472                	flw	fs0,60(sp)
c0001278:	7469                	lui	s0,0xffffa
c000127a:	6f69                	lui	t5,0x1a
c000127c:	206e                	fld	ft0,216(sp)
c000127e:	6e65                	lui	t3,0x19
c0001280:	7274                	flw	fa3,100(a2)
c0001282:	6569                	lui	a0,0x1a
c0001284:	20203a73          	csrrc	s4,0x202,zero
c0001288:	0009                	c.nop	2
c000128a:	0000                	unimp
c000128c:	20747067          	0x20747067
c0001290:	6170                	flw	fa2,68(a0)
c0001292:	7472                	flw	fs0,60(sp)
c0001294:	7469                	lui	s0,0xffffa
c0001296:	6f69                	lui	t5,0x1a
c0001298:	206e                	fld	ft0,216(sp)
c000129a:	6e65                	lui	t3,0x19
c000129c:	7274                	flw	fa3,100(a2)
c000129e:	2079                	jal	c000132c <_RODATA_START_+0x300>
c00012a0:	0000                	unimp
c00012a2:	0000                	unimp
c00012a4:	0a0d                	addi	s4,s4,3
c00012a6:	7009                	c.lui	zero,0xfffe2
c00012a8:	7261                	lui	tp,0xffff8
c00012aa:	6974                	flw	fa3,84(a0)
c00012ac:	6974                	flw	fa3,84(a0)
c00012ae:	74206e6f          	jal	t3,c00079f0 <_BSS_END_+0x66b0>
c00012b2:	7079                	c.lui	zero,0xffffe
c00012b4:	2065                	jal	c000135c <_BSS_END_+0x1c>
c00012b6:	64697567          	0x64697567
c00012ba:	093a                	slli	s2,s2,0xe
c00012bc:	0000                	unimp
c00012be:	0000                	unimp
c00012c0:	0a0d                	addi	s4,s4,3
c00012c2:	7009                	c.lui	zero,0xfffe2
c00012c4:	7261                	lui	tp,0xffff8
c00012c6:	6974                	flw	fa3,84(a0)
c00012c8:	6974                	flw	fa3,84(a0)
c00012ca:	67206e6f          	jal	t3,c000793c <_BSS_END_+0x65fc>
c00012ce:	6975                	lui	s2,0x1d
c00012d0:	3a64                	fld	fs1,240(a2)
c00012d2:	2020                	fld	fs0,64(s0)
c00012d4:	2020                	fld	fs0,64(s0)
c00012d6:	0920                	addi	s0,sp,152
c00012d8:	0000                	unimp
c00012da:	0000                	unimp
c00012dc:	0a0d                	addi	s4,s4,3
c00012de:	6609                	lui	a2,0x2
c00012e0:	7269                	lui	tp,0xffffa
c00012e2:	6c207473          	csrrci	s0,0x6c2,0
c00012e6:	6162                	flw	ft2,24(sp)
c00012e8:	093a                	slli	s2,s2,0xe
c00012ea:	0000                	unimp
c00012ec:	0a0d                	addi	s4,s4,3
c00012ee:	6c09                	lui	s8,0x2
c00012f0:	7361                	lui	t1,0xffff8
c00012f2:	2074                	fld	fa3,192(s0)
c00012f4:	626c                	flw	fa1,68(a2)
c00012f6:	3a61                	jal	c0000c8e <gpt_find_boot_partition+0x42>
c00012f8:	0009                	c.nop	2
c00012fa:	0000                	unimp
c00012fc:	0a0d                	addi	s4,s4,3
c00012fe:	6109                	addi	sp,sp,128
c0001300:	7474                	flw	fa3,108(s0)
c0001302:	6972                	flw	fs2,28(sp)
c0001304:	7562                	flw	fa0,56(sp)
c0001306:	6574                	flw	fa3,76(a0)
c0001308:	00093a73          	csrrc	s4,ustatus,s2
c000130c:	0a0d                	addi	s4,s4,3
c000130e:	6e09                	lui	t3,0x2
c0001310:	6d61                	lui	s10,0x18
c0001312:	3a65                	jal	c0000cca <gpt_find_boot_partition+0x7e>
c0001314:	0009                	c.nop	2
c0001316:	0000                	unimp
c0001318:	79706f63          	bltu	zero,s7,c0001ab6 <_BSS_END_+0x776>
c000131c:	6e69                	lui	t3,0x1a
c000131e:	6f622067          	0x6f622067
c0001322:	6920746f          	jal	s0,c00089b4 <_BSS_END_+0x7674>
c0001326:	616d                	addi	sp,sp,240
c0001328:	0a0d6567          	0xa0d6567
c000132c:	0000                	unimp
c000132e:	0000                	unimp
c0001330:	6420                	flw	fs0,72(s0)
c0001332:	21656e6f          	jal	t3,c0057548 <_BSS_END_+0x56208>
c0001336:	0a0d                	addi	s4,s4,3
	...

Disassembly of section .bss:

c000133c <m_uart>:
c000133c:	0000                	unimp
	...

Disassembly of section .riscv.attributes:

00000000 <.riscv.attributes>:
   0:	2941                	jal	490 <ROM_BASE-0xbffffb70>
   2:	0000                	unimp
   4:	7200                	flw	fs0,32(a2)
   6:	7369                	lui	t1,0xffffa
   8:	01007663          	bgeu	zero,a6,14 <ROM_BASE-0xbfffffec>
   c:	001f 0000 1004      	0x10040000001f
  12:	7205                	lui	tp,0xfffe1
  14:	3376                	fld	ft6,376(sp)
  16:	6932                	flw	fs2,12(sp)
  18:	7032                	flw	ft0,44(sp)
  1a:	5f30                	lw	a2,120(a4)
  1c:	326d                	jal	fffff9c6 <_BSS_END_+0x3fffe686>
  1e:	3070                	fld	fa2,224(s0)
  20:	615f 7032 0030      	0x307032615f
  26:	0108                	addi	a0,sp,128
  28:	0b0a                	slli	s6,s6,0x2

Disassembly of section .comment:

00000000 <.comment>:
   0:	3a434347          	fmsub.d	ft6,ft6,ft4,ft7,rmm
   4:	2820                	fld	fs0,80(s0)
   6:	29554e47          	fmsub.s	ft8,fa0,fs5,ft5,rmm
   a:	3120                	fld	fs0,96(a0)
   c:	2e30                	fld	fa2,88(a2)
   e:	2e32                	fld	ft8,264(sp)
  10:	0030                	addi	a2,sp,8

Disassembly of section .debug_line:

00000000 <.debug_line>:
       0:	0060                	addi	s0,sp,12
       2:	0000                	unimp
       4:	00200003          	lb	zero,2(zero) # 2 <ROM_BASE-0xbffffffe>
       8:	0000                	unimp
       a:	0101                	addi	sp,sp,0
       c:	000d0efb          	0xd0efb
      10:	0101                	addi	sp,sp,0
      12:	0101                	addi	sp,sp,0
      14:	0000                	unimp
      16:	0100                	addi	s0,sp,128
      18:	0000                	unimp
      1a:	0001                	nop
      1c:	72617473          	csrrci	s0,0x726,2
      20:	7574                	flw	fa3,108(a0)
      22:	2e70                	fld	fa2,216(a2)
      24:	00000053          	fadd.s	ft0,ft0,ft0,rne
      28:	0000                	unimp
      2a:	0500                	addi	s0,sp,640
      2c:	0002                	c.slli64	zero
      2e:	0000                	unimp
      30:	03c0                	addi	s0,sp,452
      32:	0103010b          	0x103010b
      36:	0409                	addi	s0,s0,2
      38:	0100                	addi	s0,sp,128
      3a:	04090103          	lb	sp,64(s2) # 1d040 <ROM_BASE-0xbffe2fc0>
      3e:	0100                	addi	s0,sp,128
      40:	04090103          	lb	sp,64(s2)
      44:	0100                	addi	s0,sp,128
      46:	04090203          	lb	tp,64(s2)
      4a:	0100                	addi	s0,sp,128
      4c:	04090203          	lb	tp,64(s2)
      50:	0100                	addi	s0,sp,128
      52:	04090103          	lb	sp,64(s2)
      56:	0100                	addi	s0,sp,128
      58:	04090103          	lb	sp,64(s2)
      5c:	0100                	addi	s0,sp,128
      5e:	0409                	addi	s0,s0,2
      60:	0000                	unimp
      62:	0101                	addi	sp,sp,0
      64:	00000117          	auipc	sp,0x0
      68:	00af0003          	lb	zero,10(t5) # 1a00a <ROM_BASE-0xbffe5ff6>
      6c:	0000                	unimp
      6e:	0101                	addi	sp,sp,0
      70:	000d0efb          	0xd0efb
      74:	0101                	addi	sp,sp,0
      76:	0101                	addi	sp,sp,0
      78:	0000                	unimp
      7a:	0100                	addi	s0,sp,128
      7c:	0000                	unimp
      7e:	7301                	lui	t1,0xfffe0
      80:	6372                	flw	ft6,28(sp)
      82:	2f00                	fld	fs0,24(a4)
      84:	2f74706f          	j	47b7a <ROM_BASE-0xbffb8486>
      88:	6972                	flw	fs2,28(sp)
      8a:	2f766373          	csrrsi	t1,0x2f7,12
      8e:	6972                	flw	fs2,28(sp)
      90:	36766373          	csrrsi	t1,0x367,12
      94:	2d34                	fld	fa3,88(a0)
      96:	6e75                	lui	t3,0x1d
      98:	776f6e6b          	0x776f6e6b
      9c:	2d6e                	fld	fs10,216(sp)
      9e:	6c65                	lui	s8,0x19
      a0:	2f66                	fld	ft10,88(sp)
      a2:	6e69                	lui	t3,0x1a
      a4:	64756c63          	bltu	a0,t2,6fc <ROM_BASE-0xbffff904>
      a8:	2f65                	jal	860 <ROM_BASE-0xbffff7a0>
      aa:	616d                	addi	sp,sp,240
      ac:	6e696863          	bltu	s2,t1,79c <ROM_BASE-0xbffff864>
      b0:	0065                	c.nop	25
      b2:	74706f2f          	0x74706f2f
      b6:	7369722f          	0x7369722f
      ba:	722f7663          	bgeu	t5,sp,7e6 <ROM_BASE-0xbffff81a>
      be:	7369                	lui	t1,0xffffa
      c0:	34367663          	bgeu	a2,gp,40c <ROM_BASE-0xbffffbf4>
      c4:	752d                	lui	a0,0xfffeb
      c6:	6b6e                	flw	fs6,216(sp)
      c8:	6f6e                	flw	ft10,216(sp)
      ca:	652d6e77          	0x652d6e77
      ce:	666c                	flw	fa1,76(a2)
      d0:	636e692f          	0x636e692f
      d4:	756c                	flw	fa1,108(a0)
      d6:	6564                	flw	fs1,76(a0)
      d8:	7379732f          	0x7379732f
      dc:	0000                	unimp
      de:	616d                	addi	sp,sp,240
      e0:	6e69                	lui	t3,0x1a
      e2:	632e                	flw	ft6,200(sp)
      e4:	0100                	addi	s0,sp,128
      e6:	0000                	unimp
      e8:	645f 6665 7561      	0x75616665645f
      ee:	746c                	flw	fa1,108(s0)
      f0:	745f 7079 7365      	0x73657079745f
      f6:	682e                	flw	fa6,200(sp)
      f8:	0200                	addi	s0,sp,256
      fa:	0000                	unimp
      fc:	735f 6474 6e69      	0x6e696474735f
     102:	2e74                	fld	fa3,216(a2)
     104:	0068                	addi	a0,sp,12
     106:	75000003          	lb	zero,1872(zero) # 750 <ROM_BASE-0xbffff8b0>
     10a:	7261                	lui	tp,0xffff8
     10c:	2e74                	fld	fa3,216(a2)
     10e:	0068                	addi	a0,sp,12
     110:	0001                	nop
     112:	6700                	flw	fs0,8(a4)
     114:	7470                	flw	fa2,108(s0)
     116:	682e                	flw	fa6,200(sp)
     118:	0100                	addi	s0,sp,128
     11a:	0000                	unimp
     11c:	0500                	addi	s0,sp,640
     11e:	0001                	nop
     120:	0205                	addi	tp,tp,1
     122:	0fdc                	addi	a5,sp,980
     124:	c000                	sw	s0,0(s0)
     126:	0519                	addi	a0,a0,6
     128:	0305                	addi	t1,t1,1
     12a:	0901                	addi	s2,s2,0
     12c:	0000                	unimp
     12e:	0501                	addi	a0,a0,0
     130:	0601                	addi	a2,a2,0
     132:	04097f03          	0x4097f03
     136:	0100                	addi	s0,sp,128
     138:	0505                	addi	a0,a0,1
     13a:	04090103          	lb	sp,64(s2)
     13e:	0100                	addi	s0,sp,128
     140:	0105                	addi	sp,sp,1
     142:	08097f03          	0x8097f03
     146:	0100                	addi	s0,sp,128
     148:	0505                	addi	a0,a0,1
     14a:	04090103          	lb	sp,64(s2)
     14e:	0100                	addi	s0,sp,128
     150:	0306                	slli	t1,t1,0x1
     152:	0901                	addi	s2,s2,0
     154:	0004                	0x4
     156:	0301                	addi	t1,t1,0
     158:	0902                	c.slli64	s2
     15a:	000c                	0xc
     15c:	0501                	addi	a0,a0,0
     15e:	0003060f          	0x3060f
     162:	0009                	c.nop	2
     164:	0100                	addi	s0,sp,128
     166:	0505                	addi	a0,a0,1
     168:	0306                	slli	t1,t1,0x1
     16a:	0902                	c.slli64	s2
     16c:	000c                	0xc
     16e:	0501                	addi	a0,a0,0
     170:	0601                	addi	a2,a2,0
     172:	0900fe03          	0x900fe03
     176:	0000                	unimp
     178:	0901                	addi	s2,s2,0
     17a:	0010                	0x10
     17c:	0100                	addi	s0,sp,128
     17e:	c501                	beqz	a0,186 <ROM_BASE-0xbffffe7a>
     180:	0006                	c.slli	zero,0x1
     182:	0300                	addi	s0,sp,384
     184:	9c00                	0x9c00
     186:	0000                	unimp
     188:	0100                	addi	s0,sp,128
     18a:	fb01                	bnez	a4,9a <ROM_BASE-0xbfffff66>
     18c:	0d0e                	slli	s10,s10,0x3
     18e:	0100                	addi	s0,sp,128
     190:	0101                	addi	sp,sp,0
     192:	0001                	nop
     194:	0000                	unimp
     196:	0001                	nop
     198:	0100                	addi	s0,sp,128
     19a:	00637273          	csrrci	tp,0x6,6
     19e:	74706f2f          	0x74706f2f
     1a2:	7369722f          	0x7369722f
     1a6:	722f7663          	bgeu	t5,sp,8d2 <ROM_BASE-0xbffff72e>
     1aa:	7369                	lui	t1,0xffffa
     1ac:	34367663          	bgeu	a2,gp,4f8 <ROM_BASE-0xbffffb08>
     1b0:	752d                	lui	a0,0xfffeb
     1b2:	6b6e                	flw	fs6,216(sp)
     1b4:	6f6e                	flw	ft10,216(sp)
     1b6:	652d6e77          	0x652d6e77
     1ba:	666c                	flw	fa1,76(a2)
     1bc:	636e692f          	0x636e692f
     1c0:	756c                	flw	fa1,108(a0)
     1c2:	6564                	flw	fs1,76(a0)
     1c4:	63616d2f          	0x63616d2f
     1c8:	6968                	flw	fa0,84(a0)
     1ca:	656e                	flw	fa0,216(sp)
     1cc:	2f00                	fld	fs0,24(a4)
     1ce:	2f74706f          	j	47cc4 <ROM_BASE-0xbffb833c>
     1d2:	6972                	flw	fs2,28(sp)
     1d4:	2f766373          	csrrsi	t1,0x2f7,12
     1d8:	6972                	flw	fs2,28(sp)
     1da:	36766373          	csrrsi	t1,0x367,12
     1de:	2d34                	fld	fa3,88(a0)
     1e0:	6e75                	lui	t3,0x1d
     1e2:	776f6e6b          	0x776f6e6b
     1e6:	2d6e                	fld	fs10,216(sp)
     1e8:	6c65                	lui	s8,0x19
     1ea:	2f66                	fld	ft10,88(sp)
     1ec:	6e69                	lui	t3,0x1a
     1ee:	64756c63          	bltu	a0,t2,846 <ROM_BASE-0xbffff7ba>
     1f2:	2f65                	jal	9aa <ROM_BASE-0xbffff656>
     1f4:	00737973          	csrrci	s2,0x7,6
     1f8:	7500                	flw	fs0,40(a0)
     1fa:	7261                	lui	tp,0xffff8
     1fc:	2e74                	fld	fa3,216(a2)
     1fe:	00010063          	beqz	sp,1fe <ROM_BASE-0xbffffe02>
     202:	5f00                	lw	s0,56(a4)
     204:	6564                	flw	fs1,76(a0)
     206:	6166                	flw	ft2,88(sp)
     208:	6c75                	lui	s8,0x1d
     20a:	5f74                	lw	a3,124(a4)
     20c:	7974                	flw	fa3,116(a0)
     20e:	6570                	flw	fa2,76(a0)
     210:	00682e73          	csrrs	t3,0x6,a6
     214:	0002                	c.slli64	zero
     216:	5f00                	lw	s0,56(a4)
     218:	69647473          	csrrci	s0,0x696,8
     21c:	746e                	flw	fs0,248(sp)
     21e:	682e                	flw	fa6,200(sp)
     220:	0300                	addi	s0,sp,384
     222:	0000                	unimp
     224:	0500                	addi	s0,sp,640
     226:	0001                	nop
     228:	0205                	addi	tp,tp,1
     22a:	0020                	addi	s0,sp,8
     22c:	c000                	sw	s0,0(s0)
     22e:	05013803          	0x5013803
     232:	0305                	addi	t1,t1,1
     234:	0901                	addi	s2,s2,0
     236:	0000                	unimp
     238:	0301                	addi	t1,t1,0
     23a:	0901                	addi	s2,s2,0
     23c:	0000                	unimp
     23e:	0501                	addi	a0,a0,0
     240:	060c                	addi	a1,sp,768
     242:	00090003          	lb	zero,0(s2)
     246:	0100                	addi	s0,sp,128
     248:	0505                	addi	a0,a0,1
     24a:	0306                	slli	t1,t1,0x1
     24c:	00080903          	lb	s2,0(a6)
     250:	0301                	addi	t1,t1,0
     252:	0901                	addi	s2,s2,0
     254:	0000                	unimp
     256:	0301                	addi	t1,t1,0
     258:	0902                	c.slli64	s2
     25a:	0000                	unimp
     25c:	0501                	addi	a0,a0,0
     25e:	061e                	slli	a2,a2,0x7
     260:	00090003          	lb	zero,0(s2)
     264:	0100                	addi	s0,sp,128
     266:	0105                	addi	sp,sp,1
     268:	08090103          	lb	sp,128(s2)
     26c:	0100                	addi	s0,sp,128
     26e:	0306                	slli	t1,t1,0x1
     270:	0905                	addi	s2,s2,1
     272:	0004                	0x4
     274:	0501                	addi	a0,a0,0
     276:	0305                	addi	t1,t1,1
     278:	0902                	c.slli64	s2
     27a:	0000                	unimp
     27c:	0501                	addi	a0,a0,0
     27e:	0612                	slli	a2,a2,0x4
     280:	00090003          	lb	zero,0(s2)
     284:	0100                	addi	s0,sp,128
     286:	0905                	addi	s2,s2,1
     288:	0200                	addi	s0,sp,256
     28a:	0104                	addi	s1,sp,128
     28c:	0306                	slli	t1,t1,0x1
     28e:	0901                	addi	s2,s2,0
     290:	0008                	0x8
     292:	0501                	addi	a0,a0,0
     294:	0402000b          	0x402000b
     298:	0301                	addi	t1,t1,0
     29a:	097f                	0x97f
     29c:	0000                	unimp
     29e:	0501                	addi	a0,a0,0
     2a0:	0012                	c.slli	zero,0x4
     2a2:	0402                	c.slli64	s0
     2a4:	0601                	addi	a2,a2,0
     2a6:	00090003          	lb	zero,0(s2)
     2aa:	0100                	addi	s0,sp,128
     2ac:	2305                	jal	7cc <ROM_BASE-0xbffff834>
     2ae:	0200                	addi	s0,sp,256
     2b0:	0104                	addi	s1,sp,128
     2b2:	04090003          	lb	zero,64(s2)
     2b6:	0100                	addi	s0,sp,128
     2b8:	0b05                	addi	s6,s6,1
     2ba:	0200                	addi	s0,sp,256
     2bc:	0104                	addi	s1,sp,128
     2be:	04090003          	lb	zero,64(s2)
     2c2:	0100                	addi	s0,sp,128
     2c4:	0505                	addi	a0,a0,1
     2c6:	0306                	slli	t1,t1,0x1
     2c8:	00040903          	lb	s2,0(s0) # ffffa000 <_BSS_END_+0x3fff8cc0>
     2cc:	0501                	addi	a0,a0,0
     2ce:	0618                	addi	a4,sp,768
     2d0:	00090003          	lb	zero,0(s2)
     2d4:	0100                	addi	s0,sp,128
     2d6:	0505                	addi	a0,a0,1
     2d8:	0306                	slli	t1,t1,0x1
     2da:	0902                	c.slli64	s2
     2dc:	0004                	0x4
     2de:	0501                	addi	a0,a0,0
     2e0:	0601                	addi	a2,a2,0
     2e2:	00090103          	lb	sp,0(s2)
     2e6:	0100                	addi	s0,sp,128
     2e8:	0306                	slli	t1,t1,0x1
     2ea:	0905                	addi	s2,s2,1
     2ec:	0008                	0x8
     2ee:	0501                	addi	a0,a0,0
     2f0:	0305                	addi	t1,t1,1
     2f2:	0901                	addi	s2,s2,0
     2f4:	0000                	unimp
     2f6:	0501                	addi	a0,a0,0
     2f8:	0900030b          	0x900030b
     2fc:	0000                	unimp
     2fe:	0501                	addi	a0,a0,0
     300:	060c                	addi	a1,sp,768
     302:	00090003          	lb	zero,0(s2)
     306:	0100                	addi	s0,sp,128
     308:	0b05                	addi	s6,s6,1
     30a:	04090003          	lb	zero,64(s2)
     30e:	0100                	addi	s0,sp,128
     310:	1205                	addi	tp,tp,-31
     312:	04097403          	0x4097403
     316:	0100                	addi	s0,sp,128
     318:	0905                	addi	s2,s2,1
     31a:	0306                	slli	t1,t1,0x1
     31c:	090d                	addi	s2,s2,3
     31e:	0008                	0x8
     320:	0501                	addi	a0,a0,0
     322:	061c                	addi	a5,sp,768
     324:	00090003          	lb	zero,0(s2)
     328:	0100                	addi	s0,sp,128
     32a:	0505                	addi	a0,a0,1
     32c:	0306                	slli	t1,t1,0x1
     32e:	00040973          	0x40973
     332:	0501                	addi	a0,a0,0
     334:	0309                	addi	t1,t1,2
     336:	0901                	addi	s2,s2,0
     338:	0000                	unimp
     33a:	0501                	addi	a0,a0,0
     33c:	097f030b          	0x97f030b
     340:	0000                	unimp
     342:	0501                	addi	a0,a0,0
     344:	0612                	slli	a2,a2,0x4
     346:	00090003          	lb	zero,0(s2)
     34a:	0100                	addi	s0,sp,128
     34c:	2305                	jal	86c <ROM_BASE-0xbffff794>
     34e:	04090003          	lb	zero,64(s2)
     352:	0100                	addi	s0,sp,128
     354:	0b05                	addi	s6,s6,1
     356:	04090003          	lb	zero,64(s2)
     35a:	0100                	addi	s0,sp,128
     35c:	0505                	addi	a0,a0,1
     35e:	0306                	slli	t1,t1,0x1
     360:	00040903          	lb	s2,0(s0)
     364:	0501                	addi	a0,a0,0
     366:	0618                	addi	a4,sp,768
     368:	00090003          	lb	zero,0(s2)
     36c:	0100                	addi	s0,sp,128
     36e:	0505                	addi	a0,a0,1
     370:	0306                	slli	t1,t1,0x1
     372:	0902                	c.slli64	s2
     374:	0004                	0x4
     376:	0501                	addi	a0,a0,0
     378:	0907030b          	0x907030b
     37c:	0000                	unimp
     37e:	0501                	addi	a0,a0,0
     380:	060c                	addi	a1,sp,768
     382:	00090003          	lb	zero,0(s2)
     386:	0100                	addi	s0,sp,128
     388:	0b05                	addi	s6,s6,1
     38a:	04090003          	lb	zero,64(s2)
     38e:	0100                	addi	s0,sp,128
     390:	0105                	addi	sp,sp,1
     392:	04090203          	lb	tp,64(s2)
     396:	0100                	addi	s0,sp,128
     398:	0306                	slli	t1,t1,0x1
     39a:	0906                	slli	s2,s2,0x1
     39c:	0004                	0x4
     39e:	0501                	addi	a0,a0,0
     3a0:	0305                	addi	t1,t1,1
     3a2:	0901                	addi	s2,s2,0
     3a4:	0000                	unimp
     3a6:	0501                	addi	a0,a0,0
     3a8:	061e                	slli	a2,a2,0x7
     3aa:	00090003          	lb	zero,0(s2)
     3ae:	0100                	addi	s0,sp,128
     3b0:	2305                	jal	8d0 <ROM_BASE-0xbffff730>
     3b2:	08090003          	lb	zero,128(s2)
     3b6:	0100                	addi	s0,sp,128
     3b8:	1e05                	addi	t3,t3,-31
     3ba:	04090003          	lb	zero,64(s2)
     3be:	0100                	addi	s0,sp,128
     3c0:	2a05                	jal	4f0 <ROM_BASE-0xbffffb10>
     3c2:	08090103          	lb	sp,128(s2)
     3c6:	0100                	addi	s0,sp,128
     3c8:	1e05                	addi	t3,t3,-31
     3ca:	04090003          	lb	zero,64(s2)
     3ce:	0100                	addi	s0,sp,128
     3d0:	0c05                	addi	s8,s8,1
     3d2:	04097f03          	0x4097f03
     3d6:	0100                	addi	s0,sp,128
     3d8:	0505                	addi	a0,a0,1
     3da:	0306                	slli	t1,t1,0x1
     3dc:	0901                	addi	s2,s2,0
     3de:	0004                	0x4
     3e0:	0501                	addi	a0,a0,0
     3e2:	061e                	slli	a2,a2,0x7
     3e4:	00090003          	lb	zero,0(s2)
     3e8:	0100                	addi	s0,sp,128
     3ea:	0c05                	addi	s8,s8,1
     3ec:	04090003          	lb	zero,64(s2)
     3f0:	0100                	addi	s0,sp,128
     3f2:	0505                	addi	a0,a0,1
     3f4:	0306                	slli	t1,t1,0x1
     3f6:	0901                	addi	s2,s2,0
     3f8:	0004                	0x4
     3fa:	0501                	addi	a0,a0,0
     3fc:	0601                	addi	a2,a2,0
     3fe:	00090103          	lb	sp,0(s2)
     402:	0100                	addi	s0,sp,128
     404:	0306                	slli	t1,t1,0x1
     406:	00040903          	lb	s2,0(s0)
     40a:	0501                	addi	a0,a0,0
     40c:	0305                	addi	t1,t1,1
     40e:	0901                	addi	s2,s2,0
     410:	0000                	unimp
     412:	0301                	addi	t1,t1,0
     414:	0901                	addi	s2,s2,0
     416:	0000                	unimp
     418:	0501                	addi	a0,a0,0
     41a:	0311                	addi	t1,t1,4
     41c:	0900                	addi	s0,sp,144
     41e:	0000                	unimp
     420:	0501                	addi	a0,a0,0
     422:	0612                	slli	a2,a2,0x4
     424:	00096303          	0x96303
     428:	0100                	addi	s0,sp,128
     42a:	0505                	addi	a0,a0,1
     42c:	14091d03          	lh	s10,320(s2)
     430:	0100                	addi	s0,sp,128
     432:	0905                	addi	s2,s2,1
     434:	0200                	addi	s0,sp,256
     436:	0304                	addi	s1,sp,384
     438:	0306                	slli	t1,t1,0x1
     43a:	0902                	c.slli64	s2
     43c:	0004                	0x4
     43e:	0501                	addi	a0,a0,0
     440:	001d                	c.nop	7
     442:	0402                	c.slli64	s0
     444:	00030603          	lb	a2,0(t1) # ffffa000 <_BSS_END_+0x3fff8cc0>
     448:	0009                	c.nop	2
     44a:	0100                	addi	s0,sp,128
     44c:	1105                	addi	sp,sp,-31
     44e:	0200                	addi	s0,sp,256
     450:	0304                	addi	s1,sp,384
     452:	04090003          	lb	zero,64(s2)
     456:	0100                	addi	s0,sp,128
     458:	0905                	addi	s2,s2,1
     45a:	0200                	addi	s0,sp,256
     45c:	0304                	addi	s1,sp,384
     45e:	0306                	slli	t1,t1,0x1
     460:	0901                	addi	s2,s2,0
     462:	0004                	0x4
     464:	0001                	nop
     466:	0402                	c.slli64	s0
     468:	09010303          	lb	t1,144(sp) # f4 <ROM_BASE-0xbfffff0c>
     46c:	0000                	unimp
     46e:	0501                	addi	a0,a0,0
     470:	0005                	c.nop	1
     472:	0402                	c.slli64	s0
     474:	09740303          	lb	t1,151(s0)
     478:	0000                	unimp
     47a:	0501                	addi	a0,a0,0
     47c:	002a                	c.slli	zero,0xa
     47e:	0402                	c.slli64	s0
     480:	01030603          	lb	a2,16(t1)
     484:	0009                	c.nop	2
     486:	0100                	addi	s0,sp,128
     488:	2305                	jal	9a8 <ROM_BASE-0xbffff658>
     48a:	0200                	addi	s0,sp,256
     48c:	0304                	addi	s1,sp,384
     48e:	04097f03          	0x4097f03
     492:	0100                	addi	s0,sp,128
     494:	1e05                	addi	t3,t3,-31
     496:	0200                	addi	s0,sp,256
     498:	0304                	addi	s1,sp,384
     49a:	04090003          	lb	zero,64(s2)
     49e:	0100                	addi	s0,sp,128
     4a0:	0200                	addi	s0,sp,256
     4a2:	0304                	addi	s1,sp,384
     4a4:	04090103          	lb	sp,64(s2)
     4a8:	0100                	addi	s0,sp,128
     4aa:	0200                	addi	s0,sp,256
     4ac:	0304                	addi	s1,sp,384
     4ae:	04097f03          	0x4097f03
     4b2:	0100                	addi	s0,sp,128
     4b4:	0505                	addi	a0,a0,1
     4b6:	0200                	addi	s0,sp,256
     4b8:	0304                	addi	s1,sp,384
     4ba:	0306                	slli	t1,t1,0x1
     4bc:	0901                	addi	s2,s2,0
     4be:	0004                	0x4
     4c0:	0501                	addi	a0,a0,0
     4c2:	001e                	c.slli	zero,0x7
     4c4:	0402                	c.slli64	s0
     4c6:	00030603          	lb	a2,0(t1)
     4ca:	0009                	c.nop	2
     4cc:	0100                	addi	s0,sp,128
     4ce:	0505                	addi	a0,a0,1
     4d0:	0200                	addi	s0,sp,256
     4d2:	0304                	addi	s1,sp,384
     4d4:	0306                	slli	t1,t1,0x1
     4d6:	0901                	addi	s2,s2,0
     4d8:	0004                	0x4
     4da:	0501                	addi	a0,a0,0
     4dc:	0009                	c.nop	2
     4de:	0402                	c.slli64	s0
     4e0:	090b0303          	lb	t1,144(s6)
     4e4:	0000                	unimp
     4e6:	0301                	addi	t1,t1,0
     4e8:	095f 0000 0501      	0x5010000095f
     4ee:	097f030b          	0x97f030b
     4f2:	0000                	unimp
     4f4:	0501                	addi	a0,a0,0
     4f6:	0612                	slli	a2,a2,0x4
     4f8:	00090003          	lb	zero,0(s2)
     4fc:	0100                	addi	s0,sp,128
     4fe:	2305                	jal	a1e <ROM_BASE-0xbffff5e2>
     500:	04090003          	lb	zero,64(s2)
     504:	0100                	addi	s0,sp,128
     506:	0b05                	addi	s6,s6,1
     508:	04090003          	lb	zero,64(s2)
     50c:	0100                	addi	s0,sp,128
     50e:	0505                	addi	a0,a0,1
     510:	0306                	slli	t1,t1,0x1
     512:	00040903          	lb	s2,0(s0)
     516:	0501                	addi	a0,a0,0
     518:	0618                	addi	a4,sp,768
     51a:	00090003          	lb	zero,0(s2)
     51e:	0100                	addi	s0,sp,128
     520:	0505                	addi	a0,a0,1
     522:	0306                	slli	t1,t1,0x1
     524:	0902                	c.slli64	s2
     526:	0004                	0x4
     528:	0501                	addi	a0,a0,0
     52a:	0309                	addi	t1,t1,2
     52c:	091e                	slli	s2,s2,0x7
     52e:	0000                	unimp
     530:	0301                	addi	t1,t1,0
     532:	095e                	slli	s2,s2,0x17
     534:	0000                	unimp
     536:	0501                	addi	a0,a0,0
     538:	097f030b          	0x97f030b
     53c:	0000                	unimp
     53e:	0501                	addi	a0,a0,0
     540:	0612                	slli	a2,a2,0x4
     542:	00090003          	lb	zero,0(s2)
     546:	0100                	addi	s0,sp,128
     548:	2305                	jal	a68 <ROM_BASE-0xbffff598>
     54a:	04090003          	lb	zero,64(s2)
     54e:	0100                	addi	s0,sp,128
     550:	0b05                	addi	s6,s6,1
     552:	04090003          	lb	zero,64(s2)
     556:	0100                	addi	s0,sp,128
     558:	0505                	addi	a0,a0,1
     55a:	0306                	slli	t1,t1,0x1
     55c:	00040903          	lb	s2,0(s0)
     560:	0501                	addi	a0,a0,0
     562:	0618                	addi	a4,sp,768
     564:	00090003          	lb	zero,0(s2)
     568:	0100                	addi	s0,sp,128
     56a:	0505                	addi	a0,a0,1
     56c:	0306                	slli	t1,t1,0x1
     56e:	0902                	c.slli64	s2
     570:	0004                	0x4
     572:	0501                	addi	a0,a0,0
     574:	0319                	addi	t1,t1,6
     576:	0918                	addi	a4,sp,144
     578:	0000                	unimp
     57a:	0501                	addi	a0,a0,0
     57c:	0311                	addi	t1,t1,4
     57e:	0900                	addi	s0,sp,144
     580:	0000                	unimp
     582:	0501                	addi	a0,a0,0
     584:	0605                	addi	a2,a2,1
     586:	00090003          	lb	zero,0(s2)
     58a:	0100                	addi	s0,sp,128
     58c:	0105                	addi	sp,sp,1
     58e:	08090803          	lb	a6,128(s2)
     592:	0100                	addi	s0,sp,128
     594:	0306                	slli	t1,t1,0x1
     596:	00040903          	lb	s2,0(s0)
     59a:	0501                	addi	a0,a0,0
     59c:	0305                	addi	t1,t1,1
     59e:	0901                	addi	s2,s2,0
     5a0:	0000                	unimp
     5a2:	0301                	addi	t1,t1,0
     5a4:	0901                	addi	s2,s2,0
     5a6:	0000                	unimp
     5a8:	0501                	addi	a0,a0,0
     5aa:	0311                	addi	t1,t1,4
     5ac:	0900                	addi	s0,sp,144
     5ae:	0000                	unimp
     5b0:	0501                	addi	a0,a0,0
     5b2:	0612                	slli	a2,a2,0x4
     5b4:	00095603          	lhu	a2,0(s2)
     5b8:	0100                	addi	s0,sp,128
     5ba:	1d05                	addi	s10,s10,-31
     5bc:	14092c03          	lw	s8,320(s2)
     5c0:	0100                	addi	s0,sp,128
     5c2:	0505                	addi	a0,a0,1
     5c4:	08097e03          	0x8097e03
     5c8:	0100                	addi	s0,sp,128
     5ca:	0905                	addi	s2,s2,1
     5cc:	0200                	addi	s0,sp,256
     5ce:	0304                	addi	s1,sp,384
     5d0:	0306                	slli	t1,t1,0x1
     5d2:	0902                	c.slli64	s2
     5d4:	0004                	0x4
     5d6:	0501                	addi	a0,a0,0
     5d8:	001d                	c.nop	7
     5da:	0402                	c.slli64	s0
     5dc:	00030603          	lb	a2,0(t1)
     5e0:	0009                	c.nop	2
     5e2:	0100                	addi	s0,sp,128
     5e4:	1105                	addi	sp,sp,-31
     5e6:	0200                	addi	s0,sp,256
     5e8:	0304                	addi	s1,sp,384
     5ea:	0c090003          	lb	zero,192(s2)
     5ee:	0100                	addi	s0,sp,128
     5f0:	0905                	addi	s2,s2,1
     5f2:	0200                	addi	s0,sp,256
     5f4:	0304                	addi	s1,sp,384
     5f6:	0306                	slli	t1,t1,0x1
     5f8:	0901                	addi	s2,s2,0
     5fa:	0004                	0x4
     5fc:	0001                	nop
     5fe:	0402                	c.slli64	s0
     600:	09010303          	lb	t1,144(sp)
     604:	0000                	unimp
     606:	0501                	addi	a0,a0,0
     608:	0005                	c.nop	1
     60a:	0402                	c.slli64	s0
     60c:	09670303          	lb	t1,150(a4) # 1a096 <ROM_BASE-0xbffe5f6a>
     610:	0000                	unimp
     612:	0501                	addi	a0,a0,0
     614:	002a                	c.slli	zero,0xa
     616:	0402                	c.slli64	s0
     618:	01030603          	lb	a2,16(t1)
     61c:	0009                	c.nop	2
     61e:	0100                	addi	s0,sp,128
     620:	2305                	jal	b40 <ROM_BASE-0xbffff4c0>
     622:	0200                	addi	s0,sp,256
     624:	0304                	addi	s1,sp,384
     626:	04097f03          	0x4097f03
     62a:	0100                	addi	s0,sp,128
     62c:	1e05                	addi	t3,t3,-31
     62e:	0200                	addi	s0,sp,256
     630:	0304                	addi	s1,sp,384
     632:	04090003          	lb	zero,64(s2)
     636:	0100                	addi	s0,sp,128
     638:	0200                	addi	s0,sp,256
     63a:	0304                	addi	s1,sp,384
     63c:	04090103          	lb	sp,64(s2)
     640:	0100                	addi	s0,sp,128
     642:	0200                	addi	s0,sp,256
     644:	0304                	addi	s1,sp,384
     646:	04097f03          	0x4097f03
     64a:	0100                	addi	s0,sp,128
     64c:	0505                	addi	a0,a0,1
     64e:	0200                	addi	s0,sp,256
     650:	0304                	addi	s1,sp,384
     652:	0306                	slli	t1,t1,0x1
     654:	0901                	addi	s2,s2,0
     656:	0004                	0x4
     658:	0501                	addi	a0,a0,0
     65a:	001e                	c.slli	zero,0x7
     65c:	0402                	c.slli64	s0
     65e:	00030603          	lb	a2,0(t1)
     662:	0009                	c.nop	2
     664:	0100                	addi	s0,sp,128
     666:	0505                	addi	a0,a0,1
     668:	0200                	addi	s0,sp,256
     66a:	0304                	addi	s1,sp,384
     66c:	0306                	slli	t1,t1,0x1
     66e:	0901                	addi	s2,s2,0
     670:	0004                	0x4
     672:	0501                	addi	a0,a0,0
     674:	0009                	c.nop	2
     676:	0402                	c.slli64	s0
     678:	09180303          	lb	t1,145(a6)
     67c:	0000                	unimp
     67e:	0301                	addi	t1,t1,0
     680:	0952                	slli	s2,s2,0x14
     682:	0000                	unimp
     684:	0501                	addi	a0,a0,0
     686:	097f030b          	0x97f030b
     68a:	0000                	unimp
     68c:	0501                	addi	a0,a0,0
     68e:	0612                	slli	a2,a2,0x4
     690:	00090003          	lb	zero,0(s2)
     694:	0100                	addi	s0,sp,128
     696:	2305                	jal	bb6 <ROM_BASE-0xbffff44a>
     698:	04090003          	lb	zero,64(s2)
     69c:	0100                	addi	s0,sp,128
     69e:	0b05                	addi	s6,s6,1
     6a0:	04090003          	lb	zero,64(s2)
     6a4:	0100                	addi	s0,sp,128
     6a6:	0505                	addi	a0,a0,1
     6a8:	0306                	slli	t1,t1,0x1
     6aa:	00040903          	lb	s2,0(s0)
     6ae:	0501                	addi	a0,a0,0
     6b0:	0618                	addi	a4,sp,768
     6b2:	00090003          	lb	zero,0(s2)
     6b6:	0100                	addi	s0,sp,128
     6b8:	0505                	addi	a0,a0,1
     6ba:	0306                	slli	t1,t1,0x1
     6bc:	0902                	c.slli64	s2
     6be:	0004                	0x4
     6c0:	0501                	addi	a0,a0,0
     6c2:	0309                	addi	t1,t1,2
     6c4:	0000092b          	0x92b
     6c8:	0301                	addi	t1,t1,0
     6ca:	0951                	addi	s2,s2,20
     6cc:	0000                	unimp
     6ce:	0501                	addi	a0,a0,0
     6d0:	097f030b          	0x97f030b
     6d4:	0000                	unimp
     6d6:	0501                	addi	a0,a0,0
     6d8:	0612                	slli	a2,a2,0x4
     6da:	00090003          	lb	zero,0(s2)
     6de:	0100                	addi	s0,sp,128
     6e0:	2305                	jal	c00 <ROM_BASE-0xbffff400>
     6e2:	04090003          	lb	zero,64(s2)
     6e6:	0100                	addi	s0,sp,128
     6e8:	0b05                	addi	s6,s6,1
     6ea:	04090003          	lb	zero,64(s2)
     6ee:	0100                	addi	s0,sp,128
     6f0:	0505                	addi	a0,a0,1
     6f2:	0306                	slli	t1,t1,0x1
     6f4:	00040903          	lb	s2,0(s0)
     6f8:	0501                	addi	a0,a0,0
     6fa:	0618                	addi	a4,sp,768
     6fc:	00090003          	lb	zero,0(s2)
     700:	0100                	addi	s0,sp,128
     702:	0505                	addi	a0,a0,1
     704:	0306                	slli	t1,t1,0x1
     706:	0902                	c.slli64	s2
     708:	0004                	0x4
     70a:	0501                	addi	a0,a0,0
     70c:	0319                	addi	t1,t1,6
     70e:	0925                	addi	s2,s2,9
     710:	0000                	unimp
     712:	0501                	addi	a0,a0,0
     714:	0311                	addi	t1,t1,4
     716:	0900                	addi	s0,sp,144
     718:	0000                	unimp
     71a:	0501                	addi	a0,a0,0
     71c:	0605                	addi	a2,a2,1
     71e:	00090003          	lb	zero,0(s2)
     722:	0100                	addi	s0,sp,128
     724:	0105                	addi	sp,sp,1
     726:	08090803          	lb	a6,128(s2)
     72a:	0100                	addi	s0,sp,128
     72c:	1d05                	addi	s10,s10,-31
     72e:	0200                	addi	s0,sp,256
     730:	0304                	addi	s1,sp,384
     732:	04097a03          	0x4097a03
     736:	0100                	addi	s0,sp,128
     738:	0105                	addi	sp,sp,1
     73a:	0306                	slli	t1,t1,0x1
     73c:	0909                	addi	s2,s2,2
     73e:	0014                	0x14
     740:	0501                	addi	a0,a0,0
     742:	0305                	addi	t1,t1,1
     744:	0901                	addi	s2,s2,0
     746:	0000                	unimp
     748:	0301                	addi	t1,t1,0
     74a:	0901                	addi	s2,s2,0
     74c:	0000                	unimp
     74e:	0301                	addi	t1,t1,0
     750:	095e                	slli	s2,s2,0x17
     752:	0000                	unimp
     754:	0501                	addi	a0,a0,0
     756:	061e                	slli	a2,a2,0x7
     758:	00090003          	lb	zero,0(s2)
     75c:	0100                	addi	s0,sp,128
     75e:	2305                	jal	c7e <ROM_BASE-0xbffff382>
     760:	08090003          	lb	zero,128(s2)
     764:	0100                	addi	s0,sp,128
     766:	2a05                	jal	896 <ROM_BASE-0xbffff76a>
     768:	04090103          	lb	sp,64(s2)
     76c:	0100                	addi	s0,sp,128
     76e:	1e05                	addi	t3,t3,-31
     770:	04097f03          	0x4097f03
     774:	0100                	addi	s0,sp,128
     776:	04090103          	lb	sp,64(s2)
     77a:	0100                	addi	s0,sp,128
     77c:	1205                	addi	tp,tp,-31
     77e:	08096a03          	0x8096a03
     782:	0100                	addi	s0,sp,128
     784:	1e05                	addi	t3,t3,-31
     786:	04091503          	lh	a0,64(s2)
     78a:	0100                	addi	s0,sp,128
     78c:	0505                	addi	a0,a0,1
     78e:	0306                	slli	t1,t1,0x1
     790:	0901                	addi	s2,s2,0
     792:	0004                	0x4
     794:	0301                	addi	t1,t1,0
     796:	0901                	addi	s2,s2,0
     798:	0000                	unimp
     79a:	0301                	addi	t1,t1,0
     79c:	0921                	addi	s2,s2,8
     79e:	0000                	unimp
     7a0:	0501                	addi	a0,a0,0
     7a2:	0612                	slli	a2,a2,0x4
     7a4:	00094803          	lbu	a6,0(s2)
     7a8:	0100                	addi	s0,sp,128
     7aa:	0905                	addi	s2,s2,1
     7ac:	0306                	slli	t1,t1,0x1
     7ae:	0901                	addi	s2,s2,0
     7b0:	0004                	0x4
     7b2:	0501                	addi	a0,a0,0
     7b4:	097f030b          	0x97f030b
     7b8:	0000                	unimp
     7ba:	0501                	addi	a0,a0,0
     7bc:	0612                	slli	a2,a2,0x4
     7be:	00090003          	lb	zero,0(s2)
     7c2:	0100                	addi	s0,sp,128
     7c4:	2305                	jal	ce4 <ROM_BASE-0xbffff31c>
     7c6:	04090003          	lb	zero,64(s2)
     7ca:	0100                	addi	s0,sp,128
     7cc:	0b05                	addi	s6,s6,1
     7ce:	04090003          	lb	zero,64(s2)
     7d2:	0100                	addi	s0,sp,128
     7d4:	0505                	addi	a0,a0,1
     7d6:	0306                	slli	t1,t1,0x1
     7d8:	00040903          	lb	s2,0(s0)
     7dc:	0501                	addi	a0,a0,0
     7de:	0618                	addi	a4,sp,768
     7e0:	00090003          	lb	zero,0(s2)
     7e4:	0100                	addi	s0,sp,128
     7e6:	0505                	addi	a0,a0,1
     7e8:	0306                	slli	t1,t1,0x1
     7ea:	0902                	c.slli64	s2
     7ec:	0004                	0x4
     7ee:	0301                	addi	t1,t1,0
     7f0:	0934                	addi	a3,sp,152
     7f2:	0000                	unimp
     7f4:	0501                	addi	a0,a0,0
     7f6:	0309                	addi	t1,t1,2
     7f8:	0948                	addi	a0,sp,148
     7fa:	0000                	unimp
     7fc:	0501                	addi	a0,a0,0
     7fe:	097f030b          	0x97f030b
     802:	0000                	unimp
     804:	0501                	addi	a0,a0,0
     806:	0612                	slli	a2,a2,0x4
     808:	00090003          	lb	zero,0(s2)
     80c:	0100                	addi	s0,sp,128
     80e:	2305                	jal	d2e <ROM_BASE-0xbffff2d2>
     810:	04090003          	lb	zero,64(s2)
     814:	0100                	addi	s0,sp,128
     816:	0b05                	addi	s6,s6,1
     818:	04090003          	lb	zero,64(s2)
     81c:	0100                	addi	s0,sp,128
     81e:	0505                	addi	a0,a0,1
     820:	0306                	slli	t1,t1,0x1
     822:	00040903          	lb	s2,0(s0)
     826:	0501                	addi	a0,a0,0
     828:	0618                	addi	a4,sp,768
     82a:	00090003          	lb	zero,0(s2)
     82e:	0100                	addi	s0,sp,128
     830:	0505                	addi	a0,a0,1
     832:	0306                	slli	t1,t1,0x1
     834:	0902                	c.slli64	s2
     836:	0004                	0x4
     838:	0501                	addi	a0,a0,0
     83a:	0601                	addi	a2,a2,0
     83c:	00093503          	0x93503
     840:	0100                	addi	s0,sp,128
     842:	0409                	addi	s0,s0,2
     844:	0000                	unimp
     846:	0101                	addi	sp,sp,0
     848:	07e5                	addi	a5,a5,25
     84a:	0000                	unimp
     84c:	00a50003          	lb	zero,10(a0) # fffeb00a <_BSS_END_+0x3ffe9cca>
     850:	0000                	unimp
     852:	0101                	addi	sp,sp,0
     854:	000d0efb          	0xd0efb
     858:	0101                	addi	sp,sp,0
     85a:	0101                	addi	sp,sp,0
     85c:	0000                	unimp
     85e:	0100                	addi	s0,sp,128
     860:	0000                	unimp
     862:	7301                	lui	t1,0xfffe0
     864:	6372                	flw	ft6,28(sp)
     866:	2f00                	fld	fs0,24(a4)
     868:	2f74706f          	j	4835e <ROM_BASE-0xbffb7ca2>
     86c:	6972                	flw	fs2,28(sp)
     86e:	2f766373          	csrrsi	t1,0x2f7,12
     872:	6972                	flw	fs2,28(sp)
     874:	36766373          	csrrsi	t1,0x367,12
     878:	2d34                	fld	fa3,88(a0)
     87a:	6e75                	lui	t3,0x1d
     87c:	776f6e6b          	0x776f6e6b
     880:	2d6e                	fld	fs10,216(sp)
     882:	6c65                	lui	s8,0x19
     884:	2f66                	fld	ft10,88(sp)
     886:	6e69                	lui	t3,0x1a
     888:	64756c63          	bltu	a0,t2,ee0 <ROM_BASE-0xbffff120>
     88c:	2f65                	jal	1044 <ROM_BASE-0xbfffefbc>
     88e:	616d                	addi	sp,sp,240
     890:	6e696863          	bltu	s2,t1,f80 <ROM_BASE-0xbffff080>
     894:	0065                	c.nop	25
     896:	74706f2f          	0x74706f2f
     89a:	7369722f          	0x7369722f
     89e:	722f7663          	bgeu	t5,sp,fca <ROM_BASE-0xbffff036>
     8a2:	7369                	lui	t1,0xffffa
     8a4:	34367663          	bgeu	a2,gp,bf0 <ROM_BASE-0xbffff410>
     8a8:	752d                	lui	a0,0xfffeb
     8aa:	6b6e                	flw	fs6,216(sp)
     8ac:	6f6e                	flw	ft10,216(sp)
     8ae:	652d6e77          	0x652d6e77
     8b2:	666c                	flw	fa1,76(a2)
     8b4:	636e692f          	0x636e692f
     8b8:	756c                	flw	fa1,108(a0)
     8ba:	6564                	flw	fs1,76(a0)
     8bc:	7379732f          	0x7379732f
     8c0:	0000                	unimp
     8c2:	2e697073          	csrci	0x2e6,18
     8c6:	00010063          	beqz	sp,8c6 <ROM_BASE-0xbffff73a>
     8ca:	5f00                	lw	s0,56(a4)
     8cc:	6564                	flw	fs1,76(a0)
     8ce:	6166                	flw	ft2,88(sp)
     8d0:	6c75                	lui	s8,0x1d
     8d2:	5f74                	lw	a3,124(a4)
     8d4:	7974                	flw	fa3,116(a0)
     8d6:	6570                	flw	fa2,76(a0)
     8d8:	00682e73          	csrrs	t3,0x6,a6
     8dc:	0002                	c.slli64	zero
     8de:	5f00                	lw	s0,56(a4)
     8e0:	69647473          	csrrci	s0,0x696,8
     8e4:	746e                	flw	fs0,248(sp)
     8e6:	682e                	flw	fa6,200(sp)
     8e8:	0300                	addi	s0,sp,384
     8ea:	0000                	unimp
     8ec:	6175                	addi	sp,sp,368
     8ee:	7472                	flw	fs0,60(sp)
     8f0:	682e                	flw	fa6,200(sp)
     8f2:	0100                	addi	s0,sp,128
     8f4:	0000                	unimp
     8f6:	0500                	addi	s0,sp,640
     8f8:	0001                	nop
     8fa:	0205                	addi	tp,tp,1
     8fc:	01e8                	addi	a0,sp,204
     8fe:	c000                	sw	s0,0(s0)
     900:	03050517          	auipc	a0,0x3050
     904:	0901                	addi	s2,s2,0
     906:	0000                	unimp
     908:	0301                	addi	t1,t1,0
     90a:	0901                	addi	s2,s2,0
     90c:	0000                	unimp
     90e:	0501                	addi	a0,a0,0
     910:	0003060f          	0x3060f
     914:	0009                	c.nop	2
     916:	0100                	addi	s0,sp,128
     918:	0105                	addi	sp,sp,1
     91a:	04090103          	lb	sp,64(s2)
     91e:	0100                	addi	s0,sp,128
     920:	0306                	slli	t1,t1,0x1
     922:	00040903          	lb	s2,0(s0)
     926:	0501                	addi	a0,a0,0
     928:	0305                	addi	t1,t1,1
     92a:	0901                	addi	s2,s2,0
     92c:	0000                	unimp
     92e:	0501                	addi	a0,a0,0
     930:	060c                	addi	a1,sp,768
     932:	00090003          	lb	zero,0(s2)
     936:	0100                	addi	s0,sp,128
     938:	0105                	addi	sp,sp,1
     93a:	04090103          	lb	sp,64(s2)
     93e:	0100                	addi	s0,sp,128
     940:	0306                	slli	t1,t1,0x1
     942:	00040903          	lb	s2,0(s0)
     946:	0501                	addi	a0,a0,0
     948:	0305                	addi	t1,t1,1
     94a:	0901                	addi	s2,s2,0
     94c:	0000                	unimp
     94e:	0501                	addi	a0,a0,0
     950:	0601                	addi	a2,a2,0
     952:	04097f03          	0x4097f03
     956:	0100                	addi	s0,sp,128
     958:	0505                	addi	a0,a0,1
     95a:	04090103          	lb	sp,64(s2)
     95e:	0100                	addi	s0,sp,128
     960:	0105                	addi	sp,sp,1
     962:	04097f03          	0x4097f03
     966:	0100                	addi	s0,sp,128
     968:	0505                	addi	a0,a0,1
     96a:	0c090103          	lb	sp,192(s2)
     96e:	0100                	addi	s0,sp,128
     970:	0306                	slli	t1,t1,0x1
     972:	00040903          	lb	s2,0(s0)
     976:	0301                	addi	t1,t1,0
     978:	0972                	slli	s2,s2,0x1c
     97a:	0000                	unimp
     97c:	0301                	addi	t1,t1,0
     97e:	0901                	addi	s2,s2,0
     980:	0000                	unimp
     982:	0501                	addi	a0,a0,0
     984:	0003060f          	0x3060f
     988:	0009                	c.nop	2
     98a:	0100                	addi	s0,sp,128
     98c:	0505                	addi	a0,a0,1
     98e:	0306                	slli	t1,t1,0x1
     990:	000c090f          	0xc090f
     994:	0501                	addi	a0,a0,0
     996:	030a                	slli	t1,t1,0x2
     998:	0900                	addi	s0,sp,144
     99a:	0000                	unimp
     99c:	0501                	addi	a0,a0,0
     99e:	0315                	addi	t1,t1,5
     9a0:	0900                	addi	s0,sp,144
     9a2:	0000                	unimp
     9a4:	0501                	addi	a0,a0,0
     9a6:	7103060f          	0x7103060f
     9aa:	0009                	c.nop	2
     9ac:	0100                	addi	s0,sp,128
     9ae:	0905                	addi	s2,s2,1
     9b0:	0200                	addi	s0,sp,256
     9b2:	0304                	addi	s1,sp,384
     9b4:	0306                	slli	t1,t1,0x1
     9b6:	0911                	addi	s2,s2,4
     9b8:	0004                	0x4
     9ba:	0501                	addi	a0,a0,0
     9bc:	001d                	c.nop	7
     9be:	0402                	c.slli64	s0
     9c0:	097e0303          	lb	t1,151(t3) # 1a097 <ROM_BASE-0xbffe5f69>
     9c4:	0004                	0x4
     9c6:	0501                	addi	a0,a0,0
     9c8:	0015                	c.nop	5
     9ca:	0402                	c.slli64	s0
     9cc:	09000303          	lb	t1,144(zero) # 90 <ROM_BASE-0xbfffff70>
     9d0:	0000                	unimp
     9d2:	0501                	addi	a0,a0,0
     9d4:	0005                	c.nop	1
     9d6:	0402                	c.slli64	s0
     9d8:	00030603          	lb	a2,0(t1) # ffffa000 <_BSS_END_+0x3fff8cc0>
     9dc:	0009                	c.nop	2
     9de:	0100                	addi	s0,sp,128
     9e0:	0306                	slli	t1,t1,0x1
     9e2:	0906                	slli	s2,s2,0x1
     9e4:	0008                	0x8
     9e6:	0301                	addi	t1,t1,0
     9e8:	096a                	slli	s2,s2,0x1a
     9ea:	0000                	unimp
     9ec:	0301                	addi	t1,t1,0
     9ee:	0901                	addi	s2,s2,0
     9f0:	0000                	unimp
     9f2:	0501                	addi	a0,a0,0
     9f4:	0003060f          	0x3060f
     9f8:	0009                	c.nop	2
     9fa:	0100                	addi	s0,sp,128
     9fc:	0505                	addi	a0,a0,1
     9fe:	0306                	slli	t1,t1,0x1
     a00:	000c0917          	auipc	s2,0xc0
     a04:	0301                	addi	t1,t1,0
     a06:	096e                	slli	s2,s2,0x1b
     a08:	0000                	unimp
     a0a:	0501                	addi	a0,a0,0
     a0c:	060c                	addi	a1,sp,768
     a0e:	00090003          	lb	zero,0(s2) # c0a00 <ROM_BASE-0xbff3f600>
     a12:	0100                	addi	s0,sp,128
     a14:	0505                	addi	a0,a0,1
     a16:	0306                	slli	t1,t1,0x1
     a18:	00040913          	mv	s2,s0
     a1c:	0301                	addi	t1,t1,0
     a1e:	0901                	addi	s2,s2,0
     a20:	000c                	0xc
     a22:	0301                	addi	t1,t1,0
     a24:	0901                	addi	s2,s2,0
     a26:	000c                	0xc
     a28:	0301                	addi	t1,t1,0
     a2a:	000c0903          	lb	s2,0(s8) # 1d000 <ROM_BASE-0xbffe3000>
     a2e:	0301                	addi	t1,t1,0
     a30:	0962                	slli	s2,s2,0x18
     a32:	0000                	unimp
     a34:	0301                	addi	t1,t1,0
     a36:	0901                	addi	s2,s2,0
     a38:	0000                	unimp
     a3a:	0501                	addi	a0,a0,0
     a3c:	0003060f          	0x3060f
     a40:	0009                	c.nop	2
     a42:	0100                	addi	s0,sp,128
     a44:	0505                	addi	a0,a0,1
     a46:	0306                	slli	t1,t1,0x1
     a48:	091f 0008 0301      	0x3010008091f
     a4e:	0966                	slli	s2,s2,0x19
     a50:	0000                	unimp
     a52:	0501                	addi	a0,a0,0
     a54:	060c                	addi	a1,sp,768
     a56:	00090003          	lb	zero,0(s2)
     a5a:	0100                	addi	s0,sp,128
     a5c:	0505                	addi	a0,a0,1
     a5e:	0306                	slli	t1,t1,0x1
     a60:	0004091b          	0x4091b
     a64:	0301                	addi	t1,t1,0
     a66:	0901                	addi	s2,s2,0
     a68:	000c                	0xc
     a6a:	0301                	addi	t1,t1,0
     a6c:	0901                	addi	s2,s2,0
     a6e:	000c                	0xc
     a70:	0301                	addi	t1,t1,0
     a72:	0902                	c.slli64	s2
     a74:	000c                	0xc
     a76:	0301                	addi	t1,t1,0
     a78:	0000095b          	0x95b
     a7c:	0301                	addi	t1,t1,0
     a7e:	0901                	addi	s2,s2,0
     a80:	0000                	unimp
     a82:	0501                	addi	a0,a0,0
     a84:	0003060f          	0x3060f
     a88:	0009                	c.nop	2
     a8a:	0100                	addi	s0,sp,128
     a8c:	0505                	addi	a0,a0,1
     a8e:	0306                	slli	t1,t1,0x1
     a90:	0926                	slli	s2,s2,0x9
     a92:	0008                	0x8
     a94:	0501                	addi	a0,a0,0
     a96:	0601                	addi	a2,a2,0
     a98:	00090103          	lb	sp,0(s2)
     a9c:	0100                	addi	s0,sp,128
     a9e:	0505                	addi	a0,a0,1
     aa0:	0c097f03          	0xc097f03
     aa4:	0100                	addi	s0,sp,128
     aa6:	0105                	addi	sp,sp,1
     aa8:	04090103          	lb	sp,64(s2)
     aac:	0100                	addi	s0,sp,128
     aae:	0505                	addi	a0,a0,1
     ab0:	00097f03          	0x97f03
     ab4:	0100                	addi	s0,sp,128
     ab6:	0105                	addi	sp,sp,1
     ab8:	04090103          	lb	sp,64(s2)
     abc:	0100                	addi	s0,sp,128
     abe:	0505                	addi	a0,a0,1
     ac0:	04097f03          	0x4097f03
     ac4:	0100                	addi	s0,sp,128
     ac6:	0105                	addi	sp,sp,1
     ac8:	0306                	slli	t1,t1,0x1
     aca:	0904                	addi	s1,sp,144
     acc:	0004                	0x4
     ace:	0501                	addi	a0,a0,0
     ad0:	0305                	addi	t1,t1,1
     ad2:	0902                	c.slli64	s2
     ad4:	0000                	unimp
     ad6:	0301                	addi	t1,t1,0
     ad8:	00000953          	fadd.s	fs2,ft0,ft0,rne
     adc:	0301                	addi	t1,t1,0
     ade:	0901                	addi	s2,s2,0
     ae0:	0000                	unimp
     ae2:	0501                	addi	a0,a0,0
     ae4:	0601                	addi	a2,a2,0
     ae6:	00092a03          	lw	s4,0(s2)
     aea:	0100                	addi	s0,sp,128
     aec:	0f05                	addi	t5,t5,1
     aee:	04095603          	lhu	a2,64(s2)
     af2:	0100                	addi	s0,sp,128
     af4:	0105                	addi	sp,sp,1
     af6:	04092a03          	lw	s4,64(s2)
     afa:	0100                	addi	s0,sp,128
     afc:	0f05                	addi	t5,t5,1
     afe:	0c095603          	lhu	a2,192(s2)
     b02:	0100                	addi	s0,sp,128
     b04:	0505                	addi	a0,a0,1
     b06:	0306                	slli	t1,t1,0x1
     b08:	092e                	slli	s2,s2,0xb
     b0a:	0008                	0x8
     b0c:	0301                	addi	t1,t1,0
     b0e:	0951                	addi	s2,s2,20
     b10:	0000                	unimp
     b12:	0301                	addi	t1,t1,0
     b14:	0901                	addi	s2,s2,0
     b16:	0000                	unimp
     b18:	0501                	addi	a0,a0,0
     b1a:	0003060f          	0x3060f
     b1e:	0009                	c.nop	2
     b20:	0100                	addi	s0,sp,128
     b22:	0505                	addi	a0,a0,1
     b24:	0306                	slli	t1,t1,0x1
     b26:	0930                	addi	a2,sp,152
     b28:	0004                	0x4
     b2a:	0501                	addi	a0,a0,0
     b2c:	030a                	slli	t1,t1,0x2
     b2e:	0900                	addi	s0,sp,144
     b30:	0000                	unimp
     b32:	0501                	addi	a0,a0,0
     b34:	0315                	addi	t1,t1,5
     b36:	0900                	addi	s0,sp,144
     b38:	0000                	unimp
     b3a:	0501                	addi	a0,a0,0
     b3c:	5003060f          	0x5003060f
     b40:	0009                	c.nop	2
     b42:	0100                	addi	s0,sp,128
     b44:	0905                	addi	s2,s2,1
     b46:	0200                	addi	s0,sp,256
     b48:	0304                	addi	s1,sp,384
     b4a:	0306                	slli	t1,t1,0x1
     b4c:	0932                	slli	s2,s2,0xc
     b4e:	0008                	0x8
     b50:	0501                	addi	a0,a0,0
     b52:	001f 0402 0303      	0x3030402001f
     b58:	097e                	slli	s2,s2,0x1f
     b5a:	0004                	0x4
     b5c:	0501                	addi	a0,a0,0
     b5e:	0015                	c.nop	5
     b60:	0402                	c.slli64	s0
     b62:	09000303          	lb	t1,144(zero) # 90 <ROM_BASE-0xbfffff70>
     b66:	0000                	unimp
     b68:	0501                	addi	a0,a0,0
     b6a:	0005                	c.nop	1
     b6c:	0402                	c.slli64	s0
     b6e:	00030603          	lb	a2,0(t1)
     b72:	0009                	c.nop	2
     b74:	0100                	addi	s0,sp,128
     b76:	0306                	slli	t1,t1,0x1
     b78:	00080907          	0x80907
     b7c:	0301                	addi	t1,t1,0
     b7e:	0948                	addi	a0,sp,148
     b80:	0000                	unimp
     b82:	0301                	addi	t1,t1,0
     b84:	0901                	addi	s2,s2,0
     b86:	0000                	unimp
     b88:	0501                	addi	a0,a0,0
     b8a:	0003060f          	0x3060f
     b8e:	0009                	c.nop	2
     b90:	0100                	addi	s0,sp,128
     b92:	0c05                	addi	s8,s8,1
     b94:	0c090503          	lb	a0,192(s2)
     b98:	0100                	addi	s0,sp,128
     b9a:	0905                	addi	s2,s2,1
     b9c:	0200                	addi	s0,sp,256
     b9e:	0104                	addi	s1,sp,128
     ba0:	0306                	slli	t1,t1,0x1
     ba2:	0935                	addi	s2,s2,13
     ba4:	0004                	0x4
     ba6:	0501                	addi	a0,a0,0
     ba8:	0402000b          	0x402000b
     bac:	0301                	addi	t1,t1,0
     bae:	097f                	0x97f
     bb0:	0000                	unimp
     bb2:	0501                	addi	a0,a0,0
     bb4:	0005                	c.nop	1
     bb6:	0402                	c.slli64	s0
     bb8:	0301                	addi	t1,t1,0
     bba:	094c                	addi	a1,sp,148
     bbc:	0000                	unimp
     bbe:	0501                	addi	a0,a0,0
     bc0:	000c                	0xc
     bc2:	0402                	c.slli64	s0
     bc4:	0601                	addi	a2,a2,0
     bc6:	00090003          	lb	zero,0(s2)
     bca:	0100                	addi	s0,sp,128
     bcc:	2605                	jal	eec <ROM_BASE-0xbffff114>
     bce:	0200                	addi	s0,sp,256
     bd0:	0104                	addi	s1,sp,128
     bd2:	08093403          	0x8093403
     bd6:	0100                	addi	s0,sp,128
     bd8:	0b05                	addi	s6,s6,1
     bda:	0200                	addi	s0,sp,256
     bdc:	0104                	addi	s1,sp,128
     bde:	04090003          	lb	zero,64(s2)
     be2:	0100                	addi	s0,sp,128
     be4:	0505                	addi	a0,a0,1
     be6:	0306                	slli	t1,t1,0x1
     be8:	00040903          	lb	s2,0(s0)
     bec:	0301                	addi	t1,t1,0
     bee:	0949                	addi	s2,s2,18
     bf0:	0000                	unimp
     bf2:	0501                	addi	a0,a0,0
     bf4:	060c                	addi	a1,sp,768
     bf6:	00090003          	lb	zero,0(s2)
     bfa:	0100                	addi	s0,sp,128
     bfc:	0505                	addi	a0,a0,1
     bfe:	0306                	slli	t1,t1,0x1
     c00:	0939                	addi	s2,s2,14
     c02:	0004                	0x4
     c04:	0301                	addi	t1,t1,0
     c06:	00000947          	fmsub.s	fs2,ft0,ft0,ft0,rne
     c0a:	0501                	addi	a0,a0,0
     c0c:	060c                	addi	a1,sp,768
     c0e:	00090003          	lb	zero,0(s2)
     c12:	0100                	addi	s0,sp,128
     c14:	2305                	jal	1134 <ROM_BASE-0xbfffeecc>
     c16:	04093903          	0x4093903
     c1a:	0100                	addi	s0,sp,128
     c1c:	0805                	addi	a6,a6,1
     c1e:	04090003          	lb	zero,64(s2)
     c22:	0100                	addi	s0,sp,128
     c24:	0505                	addi	a0,a0,1
     c26:	0306                	slli	t1,t1,0x1
     c28:	0908                	addi	a0,sp,144
     c2a:	0004                	0x4
     c2c:	0301                	addi	t1,t1,0
     c2e:	7fb9                	lui	t6,0xfffee
     c30:	0009                	c.nop	2
     c32:	0100                	addi	s0,sp,128
     c34:	00090103          	lb	sp,0(s2)
     c38:	0100                	addi	s0,sp,128
     c3a:	0105                	addi	sp,sp,1
     c3c:	0306                	slli	t1,t1,0x1
     c3e:	00cc                	addi	a1,sp,68
     c40:	0009                	c.nop	2
     c42:	0100                	addi	s0,sp,128
     c44:	0f05                	addi	t5,t5,1
     c46:	097fb403          	0x97fb403
     c4a:	0008                	0x8
     c4c:	0501                	addi	a0,a0,0
     c4e:	0605                	addi	a2,a2,1
     c50:	0900c903          	lbu	s2,144(ra)
     c54:	000c                	0xc
     c56:	0301                	addi	t1,t1,0
     c58:	7fb6                	flw	ft11,108(sp)
     c5a:	0009                	c.nop	2
     c5c:	0100                	addi	s0,sp,128
     c5e:	00090103          	lb	sp,0(s2)
     c62:	0100                	addi	s0,sp,128
     c64:	0f05                	addi	t5,t5,1
     c66:	0306                	slli	t1,t1,0x1
     c68:	0900                	addi	s0,sp,144
     c6a:	0000                	unimp
     c6c:	0501                	addi	a0,a0,0
     c6e:	0605                	addi	a2,a2,1
     c70:	0900cb03          	lbu	s6,144(ra)
     c74:	0008                	0x8
     c76:	0501                	addi	a0,a0,0
     c78:	0601                	addi	a2,a2,0
     c7a:	00090103          	lb	sp,0(s2)
     c7e:	0100                	addi	s0,sp,128
     c80:	0905                	addi	s2,s2,1
     c82:	0306                	slli	t1,t1,0x1
     c84:	0974                	addi	a3,sp,156
     c86:	0010                	0x10
     c88:	0301                	addi	t1,t1,0
     c8a:	0901                	addi	s2,s2,0
     c8c:	000c                	0xc
     c8e:	0501                	addi	a0,a0,0
     c90:	0305                	addi	t1,t1,1
     c92:	0944                	addi	s1,sp,148
     c94:	0000                	unimp
     c96:	0501                	addi	a0,a0,0
     c98:	060c                	addi	a1,sp,768
     c9a:	00090003          	lb	zero,0(s2)
     c9e:	0100                	addi	s0,sp,128
     ca0:	0905                	addi	s2,s2,1
     ca2:	04093c03          	0x4093c03
     ca6:	0100                	addi	s0,sp,128
     ca8:	0306                	slli	t1,t1,0x1
     caa:	0901                	addi	s2,s2,0
     cac:	0008                	0x8
     cae:	0501                	addi	a0,a0,0
     cb0:	0301                	addi	t1,t1,0
     cb2:	090d                	addi	s2,s2,3
     cb4:	0010                	0x10
     cb6:	0501                	addi	a0,a0,0
     cb8:	0305                	addi	t1,t1,1
     cba:	0901                	addi	s2,s2,0
     cbc:	0000                	unimp
     cbe:	0301                	addi	t1,t1,0
     cc0:	0901                	addi	s2,s2,0
     cc2:	0000                	unimp
     cc4:	0301                	addi	t1,t1,0
     cc6:	0901                	addi	s2,s2,0
     cc8:	0000                	unimp
     cca:	0301                	addi	t1,t1,0
     ccc:	0902                	c.slli64	s2
     cce:	0000                	unimp
     cd0:	0501                	addi	a0,a0,0
     cd2:	0608                	addi	a0,sp,768
     cd4:	00090003          	lb	zero,0(s2)
     cd8:	0100                	addi	s0,sp,128
     cda:	0105                	addi	sp,sp,1
     cdc:	04097b03          	0x4097b03
     ce0:	0100                	addi	s0,sp,128
     ce2:	0805                	addi	a6,a6,1
     ce4:	10090503          	lb	a0,256(s2)
     ce8:	0100                	addi	s0,sp,128
     cea:	0505                	addi	a0,a0,1
     cec:	0306                	slli	t1,t1,0x1
     cee:	0904                	addi	s1,sp,144
     cf0:	0004                	0x4
     cf2:	0301                	addi	t1,t1,0
     cf4:	00097fa7          	0x97fa7
     cf8:	0100                	addi	s0,sp,128
     cfa:	00090103          	lb	sp,0(s2)
     cfe:	0100                	addi	s0,sp,128
     d00:	0f05                	addi	t5,t5,1
     d02:	0306                	slli	t1,t1,0x1
     d04:	0900                	addi	s0,sp,144
     d06:	0000                	unimp
     d08:	0501                	addi	a0,a0,0
     d0a:	0605                	addi	a2,a2,1
     d0c:	0900da03          	lhu	s4,144(ra)
     d10:	000c                	0xc
     d12:	0501                	addi	a0,a0,0
     d14:	030a                	slli	t1,t1,0x2
     d16:	0900                	addi	s0,sp,144
     d18:	0000                	unimp
     d1a:	0501                	addi	a0,a0,0
     d1c:	0315                	addi	t1,t1,5
     d1e:	0900                	addi	s0,sp,144
     d20:	0000                	unimp
     d22:	0501                	addi	a0,a0,0
     d24:	0605                	addi	a2,a2,1
     d26:	00090003          	lb	zero,0(s2)
     d2a:	0100                	addi	s0,sp,128
     d2c:	0f05                	addi	t5,t5,1
     d2e:	097fa603          	lw	a2,151(t6) # fffee097 <_BSS_END_+0x3ffecd57>
     d32:	0008                	0x8
     d34:	0501                	addi	a0,a0,0
     d36:	0609                	addi	a2,a2,2
     d38:	0900dc03          	lhu	s8,144(ra)
     d3c:	0004                	0x4
     d3e:	0501                	addi	a0,a0,0
     d40:	0305                	addi	t1,t1,1
     d42:	04097fa3          	0x4097fa3
     d46:	0100                	addi	s0,sp,128
     d48:	00090103          	lb	sp,0(s2)
     d4c:	0100                	addi	s0,sp,128
     d4e:	0f05                	addi	t5,t5,1
     d50:	0306                	slli	t1,t1,0x1
     d52:	0900                	addi	s0,sp,144
     d54:	0000                	unimp
     d56:	0501                	addi	a0,a0,0
     d58:	0609                	addi	a2,a2,2
     d5a:	0900dd03          	lhu	s10,144(ra)
     d5e:	0008                	0x8
     d60:	0501                	addi	a0,a0,0
     d62:	030e                	slli	t1,t1,0x3
     d64:	0900                	addi	s0,sp,144
     d66:	0000                	unimp
     d68:	0501                	addi	a0,a0,0
     d6a:	031d                	addi	t1,t1,7
     d6c:	0900                	addi	s0,sp,144
     d6e:	0000                	unimp
     d70:	0501                	addi	a0,a0,0
     d72:	000d                	c.nop	3
     d74:	0402                	c.slli64	s0
     d76:	09020303          	lb	t1,144(tp) # ffff8090 <_BSS_END_+0x3fff6d50>
     d7a:	0000                	unimp
     d7c:	0501                	addi	a0,a0,0
     d7e:	002a                	c.slli	zero,0xa
     d80:	0402                	c.slli64	s0
     d82:	097e0303          	lb	t1,151(t3)
     d86:	0004                	0x4
     d88:	0501                	addi	a0,a0,0
     d8a:	001d                	c.nop	7
     d8c:	0402                	c.slli64	s0
     d8e:	09000303          	lb	t1,144(zero) # 90 <ROM_BASE-0xbfffff70>
     d92:	0000                	unimp
     d94:	0501                	addi	a0,a0,0
     d96:	0009                	c.nop	2
     d98:	0402                	c.slli64	s0
     d9a:	00030603          	lb	a2,0(t1)
     d9e:	0009                	c.nop	2
     da0:	0100                	addi	s0,sp,128
     da2:	1e05                	addi	t3,t3,-31
     da4:	0200                	addi	s0,sp,256
     da6:	0204                	addi	s1,sp,256
     da8:	0306                	slli	t1,t1,0x1
     daa:	097d                	addi	s2,s2,31
     dac:	0008                	0x8
     dae:	0501                	addi	a0,a0,0
     db0:	0015                	c.nop	5
     db2:	0402                	c.slli64	s0
     db4:	0302                	c.slli64	t1
     db6:	0900                	addi	s0,sp,144
     db8:	0000                	unimp
     dba:	0501                	addi	a0,a0,0
     dbc:	0005                	c.nop	1
     dbe:	0402                	c.slli64	s0
     dc0:	0602                	c.slli64	a2
     dc2:	00090003          	lb	zero,0(s2)
     dc6:	0100                	addi	s0,sp,128
     dc8:	0f05                	addi	t5,t5,1
     dca:	097fa603          	lw	a2,151(t6)
     dce:	0008                	0x8
     dd0:	0501                	addi	a0,a0,0
     dd2:	0009                	c.nop	2
     dd4:	0402                	c.slli64	s0
     dd6:	e6030603          	lb	a2,-416(t1)
     dda:	0900                	addi	s0,sp,144
     ddc:	0008                	0x8
     dde:	0501                	addi	a0,a0,0
     de0:	001f 0402 0303      	0x3030402001f
     de6:	097e                	slli	s2,s2,0x1f
     de8:	0004                	0x4
     dea:	0501                	addi	a0,a0,0
     dec:	0015                	c.nop	5
     dee:	0402                	c.slli64	s0
     df0:	09000303          	lb	t1,144(zero) # 90 <ROM_BASE-0xbfffff70>
     df4:	0000                	unimp
     df6:	0501                	addi	a0,a0,0
     df8:	0005                	c.nop	1
     dfa:	0402                	c.slli64	s0
     dfc:	00030603          	lb	a2,0(t1)
     e00:	0009                	c.nop	2
     e02:	0100                	addi	s0,sp,128
     e04:	0306                	slli	t1,t1,0x1
     e06:	00080907          	0x80907
     e0a:	0301                	addi	t1,t1,0
     e0c:	7f94                	flw	fa3,56(a5)
     e0e:	0009                	c.nop	2
     e10:	0100                	addi	s0,sp,128
     e12:	00090103          	lb	sp,0(s2)
     e16:	0100                	addi	s0,sp,128
     e18:	0f05                	addi	t5,t5,1
     e1a:	0306                	slli	t1,t1,0x1
     e1c:	0900                	addi	s0,sp,144
     e1e:	0000                	unimp
     e20:	0501                	addi	a0,a0,0
     e22:	030c                	addi	a1,sp,384
     e24:	0905                	addi	s2,s2,1
     e26:	000c                	0xc
     e28:	0501                	addi	a0,a0,0
     e2a:	0005                	c.nop	1
     e2c:	0402                	c.slli64	s0
     e2e:	0601                	addi	a2,a2,0
     e30:	0900e803          	0x900e803
     e34:	0004                	0x4
     e36:	0501                	addi	a0,a0,0
     e38:	0009                	c.nop	2
     e3a:	0402                	c.slli64	s0
     e3c:	0301                	addi	t1,t1,0
     e3e:	0902                	c.slli64	s2
     e40:	0000                	unimp
     e42:	0501                	addi	a0,a0,0
     e44:	0005                	c.nop	1
     e46:	0402                	c.slli64	s0
     e48:	0301                	addi	t1,t1,0
     e4a:	7f96                	flw	ft11,100(sp)
     e4c:	0009                	c.nop	2
     e4e:	0100                	addi	s0,sp,128
     e50:	0c05                	addi	s8,s8,1
     e52:	0200                	addi	s0,sp,256
     e54:	0104                	addi	s1,sp,128
     e56:	0306                	slli	t1,t1,0x1
     e58:	0900                	addi	s0,sp,144
     e5a:	0000                	unimp
     e5c:	0501                	addi	a0,a0,0
     e5e:	000d                	c.nop	3
     e60:	0402                	c.slli64	s0
     e62:	0601                	addi	a2,a2,0
     e64:	0900eb03          	0x900eb03
     e68:	0004                	0x4
     e6a:	0501                	addi	a0,a0,0
     e6c:	0016                	c.slli	zero,0x5
     e6e:	0402                	c.slli64	s0
     e70:	0601                	addi	a2,a2,0
     e72:	00090003          	lb	zero,0(s2)
     e76:	0100                	addi	s0,sp,128
     e78:	0505                	addi	a0,a0,1
     e7a:	0200                	addi	s0,sp,256
     e7c:	0104                	addi	s1,sp,128
     e7e:	04090003          	lb	zero,64(s2)
     e82:	0100                	addi	s0,sp,128
     e84:	1505                	addi	a0,a0,-31
     e86:	0306                	slli	t1,t1,0x1
     e88:	0902                	c.slli64	s2
     e8a:	0004                	0x4
     e8c:	0501                	addi	a0,a0,0
     e8e:	0605                	addi	a2,a2,1
     e90:	00090003          	lb	zero,0(s2)
     e94:	0100                	addi	s0,sp,128
     e96:	0e05                	addi	t3,t3,1
     e98:	04090003          	lb	zero,64(s2)
     e9c:	0100                	addi	s0,sp,128
     e9e:	0705                	addi	a4,a4,1
     ea0:	04096003          	0x4096003
     ea4:	0100                	addi	s0,sp,128
     ea6:	0c05                	addi	s8,s8,1
     ea8:	097fb303          	0x97fb303
     eac:	0004                	0x4
     eae:	0301                	addi	t1,t1,0
     eb0:	0180                	addi	s0,sp,192
     eb2:	0409                	addi	s0,s0,2
     eb4:	0100                	addi	s0,sp,128
     eb6:	0f05                	addi	t5,t5,1
     eb8:	04097203          	0x4097203
     ebc:	0100                	addi	s0,sp,128
     ebe:	1105                	addi	sp,sp,-31
     ec0:	0306                	slli	t1,t1,0x1
     ec2:	0901                	addi	s2,s2,0
     ec4:	0008                	0x8
     ec6:	0501                	addi	a0,a0,0
     ec8:	7f03060f          	0x7f03060f
     ecc:	0009                	c.nop	2
     ece:	0100                	addi	s0,sp,128
     ed0:	1105                	addi	sp,sp,-31
     ed2:	04090103          	lb	sp,64(s2)
     ed6:	0100                	addi	s0,sp,128
     ed8:	0d05                	addi	s10,s10,1
     eda:	0306                	slli	t1,t1,0x1
     edc:	0905                	addi	s2,s2,1
     ede:	000c                	0xc
     ee0:	0301                	addi	t1,t1,0
     ee2:	0901                	addi	s2,s2,0
     ee4:	0000                	unimp
     ee6:	0501                	addi	a0,a0,0
     ee8:	0305                	addi	t1,t1,1
     eea:	00097f87          	0x97f87
     eee:	0100                	addi	s0,sp,128
     ef0:	0c05                	addi	s8,s8,1
     ef2:	0306                	slli	t1,t1,0x1
     ef4:	0900                	addi	s0,sp,144
     ef6:	0000                	unimp
     ef8:	0501                	addi	a0,a0,0
     efa:	0314                	addi	a3,sp,384
     efc:	00f9                	addi	ra,ra,30
     efe:	0409                	addi	s0,s0,2
     f00:	0100                	addi	s0,sp,128
     f02:	0e05                	addi	t3,t3,1
     f04:	04090103          	lb	sp,64(s2)
     f08:	0100                	addi	s0,sp,128
     f0a:	1405                	addi	s0,s0,-31
     f0c:	04097f03          	0x4097f03
     f10:	0100                	addi	s0,sp,128
     f12:	0d05                	addi	s10,s10,1
     f14:	0306                	slli	t1,t1,0x1
     f16:	0901                	addi	s2,s2,0
     f18:	0004                	0x4
     f1a:	0501                	addi	a0,a0,0
     f1c:	0309                	addi	t1,t1,2
     f1e:	0906                	slli	s2,s2,0x1
     f20:	0000                	unimp
     f22:	0501                	addi	a0,a0,0
     f24:	7803060f          	0x7803060f
     f28:	0009                	c.nop	2
     f2a:	0100                	addi	s0,sp,128
     f2c:	1505                	addi	a0,a0,-31
     f2e:	0200                	addi	s0,sp,256
     f30:	0104                	addi	s1,sp,128
     f32:	0306                	slli	t1,t1,0x1
     f34:	0975                	addi	s2,s2,29
     f36:	0004                	0x4
     f38:	0501                	addi	a0,a0,0
     f3a:	04020017          	auipc	zero,0x4020
     f3e:	0601                	addi	a2,a2,0
     f40:	00090003          	lb	zero,0(s2)
     f44:	0100                	addi	s0,sp,128
     f46:	0505                	addi	a0,a0,1
     f48:	0200                	addi	s0,sp,256
     f4a:	0104                	addi	s1,sp,128
     f4c:	04090003          	lb	zero,64(s2)
     f50:	0100                	addi	s0,sp,128
     f52:	0905                	addi	s2,s2,1
     f54:	0306                	slli	t1,t1,0x1
     f56:	0902                	c.slli64	s2
     f58:	0004                	0x4
     f5a:	0501                	addi	a0,a0,0
     f5c:	0305                	addi	t1,t1,1
     f5e:	7f91                	lui	t6,0xfffe4
     f60:	0009                	c.nop	2
     f62:	0100                	addi	s0,sp,128
     f64:	0d05                	addi	s10,s10,1
     f66:	0900f203          	0x900f203
     f6a:	0000                	unimp
     f6c:	0301                	addi	t1,t1,0
     f6e:	090c                	addi	a1,sp,144
     f70:	0000                	unimp
     f72:	0501                	addi	a0,a0,0
     f74:	060c                	addi	a1,sp,768
     f76:	097f8203          	lb	tp,151(t6) # fffe4097 <_BSS_END_+0x3ffe2d57>
     f7a:	0000                	unimp
     f7c:	0501                	addi	a0,a0,0
     f7e:	0609                	addi	a2,a2,2
     f80:	0900f003          	0x900f003
     f84:	0004                	0x4
     f86:	0501                	addi	a0,a0,0
     f88:	0e03060f          	0xe03060f
     f8c:	0009                	c.nop	2
     f8e:	0100                	addi	s0,sp,128
     f90:	0905                	addi	s2,s2,1
     f92:	0306                	slli	t1,t1,0x1
     f94:	0902                	c.slli64	s2
     f96:	0004                	0x4
     f98:	0501                	addi	a0,a0,0
     f9a:	0615                	addi	a2,a2,5
     f9c:	00097003          	0x97003
     fa0:	0100                	addi	s0,sp,128
     fa2:	0c05                	addi	s8,s8,1
     fa4:	04090003          	lb	zero,64(s2)
     fa8:	0100                	addi	s0,sp,128
     faa:	04091003          	lh	zero,64(s2)
     fae:	0100                	addi	s0,sp,128
     fb0:	0d05                	addi	s10,s10,1
     fb2:	0306                	slli	t1,t1,0x1
     fb4:	0902                	c.slli64	s2
     fb6:	0004                	0x4
     fb8:	0301                	addi	t1,t1,0
     fba:	0904                	addi	s1,sp,144
     fbc:	000c                	0xc
     fbe:	0501                	addi	a0,a0,0
     fc0:	0614                	addi	a3,sp,768
     fc2:	00090003          	lb	zero,0(s2)
     fc6:	0100                	addi	s0,sp,128
     fc8:	0505                	addi	a0,a0,1
     fca:	0306                	slli	t1,t1,0x1
     fcc:	0905                	addi	s2,s2,1
     fce:	0008                	0x8
     fd0:	0301                	addi	t1,t1,0
     fd2:	00097eef          	jal	t4,97fd2 <ROM_BASE-0xbff6802e>
     fd6:	0100                	addi	s0,sp,128
     fd8:	00090103          	lb	sp,0(s2)
     fdc:	0100                	addi	s0,sp,128
     fde:	0f05                	addi	t5,t5,1
     fe0:	0306                	slli	t1,t1,0x1
     fe2:	0900                	addi	s0,sp,144
     fe4:	0000                	unimp
     fe6:	0501                	addi	a0,a0,0
     fe8:	0605                	addi	a2,a2,1
     fea:	09019303          	lh	t1,144(gp)
     fee:	000c                	0xc
     ff0:	0301                	addi	t1,t1,0
     ff2:	7eec                	flw	fa1,124(a3)
     ff4:	0009                	c.nop	2
     ff6:	0100                	addi	s0,sp,128
     ff8:	00090103          	lb	sp,0(s2)
     ffc:	0100                	addi	s0,sp,128
     ffe:	0f05                	addi	t5,t5,1
    1000:	0306                	slli	t1,t1,0x1
    1002:	0900                	addi	s0,sp,144
    1004:	0000                	unimp
    1006:	0501                	addi	a0,a0,0
    1008:	0605                	addi	a2,a2,1
    100a:	09019503          	lh	a0,144(gp)
    100e:	0008                	0x8
    1010:	0501                	addi	a0,a0,0
    1012:	060c                	addi	a1,sp,768
    1014:	00090003          	lb	zero,0(s2)
    1018:	0100                	addi	s0,sp,128
    101a:	1005                	c.nop	-31
    101c:	08094003          	lbu	zero,128(s2)
    1020:	0100                	addi	s0,sp,128
    1022:	0105                	addi	sp,sp,1
    1024:	0900c103          	lbu	sp,144(ra)
    1028:	0004                	0x4
    102a:	0901                	addi	s2,s2,0
    102c:	0004                	0x4
    102e:	0100                	addi	s0,sp,128
    1030:	a601                	j	1330 <ROM_BASE-0xbfffecd0>
    1032:	000e                	c.slli	zero,0x3
    1034:	0300                	addi	s0,sp,384
    1036:	ad00                	fsd	fs0,24(a0)
    1038:	0000                	unimp
    103a:	0100                	addi	s0,sp,128
    103c:	fb01                	bnez	a4,f4c <ROM_BASE-0xbffff0b4>
    103e:	0d0e                	slli	s10,s10,0x3
    1040:	0100                	addi	s0,sp,128
    1042:	0101                	addi	sp,sp,0
    1044:	0001                	nop
    1046:	0000                	unimp
    1048:	0001                	nop
    104a:	0100                	addi	s0,sp,128
    104c:	00637273          	csrrci	tp,0x6,6
    1050:	74706f2f          	0x74706f2f
    1054:	7369722f          	0x7369722f
    1058:	722f7663          	bgeu	t5,sp,1784 <ROM_BASE-0xbfffe87c>
    105c:	7369                	lui	t1,0xffffa
    105e:	34367663          	bgeu	a2,gp,13aa <ROM_BASE-0xbfffec56>
    1062:	752d                	lui	a0,0xfffeb
    1064:	6b6e                	flw	fs6,216(sp)
    1066:	6f6e                	flw	ft10,216(sp)
    1068:	652d6e77          	0x652d6e77
    106c:	666c                	flw	fa1,76(a2)
    106e:	636e692f          	0x636e692f
    1072:	756c                	flw	fa1,108(a0)
    1074:	6564                	flw	fs1,76(a0)
    1076:	63616d2f          	0x63616d2f
    107a:	6968                	flw	fa0,84(a0)
    107c:	656e                	flw	fa0,216(sp)
    107e:	2f00                	fld	fs0,24(a4)
    1080:	2f74706f          	j	48b76 <ROM_BASE-0xbffb748a>
    1084:	6972                	flw	fs2,28(sp)
    1086:	2f766373          	csrrsi	t1,0x2f7,12
    108a:	6972                	flw	fs2,28(sp)
    108c:	36766373          	csrrsi	t1,0x367,12
    1090:	2d34                	fld	fa3,88(a0)
    1092:	6e75                	lui	t3,0x1d
    1094:	776f6e6b          	0x776f6e6b
    1098:	2d6e                	fld	fs10,216(sp)
    109a:	6c65                	lui	s8,0x19
    109c:	2f66                	fld	ft10,88(sp)
    109e:	6e69                	lui	t3,0x1a
    10a0:	64756c63          	bltu	a0,t2,16f8 <ROM_BASE-0xbfffe908>
    10a4:	2f65                	jal	185c <ROM_BASE-0xbfffe7a4>
    10a6:	00737973          	csrrci	s2,0x7,6
    10aa:	7300                	flw	fs0,32(a4)
    10ac:	2e64                	fld	fs1,216(a2)
    10ae:	00010063          	beqz	sp,10ae <ROM_BASE-0xbfffef52>
    10b2:	5f00                	lw	s0,56(a4)
    10b4:	6564                	flw	fs1,76(a0)
    10b6:	6166                	flw	ft2,88(sp)
    10b8:	6c75                	lui	s8,0x1d
    10ba:	5f74                	lw	a3,124(a4)
    10bc:	7974                	flw	fa3,116(a0)
    10be:	6570                	flw	fa2,76(a0)
    10c0:	00682e73          	csrrs	t3,0x6,a6
    10c4:	0002                	c.slli64	zero
    10c6:	5f00                	lw	s0,56(a4)
    10c8:	69647473          	csrrci	s0,0x696,8
    10cc:	746e                	flw	fs0,248(sp)
    10ce:	682e                	flw	fa6,200(sp)
    10d0:	0300                	addi	s0,sp,384
    10d2:	0000                	unimp
    10d4:	2e697073          	csrci	0x2e6,18
    10d8:	0068                	addi	a0,sp,12
    10da:	0001                	nop
    10dc:	7500                	flw	fs0,40(a0)
    10de:	7261                	lui	tp,0xffff8
    10e0:	2e74                	fld	fa3,216(a2)
    10e2:	0068                	addi	a0,sp,12
    10e4:	0001                	nop
    10e6:	0000                	unimp
    10e8:	0105                	addi	sp,sp,1
    10ea:	0500                	addi	s0,sp,640
    10ec:	8402                	jr	s0
    10ee:	0004                	0x4
    10f0:	18c0                	addi	s0,sp,116
    10f2:	0505                	addi	a0,a0,1
    10f4:	00090103          	lb	sp,0(s2)
    10f8:	0100                	addi	s0,sp,128
    10fa:	0c05                	addi	s8,s8,1
    10fc:	0306                	slli	t1,t1,0x1
    10fe:	0900                	addi	s0,sp,144
    1100:	0000                	unimp
    1102:	0501                	addi	a0,a0,0
    1104:	0601                	addi	a2,a2,0
    1106:	08090403          	lb	s0,128(s2)
    110a:	0100                	addi	s0,sp,128
    110c:	0505                	addi	a0,a0,1
    110e:	00090103          	lb	sp,0(s2)
    1112:	0100                	addi	s0,sp,128
    1114:	00090103          	lb	sp,0(s2)
    1118:	0100                	addi	s0,sp,128
    111a:	00090203          	lb	tp,0(s2)
    111e:	0100                	addi	s0,sp,128
    1120:	00097803          	0x97803
    1124:	0100                	addi	s0,sp,128
    1126:	0105                	addi	sp,sp,1
    1128:	0306                	slli	t1,t1,0x1
    112a:	0904                	addi	s1,sp,144
    112c:	0000                	unimp
    112e:	0501                	addi	a0,a0,0
    1130:	030c                	addi	a1,sp,384
    1132:	097c                	addi	a5,sp,156
    1134:	000c                	0xc
    1136:	0501                	addi	a0,a0,0
    1138:	0301                	addi	t1,t1,0
    113a:	0904                	addi	s1,sp,144
    113c:	0004                	0x4
    113e:	0301                	addi	t1,t1,0
    1140:	0900                	addi	s0,sp,144
    1142:	000c                	0xc
    1144:	0501                	addi	a0,a0,0
    1146:	030c                	addi	a1,sp,384
    1148:	097c                	addi	a5,sp,156
    114a:	0008                	0x8
    114c:	0501                	addi	a0,a0,0
    114e:	0605                	addi	a2,a2,1
    1150:	04090903          	lb	s2,64(s2)
    1154:	0100                	addi	s0,sp,128
    1156:	08090103          	lb	sp,128(s2)
    115a:	0100                	addi	s0,sp,128
    115c:	08090103          	lb	sp,128(s2)
    1160:	0100                	addi	s0,sp,128
    1162:	1205                	addi	tp,tp,-31
    1164:	0306                	slli	t1,t1,0x1
    1166:	0900                	addi	s0,sp,144
    1168:	0000                	unimp
    116a:	0501                	addi	a0,a0,0
    116c:	0305                	addi	t1,t1,1
    116e:	0900                	addi	s0,sp,144
    1170:	0004                	0x4
    1172:	0601                	addi	a2,a2,0
    1174:	08090103          	lb	sp,128(s2)
    1178:	0100                	addi	s0,sp,128
    117a:	1205                	addi	tp,tp,-31
    117c:	0306                	slli	t1,t1,0x1
    117e:	0900                	addi	s0,sp,144
    1180:	0000                	unimp
    1182:	0501                	addi	a0,a0,0
    1184:	0305                	addi	t1,t1,1
    1186:	0900                	addi	s0,sp,144
    1188:	0004                	0x4
    118a:	0601                	addi	a2,a2,0
    118c:	08090103          	lb	sp,128(s2)
    1190:	0100                	addi	s0,sp,128
    1192:	08090103          	lb	sp,128(s2)
    1196:	0100                	addi	s0,sp,128
    1198:	08090203          	lb	tp,128(s2)
    119c:	0100                	addi	s0,sp,128
    119e:	0306                	slli	t1,t1,0x1
    11a0:	097e                	slli	s2,s2,0x1f
    11a2:	0000                	unimp
    11a4:	0301                	addi	t1,t1,0
    11a6:	090a                	slli	s2,s2,0x2
    11a8:	0008                	0x8
    11aa:	0601                	addi	a2,a2,0
    11ac:	04097903          	0x4097903
    11b0:	0100                	addi	s0,sp,128
    11b2:	0905                	addi	s2,s2,1
    11b4:	00090203          	lb	tp,0(s2)
    11b8:	0100                	addi	s0,sp,128
    11ba:	0505                	addi	a0,a0,1
    11bc:	00096d03          	0x96d03
    11c0:	0100                	addi	s0,sp,128
    11c2:	0c05                	addi	s8,s8,1
    11c4:	0306                	slli	t1,t1,0x1
    11c6:	0900                	addi	s0,sp,144
    11c8:	0000                	unimp
    11ca:	0501                	addi	a0,a0,0
    11cc:	060d                	addi	a2,a2,3
    11ce:	08091803          	lh	a6,128(s2)
    11d2:	0100                	addi	s0,sp,128
    11d4:	0905                	addi	s2,s2,1
    11d6:	00097c03          	0x97c03
    11da:	0100                	addi	s0,sp,128
    11dc:	0c05                	addi	s8,s8,1
    11de:	0306                	slli	t1,t1,0x1
    11e0:	0900                	addi	s0,sp,144
    11e2:	0000                	unimp
    11e4:	0501                	addi	a0,a0,0
    11e6:	0305                	addi	t1,t1,1
    11e8:	0904                	addi	s1,sp,144
    11ea:	0008                	0x8
    11ec:	0501                	addi	a0,a0,0
    11ee:	030c                	addi	a1,sp,384
    11f0:	097c                	addi	a5,sp,156
    11f2:	0004                	0x4
    11f4:	0501                	addi	a0,a0,0
    11f6:	0605                	addi	a2,a2,1
    11f8:	04090503          	lb	a0,64(s2)
    11fc:	0100                	addi	s0,sp,128
    11fe:	00090303          	lb	t1,0(s2)
    1202:	0100                	addi	s0,sp,128
    1204:	00090103          	lb	sp,0(s2)
    1208:	0100                	addi	s0,sp,128
    120a:	0105                	addi	sp,sp,1
    120c:	0306                	slli	t1,t1,0x1
    120e:	0901                	addi	s2,s2,0
    1210:	0000                	unimp
    1212:	0601                	addi	a2,a2,0
    1214:	18090303          	lb	t1,384(s2)
    1218:	0100                	addi	s0,sp,128
    121a:	0505                	addi	a0,a0,1
    121c:	00090103          	lb	sp,0(s2)
    1220:	0100                	addi	s0,sp,128
    1222:	0105                	addi	sp,sp,1
    1224:	0306                	slli	t1,t1,0x1
    1226:	097f                	0x97f
    1228:	0000                	unimp
    122a:	0501                	addi	a0,a0,0
    122c:	0305                	addi	t1,t1,1
    122e:	0901                	addi	s2,s2,0
    1230:	000c                	0xc
    1232:	0501                	addi	a0,a0,0
    1234:	0301                	addi	t1,t1,0
    1236:	097f                	0x97f
    1238:	0008                	0x8
    123a:	0301                	addi	t1,t1,0
    123c:	0900                	addi	s0,sp,144
    123e:	0008                	0x8
    1240:	0501                	addi	a0,a0,0
    1242:	0305                	addi	t1,t1,1
    1244:	0901                	addi	s2,s2,0
    1246:	0004                	0x4
    1248:	0601                	addi	a2,a2,0
    124a:	04090103          	lb	sp,64(s2)
    124e:	0100                	addi	s0,sp,128
    1250:	08090103          	lb	sp,128(s2)
    1254:	0100                	addi	s0,sp,128
    1256:	0c090103          	lb	sp,192(s2)
    125a:	0100                	addi	s0,sp,128
    125c:	08090103          	lb	sp,128(s2)
    1260:	0100                	addi	s0,sp,128
    1262:	0105                	addi	sp,sp,1
    1264:	0306                	slli	t1,t1,0x1
    1266:	0901                	addi	s2,s2,0
    1268:	0000                	unimp
    126a:	0501                	addi	a0,a0,0
    126c:	0305                	addi	t1,t1,1
    126e:	097f                	0x97f
    1270:	000c                	0xc
    1272:	0501                	addi	a0,a0,0
    1274:	0301                	addi	t1,t1,0
    1276:	0901                	addi	s2,s2,0
    1278:	0004                	0x4
    127a:	0501                	addi	a0,a0,0
    127c:	0305                	addi	t1,t1,1
    127e:	097f                	0x97f
    1280:	0000                	unimp
    1282:	0501                	addi	a0,a0,0
    1284:	0301                	addi	t1,t1,0
    1286:	0901                	addi	s2,s2,0
    1288:	0004                	0x4
    128a:	0501                	addi	a0,a0,0
    128c:	0305                	addi	t1,t1,1
    128e:	097f                	0x97f
    1290:	0004                	0x4
    1292:	0501                	addi	a0,a0,0
    1294:	0601                	addi	a2,a2,0
    1296:	04090403          	lb	s0,64(s2)
    129a:	0100                	addi	s0,sp,128
    129c:	0505                	addi	a0,a0,1
    129e:	00090103          	lb	sp,0(s2)
    12a2:	0100                	addi	s0,sp,128
    12a4:	00090103          	lb	sp,0(s2)
    12a8:	0100                	addi	s0,sp,128
    12aa:	00090103          	lb	sp,0(s2)
    12ae:	0100                	addi	s0,sp,128
    12b0:	0b05                	addi	s6,s6,1
    12b2:	00090003          	lb	zero,0(s2)
    12b6:	0100                	addi	s0,sp,128
    12b8:	0905                	addi	s2,s2,1
    12ba:	00090203          	lb	tp,0(s2)
    12be:	0100                	addi	s0,sp,128
    12c0:	0105                	addi	sp,sp,1
    12c2:	0306                	slli	t1,t1,0x1
    12c4:	0000097b          	0x97b
    12c8:	0501                	addi	a0,a0,0
    12ca:	030d                	addi	t1,t1,3
    12cc:	0905                	addi	s2,s2,1
    12ce:	0004                	0x4
    12d0:	0501                	addi	a0,a0,0
    12d2:	0301                	addi	t1,t1,0
    12d4:	000c097b          	0xc097b
    12d8:	0501                	addi	a0,a0,0
    12da:	030d                	addi	t1,t1,3
    12dc:	0905                	addi	s2,s2,1
    12de:	0010                	0x10
    12e0:	0501                	addi	a0,a0,0
    12e2:	030c                	addi	a1,sp,384
    12e4:	0951                	addi	s2,s2,20
    12e6:	0008                	0x8
    12e8:	0501                	addi	a0,a0,0
    12ea:	0609                	addi	a2,a2,2
    12ec:	08093003          	0x8093003
    12f0:	0100                	addi	s0,sp,128
    12f2:	0505                	addi	a0,a0,1
    12f4:	00095003          	lhu	zero,0(s2)
    12f8:	0100                	addi	s0,sp,128
    12fa:	0c05                	addi	s8,s8,1
    12fc:	0306                	slli	t1,t1,0x1
    12fe:	0900                	addi	s0,sp,144
    1300:	0000                	unimp
    1302:	0501                	addi	a0,a0,0
    1304:	0609                	addi	a2,a2,2
    1306:	04093103          	0x4093103
    130a:	0100                	addi	s0,sp,128
    130c:	00090103          	lb	sp,0(s2)
    1310:	0100                	addi	s0,sp,128
    1312:	0c05                	addi	s8,s8,1
    1314:	0306                	slli	t1,t1,0x1
    1316:	094e                	slli	s2,s2,0x13
    1318:	0000                	unimp
    131a:	0501                	addi	a0,a0,0
    131c:	092d030b          	0x92d030b
    1320:	0004                	0x4
    1322:	0501                	addi	a0,a0,0
    1324:	030d                	addi	t1,t1,3
    1326:	0902                	c.slli64	s2
    1328:	0008                	0x8
    132a:	0501                	addi	a0,a0,0
    132c:	030c                	addi	a1,sp,384
    132e:	0951                	addi	s2,s2,20
    1330:	0008                	0x8
    1332:	0501                	addi	a0,a0,0
    1334:	0609                	addi	a2,a2,2
    1336:	04093003          	0x4093003
    133a:	0100                	addi	s0,sp,128
    133c:	0505                	addi	a0,a0,1
    133e:	00095003          	lhu	zero,0(s2)
    1342:	0100                	addi	s0,sp,128
    1344:	0c05                	addi	s8,s8,1
    1346:	0306                	slli	t1,t1,0x1
    1348:	0900                	addi	s0,sp,144
    134a:	0000                	unimp
    134c:	0501                	addi	a0,a0,0
    134e:	0609                	addi	a2,a2,2
    1350:	04093103          	0x4093103
    1354:	0100                	addi	s0,sp,128
    1356:	00090103          	lb	sp,0(s2)
    135a:	0100                	addi	s0,sp,128
    135c:	0c05                	addi	s8,s8,1
    135e:	0306                	slli	t1,t1,0x1
    1360:	0900                	addi	s0,sp,144
    1362:	0000                	unimp
    1364:	0501                	addi	a0,a0,0
    1366:	0609                	addi	a2,a2,2
    1368:	04097d03          	0x4097d03
    136c:	0100                	addi	s0,sp,128
    136e:	0b05                	addi	s6,s6,1
    1370:	00097e03          	0x97e03
    1374:	0100                	addi	s0,sp,128
    1376:	0d05                	addi	s10,s10,1
    1378:	0306                	slli	t1,t1,0x1
    137a:	0902                	c.slli64	s2
    137c:	0000                	unimp
    137e:	0501                	addi	a0,a0,0
    1380:	030c                	addi	a1,sp,384
    1382:	000c0903          	lb	s2,0(s8) # 1d000 <ROM_BASE-0xbffe3000>
    1386:	0501                	addi	a0,a0,0
    1388:	097b030b          	0x97b030b
    138c:	0004                	0x4
    138e:	0501                	addi	a0,a0,0
    1390:	0605                	addi	a2,a2,1
    1392:	04090803          	lb	a6,64(s2)
    1396:	0100                	addi	s0,sp,128
    1398:	00096d03          	0x96d03
    139c:	0100                	addi	s0,sp,128
    139e:	0c090103          	lb	sp,192(s2)
    13a2:	0100                	addi	s0,sp,128
    13a4:	0c090103          	lb	sp,192(s2)
    13a8:	0100                	addi	s0,sp,128
    13aa:	0c090103          	lb	sp,192(s2)
    13ae:	0100                	addi	s0,sp,128
    13b0:	08090103          	lb	sp,128(s2)
    13b4:	0100                	addi	s0,sp,128
    13b6:	0105                	addi	sp,sp,1
    13b8:	0306                	slli	t1,t1,0x1
    13ba:	0912                	slli	s2,s2,0x4
    13bc:	000c                	0xc
    13be:	0501                	addi	a0,a0,0
    13c0:	030e                	slli	t1,t1,0x3
    13c2:	097f                	0x97f
    13c4:	0010                	0x10
    13c6:	0501                	addi	a0,a0,0
    13c8:	0301                	addi	t1,t1,0
    13ca:	0901                	addi	s2,s2,0
    13cc:	0004                	0x4
    13ce:	0501                	addi	a0,a0,0
    13d0:	0314                	addi	a3,sp,384
    13d2:	0018097b          	0x18097b
    13d6:	0501                	addi	a0,a0,0
    13d8:	0301                	addi	t1,t1,0
    13da:	0905                	addi	s2,s2,1
    13dc:	0004                	0x4
    13de:	0601                	addi	a2,a2,0
    13e0:	08090303          	lb	t1,128(s2)
    13e4:	0100                	addi	s0,sp,128
    13e6:	0505                	addi	a0,a0,1
    13e8:	00090103          	lb	sp,0(s2)
    13ec:	0100                	addi	s0,sp,128
    13ee:	0105                	addi	sp,sp,1
    13f0:	0306                	slli	t1,t1,0x1
    13f2:	097f                	0x97f
    13f4:	0000                	unimp
    13f6:	0501                	addi	a0,a0,0
    13f8:	0312                	slli	t1,t1,0x4
    13fa:	0901                	addi	s2,s2,0
    13fc:	0004                	0x4
    13fe:	0501                	addi	a0,a0,0
    1400:	0301                	addi	t1,t1,0
    1402:	097f                	0x97f
    1404:	000c                	0xc
    1406:	0501                	addi	a0,a0,0
    1408:	0312                	slli	t1,t1,0x4
    140a:	0901                	addi	s2,s2,0
    140c:	0010                	0x10
    140e:	0501                	addi	a0,a0,0
    1410:	030c                	addi	a1,sp,384
    1412:	0944                	addi	s1,sp,148
    1414:	0008                	0x8
    1416:	0501                	addi	a0,a0,0
    1418:	0605                	addi	a2,a2,1
    141a:	04093d03          	0x4093d03
    141e:	0100                	addi	s0,sp,128
    1420:	00094303          	lbu	t1,0(s2)
    1424:	0100                	addi	s0,sp,128
    1426:	0c05                	addi	s8,s8,1
    1428:	0306                	slli	t1,t1,0x1
    142a:	0900                	addi	s0,sp,144
    142c:	0000                	unimp
    142e:	0501                	addi	a0,a0,0
    1430:	0605                	addi	a2,a2,1
    1432:	04093e03          	0x4093e03
    1436:	0100                	addi	s0,sp,128
    1438:	00094203          	lbu	tp,0(s2)
    143c:	0100                	addi	s0,sp,128
    143e:	0c05                	addi	s8,s8,1
    1440:	0306                	slli	t1,t1,0x1
    1442:	0900                	addi	s0,sp,144
    1444:	0000                	unimp
    1446:	0501                	addi	a0,a0,0
    1448:	0605                	addi	a2,a2,1
    144a:	08093f03          	0x8093f03
    144e:	0100                	addi	s0,sp,128
    1450:	00094103          	lbu	sp,0(s2)
    1454:	0100                	addi	s0,sp,128
    1456:	0c05                	addi	s8,s8,1
    1458:	0306                	slli	t1,t1,0x1
    145a:	0900                	addi	s0,sp,144
    145c:	0000                	unimp
    145e:	0501                	addi	a0,a0,0
    1460:	0605                	addi	a2,a2,1
    1462:	0900c003          	lbu	zero,144(ra)
    1466:	0010                	0x10
    1468:	0301                	addi	t1,t1,0
    146a:	0940                	addi	s0,sp,148
    146c:	0000                	unimp
    146e:	0501                	addi	a0,a0,0
    1470:	060c                	addi	a1,sp,768
    1472:	00090003          	lb	zero,0(s2)
    1476:	0100                	addi	s0,sp,128
    1478:	0505                	addi	a0,a0,1
    147a:	0306                	slli	t1,t1,0x1
    147c:	00c1                	addi	ra,ra,16
    147e:	0c09                	addi	s8,s8,2
    1480:	0100                	addi	s0,sp,128
    1482:	097fbf03          	0x97fbf03
    1486:	0000                	unimp
    1488:	0501                	addi	a0,a0,0
    148a:	060c                	addi	a1,sp,768
    148c:	00090003          	lb	zero,0(s2)
    1490:	0100                	addi	s0,sp,128
    1492:	0505                	addi	a0,a0,1
    1494:	0306                	slli	t1,t1,0x1
    1496:	040900c3          	0x40900c3
    149a:	0100                	addi	s0,sp,128
    149c:	097fbd03          	0x97fbd03
    14a0:	0000                	unimp
    14a2:	0501                	addi	a0,a0,0
    14a4:	060c                	addi	a1,sp,768
    14a6:	00090003          	lb	zero,0(s2)
    14aa:	0100                	addi	s0,sp,128
    14ac:	0505                	addi	a0,a0,1
    14ae:	0306                	slli	t1,t1,0x1
    14b0:	00c4                	addi	s1,sp,68
    14b2:	0809                	addi	a6,a6,2
    14b4:	0100                	addi	s0,sp,128
    14b6:	2b05                	jal	19e6 <ROM_BASE-0xbfffe61a>
    14b8:	0306                	slli	t1,t1,0x1
    14ba:	0900                	addi	s0,sp,144
    14bc:	0000                	unimp
    14be:	0501                	addi	a0,a0,0
    14c0:	0301                	addi	t1,t1,0
    14c2:	0901                	addi	s2,s2,0
    14c4:	000c                	0xc
    14c6:	0501                	addi	a0,a0,0
    14c8:	0016                	c.slli	zero,0x5
    14ca:	0402                	c.slli64	s0
    14cc:	0301                	addi	t1,t1,0
    14ce:	097f                	0x97f
    14d0:	0018                	0x18
    14d2:	0501                	addi	a0,a0,0
    14d4:	0001                	nop
    14d6:	0402                	c.slli64	s0
    14d8:	09010303          	lb	t1,144(sp)
    14dc:	0008                	0x8
    14de:	0501                	addi	a0,a0,0
    14e0:	0402002b          	0x402002b
    14e4:	097f0303          	lb	t1,151(t5)
    14e8:	0008                	0x8
    14ea:	0501                	addi	a0,a0,0
    14ec:	0001                	nop
    14ee:	0402                	c.slli64	s0
    14f0:	09010303          	lb	t1,144(sp)
    14f4:	0004                	0x4
    14f6:	0501                	addi	a0,a0,0
    14f8:	0402002b          	0x402002b
    14fc:	097f0303          	lb	t1,151(t5)
    1500:	0008                	0x8
    1502:	0501                	addi	a0,a0,0
    1504:	0001                	nop
    1506:	0402                	c.slli64	s0
    1508:	09010303          	lb	t1,144(sp)
    150c:	0004                	0x4
    150e:	0601                	addi	a2,a2,0
    1510:	08090303          	lb	t1,128(s2)
    1514:	0100                	addi	s0,sp,128
    1516:	0505                	addi	a0,a0,1
    1518:	00090103          	lb	sp,0(s2)
    151c:	0100                	addi	s0,sp,128
    151e:	0105                	addi	sp,sp,1
    1520:	0306                	slli	t1,t1,0x1
    1522:	097f                	0x97f
    1524:	0000                	unimp
    1526:	0501                	addi	a0,a0,0
    1528:	0311                	addi	t1,t1,4
    152a:	0901                	addi	s2,s2,0
    152c:	0004                	0x4
    152e:	0501                	addi	a0,a0,0
    1530:	0301                	addi	t1,t1,0
    1532:	097f                	0x97f
    1534:	000c                	0xc
    1536:	0501                	addi	a0,a0,0
    1538:	0311                	addi	t1,t1,4
    153a:	0901                	addi	s2,s2,0
    153c:	0008                	0x8
    153e:	0501                	addi	a0,a0,0
    1540:	030c                	addi	a1,sp,384
    1542:	08097fb7          	lui	t6,0x8097
    1546:	0100                	addi	s0,sp,128
    1548:	0505                	addi	a0,a0,1
    154a:	0306                	slli	t1,t1,0x1
    154c:	00ca                	slli	ra,ra,0x12
    154e:	0409                	addi	s0,s0,2
    1550:	0100                	addi	s0,sp,128
    1552:	097fb603          	0x97fb603
    1556:	0000                	unimp
    1558:	0501                	addi	a0,a0,0
    155a:	060c                	addi	a1,sp,768
    155c:	00090003          	lb	zero,0(s2)
    1560:	0100                	addi	s0,sp,128
    1562:	0505                	addi	a0,a0,1
    1564:	0306                	slli	t1,t1,0x1
    1566:	040900cb          	0x40900cb
    156a:	0100                	addi	s0,sp,128
    156c:	00095703          	lhu	a4,0(s2)
    1570:	0100                	addi	s0,sp,128
    1572:	0c090103          	lb	sp,192(s2)
    1576:	0100                	addi	s0,sp,128
    1578:	0c090103          	lb	sp,192(s2)
    157c:	0100                	addi	s0,sp,128
    157e:	0c090103          	lb	sp,192(s2)
    1582:	0100                	addi	s0,sp,128
    1584:	08090103          	lb	sp,128(s2)
    1588:	0100                	addi	s0,sp,128
    158a:	0c092603          	lw	a2,192(s2)
    158e:	0100                	addi	s0,sp,128
    1590:	0105                	addi	sp,sp,1
    1592:	0306                	slli	t1,t1,0x1
    1594:	0901                	addi	s2,s2,0
    1596:	0000                	unimp
    1598:	0501                	addi	a0,a0,0
    159a:	030e                	slli	t1,t1,0x3
    159c:	097f                	0x97f
    159e:	0004                	0x4
    15a0:	0501                	addi	a0,a0,0
    15a2:	0301                	addi	t1,t1,0
    15a4:	0901                	addi	s2,s2,0
    15a6:	0004                	0x4
    15a8:	0601                	addi	a2,a2,0
    15aa:	10090303          	lb	t1,256(s2)
    15ae:	0100                	addi	s0,sp,128
    15b0:	0505                	addi	a0,a0,1
    15b2:	0306                	slli	t1,t1,0x1
    15b4:	0908                	addi	a0,sp,144
    15b6:	0010                	0x10
    15b8:	0001                	nop
    15ba:	0402                	c.slli64	s0
    15bc:	0601                	addi	a2,a2,0
    15be:	04097903          	0x4097903
    15c2:	0100                	addi	s0,sp,128
    15c4:	0200                	addi	s0,sp,256
    15c6:	0104                	addi	s1,sp,128
    15c8:	00090103          	lb	sp,0(s2)
    15cc:	0100                	addi	s0,sp,128
    15ce:	0905                	addi	s2,s2,1
    15d0:	0200                	addi	s0,sp,256
    15d2:	0104                	addi	s1,sp,128
    15d4:	00090203          	lb	tp,0(s2)
    15d8:	0100                	addi	s0,sp,128
    15da:	0505                	addi	a0,a0,1
    15dc:	0200                	addi	s0,sp,256
    15de:	0104                	addi	s1,sp,128
    15e0:	00097503          	0x97503
    15e4:	0100                	addi	s0,sp,128
    15e6:	1105                	addi	sp,sp,-31
    15e8:	0200                	addi	s0,sp,256
    15ea:	0104                	addi	s1,sp,128
    15ec:	0306                	slli	t1,t1,0x1
    15ee:	0900                	addi	s0,sp,144
    15f0:	0000                	unimp
    15f2:	0501                	addi	a0,a0,0
    15f4:	000c                	0xc
    15f6:	0402                	c.slli64	s0
    15f8:	0301                	addi	t1,t1,0
    15fa:	14097fb7          	lui	t6,0x14097
    15fe:	0100                	addi	s0,sp,128
    1600:	0505                	addi	a0,a0,1
    1602:	0200                	addi	s0,sp,256
    1604:	0104                	addi	s1,sp,128
    1606:	0306                	slli	t1,t1,0x1
    1608:	00ca                	slli	ra,ra,0x12
    160a:	0409                	addi	s0,s0,2
    160c:	0100                	addi	s0,sp,128
    160e:	0200                	addi	s0,sp,256
    1610:	0104                	addi	s1,sp,128
    1612:	097fb603          	0x97fb603
    1616:	0000                	unimp
    1618:	0501                	addi	a0,a0,0
    161a:	000c                	0xc
    161c:	0402                	c.slli64	s0
    161e:	0601                	addi	a2,a2,0
    1620:	00090003          	lb	zero,0(s2)
    1624:	0100                	addi	s0,sp,128
    1626:	0505                	addi	a0,a0,1
    1628:	0200                	addi	s0,sp,256
    162a:	0104                	addi	s1,sp,128
    162c:	0306                	slli	t1,t1,0x1
    162e:	040900cb          	0x40900cb
    1632:	0100                	addi	s0,sp,128
    1634:	0200                	addi	s0,sp,256
    1636:	0104                	addi	s1,sp,128
    1638:	00095703          	lhu	a4,0(s2)
    163c:	0100                	addi	s0,sp,128
    163e:	0200                	addi	s0,sp,256
    1640:	0104                	addi	s1,sp,128
    1642:	0c090103          	lb	sp,192(s2)
    1646:	0100                	addi	s0,sp,128
    1648:	0200                	addi	s0,sp,256
    164a:	0104                	addi	s1,sp,128
    164c:	0c090103          	lb	sp,192(s2)
    1650:	0100                	addi	s0,sp,128
    1652:	0200                	addi	s0,sp,256
    1654:	0104                	addi	s1,sp,128
    1656:	0c090103          	lb	sp,192(s2)
    165a:	0100                	addi	s0,sp,128
    165c:	0200                	addi	s0,sp,256
    165e:	0104                	addi	s1,sp,128
    1660:	08090103          	lb	sp,128(s2)
    1664:	0100                	addi	s0,sp,128
    1666:	0200                	addi	s0,sp,256
    1668:	0104                	addi	s1,sp,128
    166a:	0c092603          	lw	a2,192(s2)
    166e:	0100                	addi	s0,sp,128
    1670:	0905                	addi	s2,s2,1
    1672:	0200                	addi	s0,sp,256
    1674:	0104                	addi	s1,sp,128
    1676:	00090903          	lb	s2,0(s2)
    167a:	0100                	addi	s0,sp,128
    167c:	0d05                	addi	s10,s10,1
    167e:	0200                	addi	s0,sp,256
    1680:	0104                	addi	s1,sp,128
    1682:	0306                	slli	t1,t1,0x1
    1684:	0900                	addi	s0,sp,144
    1686:	0000                	unimp
    1688:	0501                	addi	a0,a0,0
    168a:	0005                	c.nop	1
    168c:	0402                	c.slli64	s0
    168e:	0301                	addi	t1,t1,0
    1690:	094d                	addi	s2,s2,19
    1692:	0014                	0x14
    1694:	0501                	addi	a0,a0,0
    1696:	0009                	c.nop	2
    1698:	0402                	c.slli64	s0
    169a:	0601                	addi	a2,a2,0
    169c:	08093403          	0x8093403
    16a0:	0100                	addi	s0,sp,128
    16a2:	0505                	addi	a0,a0,1
    16a4:	0200                	addi	s0,sp,256
    16a6:	0104                	addi	s1,sp,128
    16a8:	00094c03          	lbu	s8,0(s2)
    16ac:	0100                	addi	s0,sp,128
    16ae:	0200                	addi	s0,sp,256
    16b0:	0104                	addi	s1,sp,128
    16b2:	04090103          	lb	sp,64(s2)
    16b6:	0100                	addi	s0,sp,128
    16b8:	0200                	addi	s0,sp,256
    16ba:	0104                	addi	s1,sp,128
    16bc:	0c090103          	lb	sp,192(s2)
    16c0:	0100                	addi	s0,sp,128
    16c2:	0200                	addi	s0,sp,256
    16c4:	0104                	addi	s1,sp,128
    16c6:	0c090103          	lb	sp,192(s2)
    16ca:	0100                	addi	s0,sp,128
    16cc:	0200                	addi	s0,sp,256
    16ce:	0104                	addi	s1,sp,128
    16d0:	08090103          	lb	sp,128(s2)
    16d4:	0100                	addi	s0,sp,128
    16d6:	0905                	addi	s2,s2,1
    16d8:	0200                	addi	s0,sp,256
    16da:	0104                	addi	s1,sp,128
    16dc:	0c093103          	0xc093103
    16e0:	0100                	addi	s0,sp,128
    16e2:	0505                	addi	a0,a0,1
    16e4:	0200                	addi	s0,sp,256
    16e6:	0104                	addi	s1,sp,128
    16e8:	097fa903          	lw	s2,151(t6) # 14097097 <ROM_BASE-0xabf68f69>
    16ec:	0000                	unimp
    16ee:	0501                	addi	a0,a0,0
    16f0:	000c                	0xc
    16f2:	0402                	c.slli64	s0
    16f4:	0601                	addi	a2,a2,0
    16f6:	00090003          	lb	zero,0(s2)
    16fa:	0100                	addi	s0,sp,128
    16fc:	0d05                	addi	s10,s10,1
    16fe:	0200                	addi	s0,sp,256
    1700:	0104                	addi	s1,sp,128
    1702:	0306                	slli	t1,t1,0x1
    1704:	00d8                	addi	a4,sp,68
    1706:	0809                	addi	a6,a6,2
    1708:	0100                	addi	s0,sp,128
    170a:	0505                	addi	a0,a0,1
    170c:	0200                	addi	s0,sp,256
    170e:	0104                	addi	s1,sp,128
    1710:	0306                	slli	t1,t1,0x1
    1712:	0900                	addi	s0,sp,144
    1714:	0000                	unimp
    1716:	0601                	addi	a2,a2,0
    1718:	04090103          	lb	sp,64(s2)
    171c:	0100                	addi	s0,sp,128
    171e:	0105                	addi	sp,sp,1
    1720:	0306                	slli	t1,t1,0x1
    1722:	0901                	addi	s2,s2,0
    1724:	0000                	unimp
    1726:	0601                	addi	a2,a2,0
    1728:	18090303          	lb	t1,384(s2)
    172c:	0100                	addi	s0,sp,128
    172e:	0505                	addi	a0,a0,1
    1730:	00090103          	lb	sp,0(s2)
    1734:	0100                	addi	s0,sp,128
    1736:	0105                	addi	sp,sp,1
    1738:	0306                	slli	t1,t1,0x1
    173a:	097f                	0x97f
    173c:	0000                	unimp
    173e:	0501                	addi	a0,a0,0
    1740:	0305                	addi	t1,t1,1
    1742:	0901                	addi	s2,s2,0
    1744:	0014                	0x14
    1746:	0601                	addi	a2,a2,0
    1748:	04090203          	lb	tp,64(s2)
    174c:	0100                	addi	s0,sp,128
    174e:	0c090803          	lb	a6,192(s2)
    1752:	0100                	addi	s0,sp,128
    1754:	0a05                	addi	s4,s4,1
    1756:	00090003          	lb	zero,0(s2)
    175a:	0100                	addi	s0,sp,128
    175c:	1505                	addi	a0,a0,-31
    175e:	00090003          	lb	zero,0(s2)
    1762:	0100                	addi	s0,sp,128
    1764:	0505                	addi	a0,a0,1
    1766:	0306                	slli	t1,t1,0x1
    1768:	0978                	addi	a4,sp,156
    176a:	0000                	unimp
    176c:	0501                	addi	a0,a0,0
    176e:	0606                	slli	a2,a2,0x1
    1770:	04090903          	lb	s2,64(s2)
    1774:	0100                	addi	s0,sp,128
    1776:	0505                	addi	a0,a0,1
    1778:	097f9703          	lh	a4,151(t6)
    177c:	0000                	unimp
    177e:	0601                	addi	a2,a2,0
    1780:	0900e803          	0x900e803
    1784:	0000                	unimp
    1786:	0501                	addi	a0,a0,0
    1788:	030c                	addi	a1,sp,384
    178a:	7f98                	flw	fa4,56(a5)
    178c:	0409                	addi	s0,s0,2
    178e:	0100                	addi	s0,sp,128
    1790:	1d05                	addi	s10,s10,-31
    1792:	0306                	slli	t1,t1,0x1
    1794:	00e8                	addi	a0,sp,76
    1796:	0809                	addi	a6,a6,2
    1798:	0100                	addi	s0,sp,128
    179a:	1505                	addi	a0,a0,-31
    179c:	00090003          	lb	zero,0(s2)
    17a0:	0100                	addi	s0,sp,128
    17a2:	0505                	addi	a0,a0,1
    17a4:	0306                	slli	t1,t1,0x1
    17a6:	0900                	addi	s0,sp,144
    17a8:	0000                	unimp
    17aa:	0501                	addi	a0,a0,0
    17ac:	0609                	addi	a2,a2,2
    17ae:	04094703          	lbu	a4,64(s2)
    17b2:	0100                	addi	s0,sp,128
    17b4:	0d05                	addi	s10,s10,1
    17b6:	0306                	slli	t1,t1,0x1
    17b8:	0900                	addi	s0,sp,144
    17ba:	0000                	unimp
    17bc:	0501                	addi	a0,a0,0
    17be:	030c                	addi	a1,sp,384
    17c0:	0951                	addi	s2,s2,20
    17c2:	0014                	0x14
    17c4:	0501                	addi	a0,a0,0
    17c6:	0609                	addi	a2,a2,2
    17c8:	08093003          	0x8093003
    17cc:	0100                	addi	s0,sp,128
    17ce:	0505                	addi	a0,a0,1
    17d0:	00095003          	lhu	zero,0(s2)
    17d4:	0100                	addi	s0,sp,128
    17d6:	0c05                	addi	s8,s8,1
    17d8:	0306                	slli	t1,t1,0x1
    17da:	0900                	addi	s0,sp,144
    17dc:	0000                	unimp
    17de:	0501                	addi	a0,a0,0
    17e0:	0609                	addi	a2,a2,2
    17e2:	04093103          	0x4093103
    17e6:	0100                	addi	s0,sp,128
    17e8:	00090103          	lb	sp,0(s2)
    17ec:	0100                	addi	s0,sp,128
    17ee:	0c05                	addi	s8,s8,1
    17f0:	0306                	slli	t1,t1,0x1
    17f2:	094e                	slli	s2,s2,0x13
    17f4:	0000                	unimp
    17f6:	0501                	addi	a0,a0,0
    17f8:	092d030b          	0x92d030b
    17fc:	0004                	0x4
    17fe:	0501                	addi	a0,a0,0
    1800:	030d                	addi	t1,t1,3
    1802:	0902                	c.slli64	s2
    1804:	0008                	0x8
    1806:	0501                	addi	a0,a0,0
    1808:	030c                	addi	a1,sp,384
    180a:	0951                	addi	s2,s2,20
    180c:	0008                	0x8
    180e:	0501                	addi	a0,a0,0
    1810:	0609                	addi	a2,a2,2
    1812:	04093003          	0x4093003
    1816:	0100                	addi	s0,sp,128
    1818:	0505                	addi	a0,a0,1
    181a:	00095003          	lhu	zero,0(s2)
    181e:	0100                	addi	s0,sp,128
    1820:	0c05                	addi	s8,s8,1
    1822:	0306                	slli	t1,t1,0x1
    1824:	0900                	addi	s0,sp,144
    1826:	0000                	unimp
    1828:	0501                	addi	a0,a0,0
    182a:	0609                	addi	a2,a2,2
    182c:	04093103          	0x4093103
    1830:	0100                	addi	s0,sp,128
    1832:	00090103          	lb	sp,0(s2)
    1836:	0100                	addi	s0,sp,128
    1838:	0c05                	addi	s8,s8,1
    183a:	0306                	slli	t1,t1,0x1
    183c:	0900                	addi	s0,sp,144
    183e:	0000                	unimp
    1840:	0501                	addi	a0,a0,0
    1842:	0609                	addi	a2,a2,2
    1844:	04097d03          	0x4097d03
    1848:	0100                	addi	s0,sp,128
    184a:	0b05                	addi	s6,s6,1
    184c:	00097e03          	0x97e03
    1850:	0100                	addi	s0,sp,128
    1852:	0d05                	addi	s10,s10,1
    1854:	0306                	slli	t1,t1,0x1
    1856:	0902                	c.slli64	s2
    1858:	0000                	unimp
    185a:	0501                	addi	a0,a0,0
    185c:	030c                	addi	a1,sp,384
    185e:	000c0903          	lb	s2,0(s8)
    1862:	0501                	addi	a0,a0,0
    1864:	097b030b          	0x97b030b
    1868:	0004                	0x4
    186a:	0501                	addi	a0,a0,0
    186c:	0605                	addi	a2,a2,1
    186e:	04090803          	lb	a6,64(s2)
    1872:	0100                	addi	s0,sp,128
    1874:	00096d03          	0x96d03
    1878:	0100                	addi	s0,sp,128
    187a:	0c090103          	lb	sp,192(s2)
    187e:	0100                	addi	s0,sp,128
    1880:	0c090103          	lb	sp,192(s2)
    1884:	0100                	addi	s0,sp,128
    1886:	0c090103          	lb	sp,192(s2)
    188a:	0100                	addi	s0,sp,128
    188c:	08090103          	lb	sp,128(s2)
    1890:	0100                	addi	s0,sp,128
    1892:	0900c703          	lbu	a4,144(ra)
    1896:	000c                	0xc
    1898:	0501                	addi	a0,a0,0
    189a:	060a                	slli	a2,a2,0x2
    189c:	00090003          	lb	zero,0(s2)
    18a0:	0100                	addi	s0,sp,128
    18a2:	0805                	addi	a6,a6,1
    18a4:	04090003          	lb	zero,64(s2)
    18a8:	0100                	addi	s0,sp,128
    18aa:	0505                	addi	a0,a0,1
    18ac:	0306                	slli	t1,t1,0x1
    18ae:	0902                	c.slli64	s2
    18b0:	0004                	0x4
    18b2:	0501                	addi	a0,a0,0
    18b4:	060a                	slli	a2,a2,0x2
    18b6:	00090003          	lb	zero,0(s2)
    18ba:	0100                	addi	s0,sp,128
    18bc:	0c05                	addi	s8,s8,1
    18be:	08090203          	lb	tp,128(s2)
    18c2:	0100                	addi	s0,sp,128
    18c4:	0805                	addi	a6,a6,1
    18c6:	04097e03          	0x4097e03
    18ca:	0100                	addi	s0,sp,128
    18cc:	0105                	addi	sp,sp,1
    18ce:	04090303          	lb	t1,64(s2)
    18d2:	0100                	addi	s0,sp,128
    18d4:	1005                	c.nop	-31
    18d6:	28097a03          	0x28097a03
    18da:	0100                	addi	s0,sp,128
    18dc:	0105                	addi	sp,sp,1
    18de:	04090603          	lb	a2,64(s2)
    18e2:	0100                	addi	s0,sp,128
    18e4:	1005                	c.nop	-31
    18e6:	08097c03          	0x8097c03
    18ea:	0100                	addi	s0,sp,128
    18ec:	08090203          	lb	tp,128(s2)
    18f0:	0100                	addi	s0,sp,128
    18f2:	0105                	addi	sp,sp,1
    18f4:	0306                	slli	t1,t1,0x1
    18f6:	0905                	addi	s2,s2,1
    18f8:	0008                	0x8
    18fa:	0501                	addi	a0,a0,0
    18fc:	0305                	addi	t1,t1,1
    18fe:	0902                	c.slli64	s2
    1900:	0000                	unimp
    1902:	0501                	addi	a0,a0,0
    1904:	060d                	addi	a2,a2,3
    1906:	00090003          	lb	zero,0(s2)
    190a:	0100                	addi	s0,sp,128
    190c:	0505                	addi	a0,a0,1
    190e:	0306                	slli	t1,t1,0x1
    1910:	0901                	addi	s2,s2,0
    1912:	0004                	0x4
    1914:	0501                	addi	a0,a0,0
    1916:	0003060f          	0x3060f
    191a:	0009                	c.nop	2
    191c:	0100                	addi	s0,sp,128
    191e:	0505                	addi	a0,a0,1
    1920:	0306                	slli	t1,t1,0x1
    1922:	0901                	addi	s2,s2,0
    1924:	0010                	0x10
    1926:	0501                	addi	a0,a0,0
    1928:	061c                	addi	a5,sp,768
    192a:	00090003          	lb	zero,0(s2)
    192e:	0100                	addi	s0,sp,128
    1930:	0f05                	addi	t5,t5,1
    1932:	04090003          	lb	zero,64(s2)
    1936:	0100                	addi	s0,sp,128
    1938:	0505                	addi	a0,a0,1
    193a:	0306                	slli	t1,t1,0x1
    193c:	0901                	addi	s2,s2,0
    193e:	0004                	0x4
    1940:	0501                	addi	a0,a0,0
    1942:	0601                	addi	a2,a2,0
    1944:	00090103          	lb	sp,0(s2)
    1948:	0100                	addi	s0,sp,128
    194a:	0306                	slli	t1,t1,0x1
    194c:	00080903          	lb	s2,0(a6)
    1950:	0501                	addi	a0,a0,0
    1952:	0305                	addi	t1,t1,1
    1954:	0902                	c.slli64	s2
    1956:	0000                	unimp
    1958:	0301                	addi	t1,t1,0
    195a:	0901                	addi	s2,s2,0
    195c:	0014                	0x14
    195e:	0501                	addi	a0,a0,0
    1960:	0609                	addi	a2,a2,2
    1962:	00090003          	lb	zero,0(s2)
    1966:	0100                	addi	s0,sp,128
    1968:	0505                	addi	a0,a0,1
    196a:	0306                	slli	t1,t1,0x1
    196c:	0901                	addi	s2,s2,0
    196e:	0004                	0x4
    1970:	0501                	addi	a0,a0,0
    1972:	060c                	addi	a1,sp,768
    1974:	00090003          	lb	zero,0(s2)
    1978:	0100                	addi	s0,sp,128
    197a:	2005                	jal	199a <ROM_BASE-0xbfffe666>
    197c:	04090003          	lb	zero,64(s2)
    1980:	0100                	addi	s0,sp,128
    1982:	0905                	addi	s2,s2,1
    1984:	04090003          	lb	zero,64(s2)
    1988:	0100                	addi	s0,sp,128
    198a:	0505                	addi	a0,a0,1
    198c:	0306                	slli	t1,t1,0x1
    198e:	0901                	addi	s2,s2,0
    1990:	0004                	0x4
    1992:	0501                	addi	a0,a0,0
    1994:	0610                	addi	a2,sp,768
    1996:	00090003          	lb	zero,0(s2)
    199a:	0100                	addi	s0,sp,128
    199c:	0905                	addi	s2,s2,1
    199e:	04090003          	lb	zero,64(s2)
    19a2:	0100                	addi	s0,sp,128
    19a4:	0505                	addi	a0,a0,1
    19a6:	0306                	slli	t1,t1,0x1
    19a8:	0901                	addi	s2,s2,0
    19aa:	0004                	0x4
    19ac:	0501                	addi	a0,a0,0
    19ae:	0619                	addi	a2,a2,6
    19b0:	00090003          	lb	zero,0(s2)
    19b4:	0100                	addi	s0,sp,128
    19b6:	0905                	addi	s2,s2,1
    19b8:	18090003          	lb	zero,384(s2)
    19bc:	0100                	addi	s0,sp,128
    19be:	0505                	addi	a0,a0,1
    19c0:	0306                	slli	t1,t1,0x1
    19c2:	0901                	addi	s2,s2,0
    19c4:	0004                	0x4
    19c6:	0501                	addi	a0,a0,0
    19c8:	0601                	addi	a2,a2,0
    19ca:	00090103          	lb	sp,0(s2)
    19ce:	0100                	addi	s0,sp,128
    19d0:	0306                	slli	t1,t1,0x1
    19d2:	000c0903          	lb	s2,0(s8)
    19d6:	0501                	addi	a0,a0,0
    19d8:	0305                	addi	t1,t1,1
    19da:	0901                	addi	s2,s2,0
    19dc:	0000                	unimp
    19de:	0301                	addi	t1,t1,0
    19e0:	0901                	addi	s2,s2,0
    19e2:	0000                	unimp
    19e4:	0501                	addi	a0,a0,0
    19e6:	0601                	addi	a2,a2,0
    19e8:	00097e03          	0x97e03
    19ec:	0100                	addi	s0,sp,128
    19ee:	34090003          	lb	zero,832(s2)
    19f2:	0100                	addi	s0,sp,128
    19f4:	0505                	addi	a0,a0,1
    19f6:	0306                	slli	t1,t1,0x1
    19f8:	00080903          	lb	s2,0(a6)
    19fc:	0301                	addi	t1,t1,0
    19fe:	0902                	c.slli64	s2
    1a00:	0000                	unimp
    1a02:	0301                	addi	t1,t1,0
    1a04:	0901                	addi	s2,s2,0
    1a06:	0000                	unimp
    1a08:	0501                	addi	a0,a0,0
    1a0a:	030a                	slli	t1,t1,0x2
    1a0c:	0900                	addi	s0,sp,144
    1a0e:	0000                	unimp
    1a10:	0501                	addi	a0,a0,0
    1a12:	0315                	addi	t1,t1,5
    1a14:	0900                	addi	s0,sp,144
    1a16:	0000                	unimp
    1a18:	0501                	addi	a0,a0,0
    1a1a:	0103060f          	0x103060f
    1a1e:	0809                	addi	a6,a6,2
    1a20:	0100                	addi	s0,sp,128
    1a22:	0905                	addi	s2,s2,1
    1a24:	0200                	addi	s0,sp,256
    1a26:	0304                	addi	s1,sp,384
    1a28:	0306                	slli	t1,t1,0x1
    1a2a:	0900                	addi	s0,sp,144
    1a2c:	0004                	0x4
    1a2e:	0501                	addi	a0,a0,0
    1a30:	0402000f          	0x402000f
    1a34:	00030603          	lb	a2,0(t1) # ffffa000 <_BSS_END_+0x3fff8cc0>
    1a38:	0009                	c.nop	2
    1a3a:	0100                	addi	s0,sp,128
    1a3c:	1e05                	addi	t3,t3,-31
    1a3e:	0200                	addi	s0,sp,256
    1a40:	0304                	addi	s1,sp,384
    1a42:	0306                	slli	t1,t1,0x1
    1a44:	097f                	0x97f
    1a46:	0004                	0x4
    1a48:	0501                	addi	a0,a0,0
    1a4a:	0015                	c.nop	5
    1a4c:	0402                	c.slli64	s0
    1a4e:	09000303          	lb	t1,144(zero) # 90 <ROM_BASE-0xbfffff70>
    1a52:	0000                	unimp
    1a54:	0501                	addi	a0,a0,0
    1a56:	0005                	c.nop	1
    1a58:	0402                	c.slli64	s0
    1a5a:	00030603          	lb	a2,0(t1)
    1a5e:	0009                	c.nop	2
    1a60:	0100                	addi	s0,sp,128
    1a62:	0306                	slli	t1,t1,0x1
    1a64:	00080903          	lb	s2,0(a6)
    1a68:	0301                	addi	t1,t1,0
    1a6a:	0901                	addi	s2,s2,0
    1a6c:	0000                	unimp
    1a6e:	0301                	addi	t1,t1,0
    1a70:	0964                	addi	s1,sp,156
    1a72:	0000                	unimp
    1a74:	0301                	addi	t1,t1,0
    1a76:	0901                	addi	s2,s2,0
    1a78:	0000                	unimp
    1a7a:	0301                	addi	t1,t1,0
    1a7c:	0901                	addi	s2,s2,0
    1a7e:	0000                	unimp
    1a80:	0301                	addi	t1,t1,0
    1a82:	0901                	addi	s2,s2,0
    1a84:	0000                	unimp
    1a86:	0301                	addi	t1,t1,0
    1a88:	091a                	slli	s2,s2,0x6
    1a8a:	0000                	unimp
    1a8c:	0301                	addi	t1,t1,0
    1a8e:	00000963          	beqz	zero,1aa0 <ROM_BASE-0xbfffe560>
    1a92:	0301                	addi	t1,t1,0
    1a94:	0901                	addi	s2,s2,0
    1a96:	0000                	unimp
    1a98:	0301                	addi	t1,t1,0
    1a9a:	0901                	addi	s2,s2,0
    1a9c:	0000                	unimp
    1a9e:	0301                	addi	t1,t1,0
    1aa0:	0901                	addi	s2,s2,0
    1aa2:	0000                	unimp
    1aa4:	0301                	addi	t1,t1,0
    1aa6:	0000091b          	0x91b
    1aaa:	0301                	addi	t1,t1,0
    1aac:	0962                	slli	s2,s2,0x18
    1aae:	0000                	unimp
    1ab0:	0301                	addi	t1,t1,0
    1ab2:	0901                	addi	s2,s2,0
    1ab4:	0000                	unimp
    1ab6:	0301                	addi	t1,t1,0
    1ab8:	0901                	addi	s2,s2,0
    1aba:	0000                	unimp
    1abc:	0301                	addi	t1,t1,0
    1abe:	0901                	addi	s2,s2,0
    1ac0:	0000                	unimp
    1ac2:	0301                	addi	t1,t1,0
    1ac4:	091c                	addi	a5,sp,144
    1ac6:	0000                	unimp
    1ac8:	0301                	addi	t1,t1,0
    1aca:	0961                	addi	s2,s2,24
    1acc:	0000                	unimp
    1ace:	0301                	addi	t1,t1,0
    1ad0:	0901                	addi	s2,s2,0
    1ad2:	0000                	unimp
    1ad4:	0301                	addi	t1,t1,0
    1ad6:	0901                	addi	s2,s2,0
    1ad8:	0000                	unimp
    1ada:	0301                	addi	t1,t1,0
    1adc:	0901                	addi	s2,s2,0
    1ade:	0000                	unimp
    1ae0:	0301                	addi	t1,t1,0
    1ae2:	091d                	addi	s2,s2,7
    1ae4:	0000                	unimp
    1ae6:	0301                	addi	t1,t1,0
    1ae8:	0960                	addi	s0,sp,156
    1aea:	0000                	unimp
    1aec:	0301                	addi	t1,t1,0
    1aee:	0901                	addi	s2,s2,0
    1af0:	0000                	unimp
    1af2:	0301                	addi	t1,t1,0
    1af4:	0901                	addi	s2,s2,0
    1af6:	0000                	unimp
    1af8:	0301                	addi	t1,t1,0
    1afa:	0901                	addi	s2,s2,0
    1afc:	0000                	unimp
    1afe:	0301                	addi	t1,t1,0
    1b00:	091e                	slli	s2,s2,0x7
    1b02:	0000                	unimp
    1b04:	0301                	addi	t1,t1,0
    1b06:	0901                	addi	s2,s2,0
    1b08:	0000                	unimp
    1b0a:	0501                	addi	a0,a0,0
    1b0c:	0609                	addi	a2,a2,2
    1b0e:	00090003          	lb	zero,0(s2)
    1b12:	0100                	addi	s0,sp,128
    1b14:	0a05                	addi	s4,s4,1
    1b16:	0c097203          	0xc097203
    1b1a:	0100                	addi	s0,sp,128
    1b1c:	0805                	addi	a6,a6,1
    1b1e:	04090e03          	lb	t3,64(s2)
    1b22:	0100                	addi	s0,sp,128
    1b24:	1905                	addi	s2,s2,-31
    1b26:	04096b03          	0x4096b03
    1b2a:	0100                	addi	s0,sp,128
    1b2c:	2605                	jal	1e4c <ROM_BASE-0xbfffe1b4>
    1b2e:	0900d903          	lhu	s2,144(ra)
    1b32:	0004                	0x4
    1b34:	0501                	addi	a0,a0,0
    1b36:	094b030f          	0x94b030f
    1b3a:	0004                	0x4
    1b3c:	0501                	addi	a0,a0,0
    1b3e:	0319                	addi	t1,t1,6
    1b40:	095c                	addi	a5,sp,148
    1b42:	0004                	0x4
    1b44:	0501                	addi	a0,a0,0
    1b46:	0326                	slli	t1,t1,0x9
    1b48:	00d9                	addi	ra,ra,22
    1b4a:	0409                	addi	s0,s0,2
    1b4c:	0100                	addi	s0,sp,128
    1b4e:	0d05                	addi	s10,s10,1
    1b50:	04090203          	lb	tp,64(s2)
    1b54:	0100                	addi	s0,sp,128
    1b56:	0200                	addi	s0,sp,256
    1b58:	0104                	addi	s1,sp,128
    1b5a:	0306                	slli	t1,t1,0x1
    1b5c:	094a                	slli	s2,s2,0x12
    1b5e:	0004                	0x4
    1b60:	0501                	addi	a0,a0,0
    1b62:	0402000f          	0x402000f
    1b66:	0301                	addi	t1,t1,0
    1b68:	097f                	0x97f
    1b6a:	0000                	unimp
    1b6c:	0501                	addi	a0,a0,0
    1b6e:	0005                	c.nop	1
    1b70:	0402                	c.slli64	s0
    1b72:	0301                	addi	t1,t1,0
    1b74:	7ed8                	flw	fa4,60(a3)
    1b76:	0009                	c.nop	2
    1b78:	0100                	addi	s0,sp,128
    1b7a:	0c05                	addi	s8,s8,1
    1b7c:	0200                	addi	s0,sp,256
    1b7e:	0104                	addi	s1,sp,128
    1b80:	0306                	slli	t1,t1,0x1
    1b82:	0900                	addi	s0,sp,144
    1b84:	0000                	unimp
    1b86:	0501                	addi	a0,a0,0
    1b88:	0402000f          	0x402000f
    1b8c:	0301                	addi	t1,t1,0
    1b8e:	01a8                	addi	a0,sp,200
    1b90:	0809                	addi	a6,a6,2
    1b92:	0100                	addi	s0,sp,128
    1b94:	04090003          	lb	zero,64(s2)
    1b98:	0100                	addi	s0,sp,128
    1b9a:	0d05                	addi	s10,s10,1
    1b9c:	04097e03          	0x4097e03
    1ba0:	0100                	addi	s0,sp,128
    1ba2:	0905                	addi	s2,s2,1
    1ba4:	0306                	slli	t1,t1,0x1
    1ba6:	0905                	addi	s2,s2,1
    1ba8:	000c                	0xc
    1baa:	0501                	addi	a0,a0,0
    1bac:	030d                	addi	t1,t1,3
    1bae:	0902                	c.slli64	s2
    1bb0:	0000                	unimp
    1bb2:	0301                	addi	t1,t1,0
    1bb4:	0901                	addi	s2,s2,0
    1bb6:	0000                	unimp
    1bb8:	0301                	addi	t1,t1,0
    1bba:	0901                	addi	s2,s2,0
    1bbc:	000c                	0xc
    1bbe:	0301                	addi	t1,t1,0
    1bc0:	0901                	addi	s2,s2,0
    1bc2:	0008                	0x8
    1bc4:	0301                	addi	t1,t1,0
    1bc6:	0901                	addi	s2,s2,0
    1bc8:	000c                	0xc
    1bca:	0301                	addi	t1,t1,0
    1bcc:	0901                	addi	s2,s2,0
    1bce:	0014                	0x14
    1bd0:	0301                	addi	t1,t1,0
    1bd2:	0901                	addi	s2,s2,0
    1bd4:	0010                	0x10
    1bd6:	0501                	addi	a0,a0,0
    1bd8:	0312                	slli	t1,t1,0x4
    1bda:	0900                	addi	s0,sp,144
    1bdc:	0000                	unimp
    1bde:	0501                	addi	a0,a0,0
    1be0:	031d                	addi	t1,t1,7
    1be2:	0900                	addi	s0,sp,144
    1be4:	0000                	unimp
    1be6:	0501                	addi	a0,a0,0
    1be8:	0011                	c.nop	4
    1bea:	0402                	c.slli64	s0
    1bec:	09020303          	lb	t1,144(tp) # ffff8090 <_BSS_END_+0x3fff6d50>
    1bf0:	0000                	unimp
    1bf2:	0501                	addi	a0,a0,0
    1bf4:	04020017          	auipc	zero,0x4020
    1bf8:	00030603          	lb	a2,0(t1)
    1bfc:	0009                	c.nop	2
    1bfe:	0100                	addi	s0,sp,128
    1c00:	0905                	addi	s2,s2,1
    1c02:	0200                	addi	s0,sp,256
    1c04:	0304                	addi	s1,sp,384
    1c06:	04094c03          	lbu	s8,64(s2)
    1c0a:	0100                	addi	s0,sp,128
    1c0c:	1705                	addi	a4,a4,-31
    1c0e:	0200                	addi	s0,sp,256
    1c10:	0304                	addi	s1,sp,384
    1c12:	08093403          	0x8093403
    1c16:	0100                	addi	s0,sp,128
    1c18:	0505                	addi	a0,a0,1
    1c1a:	0200                	addi	s0,sp,256
    1c1c:	0304                	addi	s1,sp,384
    1c1e:	0306                	slli	t1,t1,0x1
    1c20:	0004094b          	fnmsub.s	fs2,fs0,ft0,ft0,rne
    1c24:	0001                	nop
    1c26:	0402                	c.slli64	s0
    1c28:	09010303          	lb	t1,144(sp)
    1c2c:	0000                	unimp
    1c2e:	0501                	addi	a0,a0,0
    1c30:	0009                	c.nop	2
    1c32:	0402                	c.slli64	s0
    1c34:	00030603          	lb	a2,0(t1)
    1c38:	0009                	c.nop	2
    1c3a:	0100                	addi	s0,sp,128
    1c3c:	0505                	addi	a0,a0,1
    1c3e:	0200                	addi	s0,sp,256
    1c40:	0304                	addi	s1,sp,384
    1c42:	0306                	slli	t1,t1,0x1
    1c44:	0901                	addi	s2,s2,0
    1c46:	0010                	0x10
    1c48:	0501                	addi	a0,a0,0
    1c4a:	000c                	0xc
    1c4c:	0402                	c.slli64	s0
    1c4e:	00030603          	lb	a2,0(t1)
    1c52:	0009                	c.nop	2
    1c54:	0100                	addi	s0,sp,128
    1c56:	2005                	jal	1c76 <ROM_BASE-0xbfffe38a>
    1c58:	0200                	addi	s0,sp,256
    1c5a:	0304                	addi	s1,sp,384
    1c5c:	04090003          	lb	zero,64(s2)
    1c60:	0100                	addi	s0,sp,128
    1c62:	0905                	addi	s2,s2,1
    1c64:	0200                	addi	s0,sp,256
    1c66:	0304                	addi	s1,sp,384
    1c68:	04090003          	lb	zero,64(s2)
    1c6c:	0100                	addi	s0,sp,128
    1c6e:	0505                	addi	a0,a0,1
    1c70:	0200                	addi	s0,sp,256
    1c72:	0304                	addi	s1,sp,384
    1c74:	0306                	slli	t1,t1,0x1
    1c76:	0901                	addi	s2,s2,0
    1c78:	0004                	0x4
    1c7a:	0501                	addi	a0,a0,0
    1c7c:	0010                	0x10
    1c7e:	0402                	c.slli64	s0
    1c80:	00030603          	lb	a2,0(t1)
    1c84:	0009                	c.nop	2
    1c86:	0100                	addi	s0,sp,128
    1c88:	0905                	addi	s2,s2,1
    1c8a:	0200                	addi	s0,sp,256
    1c8c:	0304                	addi	s1,sp,384
    1c8e:	04090003          	lb	zero,64(s2)
    1c92:	0100                	addi	s0,sp,128
    1c94:	0505                	addi	a0,a0,1
    1c96:	0200                	addi	s0,sp,256
    1c98:	0304                	addi	s1,sp,384
    1c9a:	0306                	slli	t1,t1,0x1
    1c9c:	0901                	addi	s2,s2,0
    1c9e:	0004                	0x4
    1ca0:	0501                	addi	a0,a0,0
    1ca2:	0019                	c.nop	6
    1ca4:	0402                	c.slli64	s0
    1ca6:	00030603          	lb	a2,0(t1)
    1caa:	0009                	c.nop	2
    1cac:	0100                	addi	s0,sp,128
    1cae:	0905                	addi	s2,s2,1
    1cb0:	0200                	addi	s0,sp,256
    1cb2:	0304                	addi	s1,sp,384
    1cb4:	10090003          	lb	zero,256(s2)
    1cb8:	0100                	addi	s0,sp,128
    1cba:	0d05                	addi	s10,s10,1
    1cbc:	0200                	addi	s0,sp,256
    1cbe:	0304                	addi	s1,sp,384
    1cc0:	08092f03          	lw	t5,128(s2)
    1cc4:	0100                	addi	s0,sp,128
    1cc6:	0905                	addi	s2,s2,1
    1cc8:	0200                	addi	s0,sp,256
    1cca:	0304                	addi	s1,sp,384
    1ccc:	04095103          	lhu	sp,64(s2)
    1cd0:	0100                	addi	s0,sp,128
    1cd2:	0505                	addi	a0,a0,1
    1cd4:	0200                	addi	s0,sp,256
    1cd6:	0304                	addi	s1,sp,384
    1cd8:	0306                	slli	t1,t1,0x1
    1cda:	0901                	addi	s2,s2,0
    1cdc:	0004                	0x4
    1cde:	0501                	addi	a0,a0,0
    1ce0:	0035                	c.nop	13
    1ce2:	0402                	c.slli64	s0
    1ce4:	092e0303          	lb	t1,146(t3) # 1a092 <ROM_BASE-0xbffe5f6e>
    1ce8:	0000                	unimp
    1cea:	0501                	addi	a0,a0,0
    1cec:	001d                	c.nop	7
    1cee:	0402                	c.slli64	s0
    1cf0:	09000303          	lb	t1,144(zero) # 90 <ROM_BASE-0xbfffff70>
    1cf4:	0000                	unimp
    1cf6:	0501                	addi	a0,a0,0
    1cf8:	000d                	c.nop	3
    1cfa:	0402                	c.slli64	s0
    1cfc:	00030603          	lb	a2,0(t1)
    1d00:	0009                	c.nop	2
    1d02:	0100                	addi	s0,sp,128
    1d04:	0306                	slli	t1,t1,0x1
    1d06:	0904                	addi	s1,sp,144
    1d08:	0004                	0x4
    1d0a:	0501                	addi	a0,a0,0
    1d0c:	0003060f          	0x3060f
    1d10:	0009                	c.nop	2
    1d12:	0100                	addi	s0,sp,128
    1d14:	0d05                	addi	s10,s10,1
    1d16:	0306                	slli	t1,t1,0x1
    1d18:	0901                	addi	s2,s2,0
    1d1a:	0004                	0x4
    1d1c:	0501                	addi	a0,a0,0
    1d1e:	0311                	addi	t1,t1,4
    1d20:	0904                	addi	s1,sp,144
    1d22:	0000                	unimp
    1d24:	0501                	addi	a0,a0,0
    1d26:	0609                	addi	a2,a2,2
    1d28:	00090003          	lb	zero,0(s2)
    1d2c:	0100                	addi	s0,sp,128
    1d2e:	0c05                	addi	s8,s8,1
    1d30:	097ec403          	lbu	s0,151(t4)
    1d34:	0008                	0x8
    1d36:	0501                	addi	a0,a0,0
    1d38:	0311                	addi	t1,t1,4
    1d3a:	01be                	slli	gp,gp,0xf
    1d3c:	0809                	addi	a6,a6,2
    1d3e:	0100                	addi	s0,sp,128
    1d40:	0c05                	addi	s8,s8,1
    1d42:	097ec203          	lbu	tp,151(t4)
    1d46:	0008                	0x8
    1d48:	0501                	addi	a0,a0,0
    1d4a:	0311                	addi	t1,t1,4
    1d4c:	01be                	slli	gp,gp,0xf
    1d4e:	0409                	addi	s0,s0,2
    1d50:	0100                	addi	s0,sp,128
    1d52:	0c05                	addi	s8,s8,1
    1d54:	097ec203          	lbu	tp,151(t4)
    1d58:	0004                	0x4
    1d5a:	0501                	addi	a0,a0,0
    1d5c:	0311                	addi	t1,t1,4
    1d5e:	040901bf 0c050100 	0xc050100040901bf
    1d66:	04090103          	lb	sp,64(s2)
    1d6a:	0100                	addi	s0,sp,128
    1d6c:	0f05                	addi	t5,t5,1
    1d6e:	08097703          	0x8097703
    1d72:	0100                	addi	s0,sp,128
    1d74:	0905                	addi	s2,s2,1
    1d76:	0306                	slli	t1,t1,0x1
    1d78:	00040907          	0x40907
    1d7c:	0501                	addi	a0,a0,0
    1d7e:	0305                	addi	t1,t1,1
    1d80:	7ec2                	flw	ft9,48(sp)
    1d82:	0009                	c.nop	2
    1d84:	0100                	addi	s0,sp,128
    1d86:	0905                	addi	s2,s2,1
    1d88:	0901bf03          	0x901bf03
    1d8c:	0000                	unimp
    1d8e:	0501                	addi	a0,a0,0
    1d90:	0305                	addi	t1,t1,1
    1d92:	7ec1                	lui	t4,0xffff0
    1d94:	0009                	c.nop	2
    1d96:	0100                	addi	s0,sp,128
    1d98:	0905                	addi	s2,s2,1
    1d9a:	0901c003          	lbu	zero,144(gp)
    1d9e:	0000                	unimp
    1da0:	0501                	addi	a0,a0,0
    1da2:	060c                	addi	a1,sp,768
    1da4:	00090003          	lb	zero,0(s2)
    1da8:	0100                	addi	s0,sp,128
    1daa:	0905                	addi	s2,s2,1
    1dac:	0306                	slli	t1,t1,0x1
    1dae:	091d                	addi	s2,s2,7
    1db0:	0004                	0x4
    1db2:	0501                	addi	a0,a0,0
    1db4:	0626                	slli	a2,a2,0x9
    1db6:	00090003          	lb	zero,0(s2)
    1dba:	0100                	addi	s0,sp,128
    1dbc:	0c05                	addi	s8,s8,1
    1dbe:	04090003          	lb	zero,64(s2)
    1dc2:	0100                	addi	s0,sp,128
    1dc4:	0905                	addi	s2,s2,1
    1dc6:	0306                	slli	t1,t1,0x1
    1dc8:	0905                	addi	s2,s2,1
    1dca:	0008                	0x8
    1dcc:	0501                	addi	a0,a0,0
    1dce:	060d                	addi	a2,a2,3
    1dd0:	00097d03          	0x97d03
    1dd4:	0100                	addi	s0,sp,128
    1dd6:	0c05                	addi	s8,s8,1
    1dd8:	04090303          	lb	t1,64(s2)
    1ddc:	0100                	addi	s0,sp,128
    1dde:	0d05                	addi	s10,s10,1
    1de0:	0306                	slli	t1,t1,0x1
    1de2:	0906                	slli	s2,s2,0x1
    1de4:	0004                	0x4
    1de6:	0501                	addi	a0,a0,0
    1de8:	0605                	addi	a2,a2,1
    1dea:	00090003          	lb	zero,0(s2)
    1dee:	0100                	addi	s0,sp,128
    1df0:	0905                	addi	s2,s2,1
    1df2:	097fa403          	lw	s0,151(t6)
    1df6:	0008                	0x8
    1df8:	0501                	addi	a0,a0,0
    1dfa:	060d                	addi	a2,a2,3
    1dfc:	0900d303          	lhu	t1,144(ra)
    1e00:	0008                	0x8
    1e02:	0501                	addi	a0,a0,0
    1e04:	0309                	addi	t1,t1,2
    1e06:	000c0903          	lb	s2,0(s8)
    1e0a:	0501                	addi	a0,a0,0
    1e0c:	060d                	addi	a2,a2,3
    1e0e:	00097d03          	0x97d03
    1e12:	0100                	addi	s0,sp,128
    1e14:	0c05                	addi	s8,s8,1
    1e16:	04090303          	lb	t1,64(s2)
    1e1a:	0100                	addi	s0,sp,128
    1e1c:	0d05                	addi	s10,s10,1
    1e1e:	0306                	slli	t1,t1,0x1
    1e20:	0902                	c.slli64	s2
    1e22:	0004                	0x4
    1e24:	0301                	addi	t1,t1,0
    1e26:	0901                	addi	s2,s2,0
    1e28:	0008                	0x8
    1e2a:	0301                	addi	t1,t1,0
    1e2c:	0010096f          	jal	s2,262c <ROM_BASE-0xbfffd9d4>
    1e30:	0301                	addi	t1,t1,0
    1e32:	0904                	addi	s1,sp,144
    1e34:	000c                	0xc
    1e36:	0301                	addi	t1,t1,0
    1e38:	0902                	c.slli64	s2
    1e3a:	0000                	unimp
    1e3c:	0501                	addi	a0,a0,0
    1e3e:	0610                	addi	a2,sp,768
    1e40:	00097e03          	0x97e03
    1e44:	0100                	addi	s0,sp,128
    1e46:	0505                	addi	a0,a0,1
    1e48:	0306                	slli	t1,t1,0x1
    1e4a:	0912                	slli	s2,s2,0x4
    1e4c:	0004                	0x4
    1e4e:	0301                	addi	t1,t1,0
    1e50:	0902                	c.slli64	s2
    1e52:	000c                	0xc
    1e54:	0301                	addi	t1,t1,0
    1e56:	0901                	addi	s2,s2,0
    1e58:	0010                	0x10
    1e5a:	0301                	addi	t1,t1,0
    1e5c:	00097e93          	andi	t4,s2,0
    1e60:	0100                	addi	s0,sp,128
    1e62:	0c05                	addi	s8,s8,1
    1e64:	0306                	slli	t1,t1,0x1
    1e66:	0900                	addi	s0,sp,144
    1e68:	0000                	unimp
    1e6a:	0501                	addi	a0,a0,0
    1e6c:	0605                	addi	a2,a2,1
    1e6e:	0901ee03          	0x901ee03
    1e72:	0008                	0x8
    1e74:	0501                	addi	a0,a0,0
    1e76:	0601                	addi	a2,a2,0
    1e78:	00090103          	lb	sp,0(s2)
    1e7c:	0100                	addi	s0,sp,128
    1e7e:	0d05                	addi	s10,s10,1
    1e80:	0306                	slli	t1,t1,0x1
    1e82:	7fad                	lui	t6,0xfffeb
    1e84:	4009                	c.li	zero,2
    1e86:	0100                	addi	s0,sp,128
    1e88:	0505                	addi	a0,a0,1
    1e8a:	097ee403          	0x97ee403
    1e8e:	0000                	unimp
    1e90:	0501                	addi	a0,a0,0
    1e92:	0609                	addi	a2,a2,2
    1e94:	09019b03          	lh	s6,144(gp)
    1e98:	0000                	unimp
    1e9a:	0501                	addi	a0,a0,0
    1e9c:	030c                	addi	a1,sp,384
    1e9e:	7ee5                	lui	t4,0xffff9
    1ea0:	0409                	addi	s0,s0,2
    1ea2:	0100                	addi	s0,sp,128
    1ea4:	2005                	jal	1ec4 <ROM_BASE-0xbfffe13c>
    1ea6:	0306                	slli	t1,t1,0x1
    1ea8:	0809019b          	0x809019b
    1eac:	0100                	addi	s0,sp,128
    1eae:	1905                	addi	s2,s2,-31
    1eb0:	00090003          	lb	zero,0(s2)
    1eb4:	0100                	addi	s0,sp,128
    1eb6:	0905                	addi	s2,s2,1
    1eb8:	0306                	slli	t1,t1,0x1
    1eba:	0900                	addi	s0,sp,144
    1ebc:	0000                	unimp
    1ebe:	0601                	addi	a2,a2,0
    1ec0:	04090303          	lb	t1,64(s2)
    1ec4:	0100                	addi	s0,sp,128
    1ec6:	0c090103          	lb	sp,192(s2)
    1eca:	0100                	addi	s0,sp,128
    1ecc:	1005                	c.nop	-31
    1ece:	0306                	slli	t1,t1,0x1
    1ed0:	0900                	addi	s0,sp,144
    1ed2:	0000                	unimp
    1ed4:	0901                	addi	s2,s2,0
    1ed6:	0008                	0x8
    1ed8:	0100                	addi	s0,sp,128
    1eda:	1301                	addi	t1,t1,-32
    1edc:	0005                	c.nop	1
    1ede:	0300                	addi	s0,sp,384
    1ee0:	f800                	fsw	fs0,48(s0)
    1ee2:	0000                	unimp
    1ee4:	0100                	addi	s0,sp,128
    1ee6:	fb01                	bnez	a4,1df6 <ROM_BASE-0xbfffe20a>
    1ee8:	0d0e                	slli	s10,s10,0x3
    1eea:	0100                	addi	s0,sp,128
    1eec:	0101                	addi	sp,sp,0
    1eee:	0001                	nop
    1ef0:	0000                	unimp
    1ef2:	0001                	nop
    1ef4:	0100                	addi	s0,sp,128
    1ef6:	00637273          	csrrci	tp,0x6,6
    1efa:	74706f2f          	0x74706f2f
    1efe:	7369722f          	0x7369722f
    1f02:	722f7663          	bgeu	t5,sp,262e <ROM_BASE-0xbfffd9d2>
    1f06:	7369                	lui	t1,0xffffa
    1f08:	34367663          	bgeu	a2,gp,2254 <ROM_BASE-0xbfffddac>
    1f0c:	752d                	lui	a0,0xfffeb
    1f0e:	6b6e                	flw	fs6,216(sp)
    1f10:	6f6e                	flw	ft10,216(sp)
    1f12:	652d6e77          	0x652d6e77
    1f16:	666c                	flw	fa1,76(a2)
    1f18:	636e692f          	0x636e692f
    1f1c:	756c                	flw	fa1,108(a0)
    1f1e:	6564                	flw	fs1,76(a0)
    1f20:	63616d2f          	0x63616d2f
    1f24:	6968                	flw	fa0,84(a0)
    1f26:	656e                	flw	fa0,216(sp)
    1f28:	2f00                	fld	fs0,24(a4)
    1f2a:	2f74706f          	j	49a20 <ROM_BASE-0xbffb65e0>
    1f2e:	6972                	flw	fs2,28(sp)
    1f30:	2f766373          	csrrsi	t1,0x2f7,12
    1f34:	6972                	flw	fs2,28(sp)
    1f36:	36766373          	csrrsi	t1,0x367,12
    1f3a:	2d34                	fld	fa3,88(a0)
    1f3c:	6e75                	lui	t3,0x1d
    1f3e:	776f6e6b          	0x776f6e6b
    1f42:	2d6e                	fld	fs10,216(sp)
    1f44:	6c65                	lui	s8,0x19
    1f46:	2f66                	fld	ft10,88(sp)
    1f48:	6e69                	lui	t3,0x1a
    1f4a:	64756c63          	bltu	a0,t2,25a2 <ROM_BASE-0xbfffda5e>
    1f4e:	2f65                	jal	2706 <ROM_BASE-0xbfffd8fa>
    1f50:	00737973          	csrrci	s2,0x7,6
    1f54:	74706f2f          	0x74706f2f
    1f58:	7369722f          	0x7369722f
    1f5c:	6c2f7663          	bgeu	t5,sp,2628 <ROM_BASE-0xbfffd9d8>
    1f60:	6269                	lui	tp,0x1a
    1f62:	6363672f          	0x6363672f
    1f66:	7369722f          	0x7369722f
    1f6a:	34367663          	bgeu	a2,gp,22b6 <ROM_BASE-0xbfffdd4a>
    1f6e:	752d                	lui	a0,0xfffeb
    1f70:	6b6e                	flw	fs6,216(sp)
    1f72:	6f6e                	flw	ft10,216(sp)
    1f74:	652d6e77          	0x652d6e77
    1f78:	666c                	flw	fa1,76(a2)
    1f7a:	2e30312f          	0x2e30312f
    1f7e:	2e32                	fld	ft8,264(sp)
    1f80:	2f30                	fld	fa2,88(a4)
    1f82:	6e69                	lui	t3,0x1a
    1f84:	64756c63          	bltu	a0,t2,25dc <ROM_BASE-0xbfffda24>
    1f88:	0065                	c.nop	25
    1f8a:	6700                	flw	fs0,8(a4)
    1f8c:	7470                	flw	fa2,108(s0)
    1f8e:	632e                	flw	ft6,200(sp)
    1f90:	0100                	addi	s0,sp,128
    1f92:	0000                	unimp
    1f94:	645f 6665 7561      	0x75616665645f
    1f9a:	746c                	flw	fa1,108(s0)
    1f9c:	745f 7079 7365      	0x73657079745f
    1fa2:	682e                	flw	fa6,200(sp)
    1fa4:	0200                	addi	s0,sp,256
    1fa6:	0000                	unimp
    1fa8:	735f 6474 6e69      	0x6e696474735f
    1fae:	2e74                	fld	fa3,216(a2)
    1fb0:	0068                	addi	a0,sp,12
    1fb2:	67000003          	lb	zero,1648(zero) # 670 <ROM_BASE-0xbffff990>
    1fb6:	7470                	flw	fa2,108(s0)
    1fb8:	682e                	flw	fa6,200(sp)
    1fba:	0100                	addi	s0,sp,128
    1fbc:	0000                	unimp
    1fbe:	64647473          	csrrci	s0,0x646,8
    1fc2:	6665                	lui	a2,0x19
    1fc4:	682e                	flw	fa6,200(sp)
    1fc6:	0400                	addi	s0,sp,512
    1fc8:	0000                	unimp
    1fca:	6175                	addi	sp,sp,368
    1fcc:	7472                	flw	fs0,60(sp)
    1fce:	682e                	flw	fa6,200(sp)
    1fd0:	0100                	addi	s0,sp,128
    1fd2:	0000                	unimp
    1fd4:	682e6473          	csrrsi	s0,0x682,28
    1fd8:	0100                	addi	s0,sp,128
    1fda:	0000                	unimp
    1fdc:	0500                	addi	s0,sp,640
    1fde:	0001                	nop
    1fe0:	0205                	addi	tp,tp,1
    1fe2:	0c4c                	addi	a1,sp,532
    1fe4:	c000                	sw	s0,0(s0)
    1fe6:	0519                	addi	a0,a0,6
    1fe8:	0305                	addi	t1,t1,1
    1fea:	0901                	addi	s2,s2,0
    1fec:	0000                	unimp
    1fee:	0501                	addi	a0,a0,0
    1ff0:	0601                	addi	a2,a2,0
    1ff2:	00097f03          	0x97f03
    1ff6:	0100                	addi	s0,sp,128
    1ff8:	30090003          	lb	zero,768(s2)
    1ffc:	0100                	addi	s0,sp,128
    1ffe:	0f05                	addi	t5,t5,1
    2000:	04090103          	lb	sp,64(s2)
    2004:	0100                	addi	s0,sp,128
    2006:	0505                	addi	a0,a0,1
    2008:	0306                	slli	t1,t1,0x1
    200a:	0901                	addi	s2,s2,0
    200c:	0004                	0x4
    200e:	0501                	addi	a0,a0,0
    2010:	0608                	addi	a0,sp,768
    2012:	00090003          	lb	zero,0(s2)
    2016:	0100                	addi	s0,sp,128
    2018:	0505                	addi	a0,a0,1
    201a:	0306                	slli	t1,t1,0x1
    201c:	0905                	addi	s2,s2,1
    201e:	0004                	0x4
    2020:	0301                	addi	t1,t1,0
    2022:	000c0903          	lb	s2,0(s8) # 19000 <ROM_BASE-0xbffe7000>
    2026:	0301                	addi	t1,t1,0
    2028:	0901                	addi	s2,s2,0
    202a:	0000                	unimp
    202c:	0501                	addi	a0,a0,0
    202e:	060d                	addi	a2,a2,3
    2030:	00090003          	lb	zero,0(s2)
    2034:	0100                	addi	s0,sp,128
    2036:	0f05                	addi	t5,t5,1
    2038:	04090203          	lb	tp,64(s2)
    203c:	0100                	addi	s0,sp,128
    203e:	0d05                	addi	s10,s10,1
    2040:	10097e03          	0x10097e03
    2044:	0100                	addi	s0,sp,128
    2046:	0505                	addi	a0,a0,1
    2048:	0306                	slli	t1,t1,0x1
    204a:	0902                	c.slli64	s2
    204c:	0004                	0x4
    204e:	0501                	addi	a0,a0,0
    2050:	0003060f          	0x3060f
    2054:	0009                	c.nop	2
    2056:	0100                	addi	s0,sp,128
    2058:	0505                	addi	a0,a0,1
    205a:	0306                	slli	t1,t1,0x1
    205c:	0902                	c.slli64	s2
    205e:	0004                	0x4
    2060:	0501                	addi	a0,a0,0
    2062:	0608                	addi	a0,sp,768
    2064:	00090003          	lb	zero,0(s2)
    2068:	0100                	addi	s0,sp,128
    206a:	0505                	addi	a0,a0,1
    206c:	0306                	slli	t1,t1,0x1
    206e:	0909                	addi	s2,s2,2
    2070:	0004                	0x4
    2072:	0301                	addi	t1,t1,0
    2074:	0902                	c.slli64	s2
    2076:	0000                	unimp
    2078:	0301                	addi	t1,t1,0
    207a:	0901                	addi	s2,s2,0
    207c:	000c                	0xc
    207e:	0301                	addi	t1,t1,0
    2080:	0901                	addi	s2,s2,0
    2082:	000c                	0xc
    2084:	0301                	addi	t1,t1,0
    2086:	0901                	addi	s2,s2,0
    2088:	000c                	0xc
    208a:	0301                	addi	t1,t1,0
    208c:	0901                	addi	s2,s2,0
    208e:	000c                	0xc
    2090:	0301                	addi	t1,t1,0
    2092:	0901                	addi	s2,s2,0
    2094:	0008                	0x8
    2096:	0301                	addi	t1,t1,0
    2098:	0901                	addi	s2,s2,0
    209a:	000c                	0xc
    209c:	0301                	addi	t1,t1,0
    209e:	0901                	addi	s2,s2,0
    20a0:	0008                	0x8
    20a2:	0301                	addi	t1,t1,0
    20a4:	0901                	addi	s2,s2,0
    20a6:	000c                	0xc
    20a8:	0301                	addi	t1,t1,0
    20aa:	0901                	addi	s2,s2,0
    20ac:	0008                	0x8
    20ae:	0301                	addi	t1,t1,0
    20b0:	0901                	addi	s2,s2,0
    20b2:	000c                	0xc
    20b4:	0301                	addi	t1,t1,0
    20b6:	0901                	addi	s2,s2,0
    20b8:	0008                	0x8
    20ba:	0301                	addi	t1,t1,0
    20bc:	0901                	addi	s2,s2,0
    20be:	000c                	0xc
    20c0:	0301                	addi	t1,t1,0
    20c2:	0901                	addi	s2,s2,0
    20c4:	000c                	0xc
    20c6:	0301                	addi	t1,t1,0
    20c8:	0901                	addi	s2,s2,0
    20ca:	000c                	0xc
    20cc:	0301                	addi	t1,t1,0
    20ce:	0901                	addi	s2,s2,0
    20d0:	000c                	0xc
    20d2:	0301                	addi	t1,t1,0
    20d4:	0901                	addi	s2,s2,0
    20d6:	000c                	0xc
    20d8:	0301                	addi	t1,t1,0
    20da:	0901                	addi	s2,s2,0
    20dc:	000c                	0xc
    20de:	0301                	addi	t1,t1,0
    20e0:	0901                	addi	s2,s2,0
    20e2:	000c                	0xc
    20e4:	0301                	addi	t1,t1,0
    20e6:	0901                	addi	s2,s2,0
    20e8:	0008                	0x8
    20ea:	0301                	addi	t1,t1,0
    20ec:	0901                	addi	s2,s2,0
    20ee:	000c                	0xc
    20f0:	0301                	addi	t1,t1,0
    20f2:	0901                	addi	s2,s2,0
    20f4:	0008                	0x8
    20f6:	0301                	addi	t1,t1,0
    20f8:	0902                	c.slli64	s2
    20fa:	000c                	0xc
    20fc:	0501                	addi	a0,a0,0
    20fe:	0203060b          	0x203060b
    2102:	0009                	c.nop	2
    2104:	0100                	addi	s0,sp,128
    2106:	0d05                	addi	s10,s10,1
    2108:	04097e03          	0x4097e03
    210c:	0100                	addi	s0,sp,128
    210e:	0b05                	addi	s6,s6,1
    2110:	04090203          	lb	tp,64(s2)
    2114:	0100                	addi	s0,sp,128
    2116:	0d05                	addi	s10,s10,1
    2118:	0c097e03          	0xc097e03
    211c:	0100                	addi	s0,sp,128
    211e:	0505                	addi	a0,a0,1
    2120:	0306                	slli	t1,t1,0x1
    2122:	0902                	c.slli64	s2
    2124:	0004                	0x4
    2126:	0501                	addi	a0,a0,0
    2128:	0003060b          	0x3060b
    212c:	0009                	c.nop	2
    212e:	0100                	addi	s0,sp,128
    2130:	0505                	addi	a0,a0,1
    2132:	0306                	slli	t1,t1,0x1
    2134:	0902                	c.slli64	s2
    2136:	0004                	0x4
    2138:	0501                	addi	a0,a0,0
    213a:	0608                	addi	a0,sp,768
    213c:	00090003          	lb	zero,0(s2)
    2140:	0100                	addi	s0,sp,128
    2142:	0505                	addi	a0,a0,1
    2144:	10090903          	lb	s2,256(s2)
    2148:	0100                	addi	s0,sp,128
    214a:	0905                	addi	s2,s2,1
    214c:	0306                	slli	t1,t1,0x1
    214e:	0902                	c.slli64	s2
    2150:	0004                	0x4
    2152:	0301                	addi	t1,t1,0
    2154:	0901                	addi	s2,s2,0
    2156:	0000                	unimp
    2158:	0301                	addi	t1,t1,0
    215a:	0901                	addi	s2,s2,0
    215c:	000c                	0xc
    215e:	0301                	addi	t1,t1,0
    2160:	0901                	addi	s2,s2,0
    2162:	0008                	0x8
    2164:	0301                	addi	t1,t1,0
    2166:	0901                	addi	s2,s2,0
    2168:	000c                	0xc
    216a:	0501                	addi	a0,a0,0
    216c:	030e                	slli	t1,t1,0x3
    216e:	0900                	addi	s0,sp,144
    2170:	0000                	unimp
    2172:	0501                	addi	a0,a0,0
    2174:	0319                	addi	t1,t1,6
    2176:	0900                	addi	s0,sp,144
    2178:	0000                	unimp
    217a:	0501                	addi	a0,a0,0
    217c:	000d                	c.nop	3
    217e:	0402                	c.slli64	s0
    2180:	09010303          	lb	t1,144(sp)
    2184:	0004                	0x4
    2186:	0501                	addi	a0,a0,0
    2188:	0009                	c.nop	2
    218a:	0402                	c.slli64	s0
    218c:	7f030603          	lb	a2,2032(t1) # ffffa7f0 <_BSS_END_+0x3fff94b0>
    2190:	0409                	addi	s0,s0,2
    2192:	0100                	addi	s0,sp,128
    2194:	0d05                	addi	s10,s10,1
    2196:	0200                	addi	s0,sp,256
    2198:	0304                	addi	s1,sp,384
    219a:	04090103          	lb	sp,64(s2)
    219e:	0100                	addi	s0,sp,128
    21a0:	2105                	jal	25c0 <ROM_BASE-0xbfffda40>
    21a2:	0200                	addi	s0,sp,256
    21a4:	0304                	addi	s1,sp,384
    21a6:	0306                	slli	t1,t1,0x1
    21a8:	097f                	0x97f
    21aa:	0004                	0x4
    21ac:	0501                	addi	a0,a0,0
    21ae:	0019                	c.nop	6
    21b0:	0402                	c.slli64	s0
    21b2:	09000303          	lb	t1,144(zero) # 90 <ROM_BASE-0xbfffff70>
    21b6:	0000                	unimp
    21b8:	0501                	addi	a0,a0,0
    21ba:	0009                	c.nop	2
    21bc:	0402                	c.slli64	s0
    21be:	00030603          	lb	a2,0(t1)
    21c2:	0009                	c.nop	2
    21c4:	0100                	addi	s0,sp,128
    21c6:	0306                	slli	t1,t1,0x1
    21c8:	0902                	c.slli64	s2
    21ca:	0004                	0x4
    21cc:	0301                	addi	t1,t1,0
    21ce:	0901                	addi	s2,s2,0
    21d0:	000c                	0xc
    21d2:	0501                	addi	a0,a0,0
    21d4:	030e                	slli	t1,t1,0x3
    21d6:	0900                	addi	s0,sp,144
    21d8:	0000                	unimp
    21da:	0501                	addi	a0,a0,0
    21dc:	0319                	addi	t1,t1,6
    21de:	0900                	addi	s0,sp,144
    21e0:	0000                	unimp
    21e2:	0501                	addi	a0,a0,0
    21e4:	0609                	addi	a2,a2,2
    21e6:	00097f03          	0x97f03
    21ea:	0100                	addi	s0,sp,128
    21ec:	0d05                	addi	s10,s10,1
    21ee:	0200                	addi	s0,sp,256
    21f0:	0304                	addi	s1,sp,384
    21f2:	0306                	slli	t1,t1,0x1
    21f4:	0902                	c.slli64	s2
    21f6:	0004                	0x4
    21f8:	0501                	addi	a0,a0,0
    21fa:	0009                	c.nop	2
    21fc:	0402                	c.slli64	s0
    21fe:	7f030603          	lb	a2,2032(t1)
    2202:	0409                	addi	s0,s0,2
    2204:	0100                	addi	s0,sp,128
    2206:	0d05                	addi	s10,s10,1
    2208:	0200                	addi	s0,sp,256
    220a:	0304                	addi	s1,sp,384
    220c:	04090103          	lb	sp,64(s2)
    2210:	0100                	addi	s0,sp,128
    2212:	2105                	jal	2632 <ROM_BASE-0xbfffd9ce>
    2214:	0200                	addi	s0,sp,256
    2216:	0304                	addi	s1,sp,384
    2218:	0306                	slli	t1,t1,0x1
    221a:	097f                	0x97f
    221c:	0004                	0x4
    221e:	0501                	addi	a0,a0,0
    2220:	0019                	c.nop	6
    2222:	0402                	c.slli64	s0
    2224:	09000303          	lb	t1,144(zero) # 90 <ROM_BASE-0xbfffff70>
    2228:	0000                	unimp
    222a:	0501                	addi	a0,a0,0
    222c:	0009                	c.nop	2
    222e:	0402                	c.slli64	s0
    2230:	00030603          	lb	a2,0(t1)
    2234:	0009                	c.nop	2
    2236:	0100                	addi	s0,sp,128
    2238:	0306                	slli	t1,t1,0x1
    223a:	0902                	c.slli64	s2
    223c:	0004                	0x4
    223e:	0301                	addi	t1,t1,0
    2240:	0901                	addi	s2,s2,0
    2242:	000c                	0xc
    2244:	0301                	addi	t1,t1,0
    2246:	0901                	addi	s2,s2,0
    2248:	0010                	0x10
    224a:	0301                	addi	t1,t1,0
    224c:	0901                	addi	s2,s2,0
    224e:	000c                	0xc
    2250:	0301                	addi	t1,t1,0
    2252:	0901                	addi	s2,s2,0
    2254:	000c                	0xc
    2256:	0301                	addi	t1,t1,0
    2258:	0901                	addi	s2,s2,0
    225a:	000c                	0xc
    225c:	0301                	addi	t1,t1,0
    225e:	0901                	addi	s2,s2,0
    2260:	000c                	0xc
    2262:	0301                	addi	t1,t1,0
    2264:	0901                	addi	s2,s2,0
    2266:	000c                	0xc
    2268:	0501                	addi	a0,a0,0
    226a:	030e                	slli	t1,t1,0x3
    226c:	0900                	addi	s0,sp,144
    226e:	0000                	unimp
    2270:	0501                	addi	a0,a0,0
    2272:	0319                	addi	t1,t1,6
    2274:	0900                	addi	s0,sp,144
    2276:	0000                	unimp
    2278:	0501                	addi	a0,a0,0
    227a:	000d                	c.nop	3
    227c:	0402                	c.slli64	s0
    227e:	09010303          	lb	t1,144(sp)
    2282:	0000                	unimp
    2284:	0501                	addi	a0,a0,0
    2286:	0009                	c.nop	2
    2288:	0402                	c.slli64	s0
    228a:	7f030603          	lb	a2,2032(t1)
    228e:	0409                	addi	s0,s0,2
    2290:	0100                	addi	s0,sp,128
    2292:	0d05                	addi	s10,s10,1
    2294:	0200                	addi	s0,sp,256
    2296:	0304                	addi	s1,sp,384
    2298:	04090103          	lb	sp,64(s2)
    229c:	0100                	addi	s0,sp,128
    229e:	2105                	jal	26be <ROM_BASE-0xbfffd942>
    22a0:	0200                	addi	s0,sp,256
    22a2:	0304                	addi	s1,sp,384
    22a4:	0306                	slli	t1,t1,0x1
    22a6:	097f                	0x97f
    22a8:	0004                	0x4
    22aa:	0501                	addi	a0,a0,0
    22ac:	0019                	c.nop	6
    22ae:	0402                	c.slli64	s0
    22b0:	09000303          	lb	t1,144(zero) # 90 <ROM_BASE-0xbfffff70>
    22b4:	0000                	unimp
    22b6:	0501                	addi	a0,a0,0
    22b8:	0009                	c.nop	2
    22ba:	0402                	c.slli64	s0
    22bc:	00030603          	lb	a2,0(t1)
    22c0:	0009                	c.nop	2
    22c2:	0100                	addi	s0,sp,128
    22c4:	0200                	addi	s0,sp,256
    22c6:	0204                	addi	s1,sp,256
    22c8:	0306                	slli	t1,t1,0x1
    22ca:	0902                	c.slli64	s2
    22cc:	0004                	0x4
    22ce:	0501                	addi	a0,a0,0
    22d0:	001d                	c.nop	7
    22d2:	0402                	c.slli64	s0
    22d4:	0602                	c.slli64	a2
    22d6:	08096c03          	0x8096c03
    22da:	0100                	addi	s0,sp,128
    22dc:	0905                	addi	s2,s2,1
    22de:	0200                	addi	s0,sp,256
    22e0:	0204                	addi	s1,sp,256
    22e2:	04091403          	lh	s0,64(s2)
    22e6:	0100                	addi	s0,sp,128
    22e8:	1c05                	addi	s8,s8,-31
    22ea:	0200                	addi	s0,sp,256
    22ec:	0204                	addi	s1,sp,256
    22ee:	0306                	slli	t1,t1,0x1
    22f0:	096c                	addi	a1,sp,156
    22f2:	0004                	0x4
    22f4:	0501                	addi	a0,a0,0
    22f6:	0015                	c.nop	5
    22f8:	0402                	c.slli64	s0
    22fa:	0302                	c.slli64	t1
    22fc:	0900                	addi	s0,sp,144
    22fe:	0000                	unimp
    2300:	0501                	addi	a0,a0,0
    2302:	0005                	c.nop	1
    2304:	0402                	c.slli64	s0
    2306:	0602                	c.slli64	a2
    2308:	00090003          	lb	zero,0(s2)
    230c:	0100                	addi	s0,sp,128
    230e:	0306                	slli	t1,t1,0x1
    2310:	00100917          	auipc	s2,0x100
    2314:	0301                	addi	t1,t1,0
    2316:	0901                	addi	s2,s2,0
    2318:	0000                	unimp
    231a:	0301                	addi	t1,t1,0
    231c:	0901                	addi	s2,s2,0
    231e:	000c                	0xc
    2320:	0501                	addi	a0,a0,0
    2322:	0003060b          	0x3060b
    2326:	0009                	c.nop	2
    2328:	0100                	addi	s0,sp,128
    232a:	0505                	addi	a0,a0,1
    232c:	0306                	slli	t1,t1,0x1
    232e:	0902                	c.slli64	s2
    2330:	001c                	0x1c
    2332:	0501                	addi	a0,a0,0
    2334:	0608                	addi	a0,sp,768
    2336:	00090003          	lb	zero,0(s2) # 102310 <ROM_BASE-0xbfefdcf0>
    233a:	0100                	addi	s0,sp,128
    233c:	0505                	addi	a0,a0,1
    233e:	0306                	slli	t1,t1,0x1
    2340:	0909                	addi	s2,s2,2
    2342:	0004                	0x4
    2344:	0301                	addi	t1,t1,0
    2346:	0901                	addi	s2,s2,0
    2348:	000c                	0xc
    234a:	0501                	addi	a0,a0,0
    234c:	0601                	addi	a2,a2,0
    234e:	00090103          	lb	sp,0(s2)
    2352:	0100                	addi	s0,sp,128
    2354:	0905                	addi	s2,s2,1
    2356:	0306                	slli	t1,t1,0x1
    2358:	7f9f 3809 0100      	0x10038097f9f
    235e:	0c090103          	lb	sp,192(s2)
    2362:	0100                	addi	s0,sp,128
    2364:	1005                	c.nop	-31
    2366:	0306                	slli	t1,t1,0x1
    2368:	0900                	addi	s0,sp,144
    236a:	0000                	unimp
    236c:	0501                	addi	a0,a0,0
    236e:	0609                	addi	a2,a2,2
    2370:	0900d703          	lhu	a4,144(ra)
    2374:	0008                	0x8
    2376:	0301                	addi	t1,t1,0
    2378:	0901                	addi	s2,s2,0
    237a:	000c                	0xc
    237c:	0301                	addi	t1,t1,0
    237e:	0901                	addi	s2,s2,0
    2380:	000c                	0xc
    2382:	0301                	addi	t1,t1,0
    2384:	0901                	addi	s2,s2,0
    2386:	000c                	0xc
    2388:	0301                	addi	t1,t1,0
    238a:	0901                	addi	s2,s2,0
    238c:	000c                	0xc
    238e:	0501                	addi	a0,a0,0
    2390:	0610                	addi	a2,sp,768
    2392:	00090003          	lb	zero,0(s2)
    2396:	0100                	addi	s0,sp,128
    2398:	0905                	addi	s2,s2,1
    239a:	0306                	slli	t1,t1,0x1
    239c:	0958                	addi	a4,sp,148
    239e:	0008                	0x8
    23a0:	0301                	addi	t1,t1,0
    23a2:	0901                	addi	s2,s2,0
    23a4:	000c                	0xc
    23a6:	0301                	addi	t1,t1,0
    23a8:	0901                	addi	s2,s2,0
    23aa:	000c                	0xc
    23ac:	0301                	addi	t1,t1,0
    23ae:	0901                	addi	s2,s2,0
    23b0:	000c                	0xc
    23b2:	0301                	addi	t1,t1,0
    23b4:	0901                	addi	s2,s2,0
    23b6:	000c                	0xc
    23b8:	0501                	addi	a0,a0,0
    23ba:	0610                	addi	a2,sp,768
    23bc:	00090003          	lb	zero,0(s2)
    23c0:	0100                	addi	s0,sp,128
    23c2:	0905                	addi	s2,s2,1
    23c4:	0306                	slli	t1,t1,0x1
    23c6:	0956                	slli	s2,s2,0x15
    23c8:	0008                	0x8
    23ca:	0301                	addi	t1,t1,0
    23cc:	0901                	addi	s2,s2,0
    23ce:	000c                	0xc
    23d0:	0301                	addi	t1,t1,0
    23d2:	0901                	addi	s2,s2,0
    23d4:	000c                	0xc
    23d6:	0301                	addi	t1,t1,0
    23d8:	0901                	addi	s2,s2,0
    23da:	000c                	0xc
    23dc:	0301                	addi	t1,t1,0
    23de:	0901                	addi	s2,s2,0
    23e0:	000c                	0xc
    23e2:	0501                	addi	a0,a0,0
    23e4:	0610                	addi	a2,sp,768
    23e6:	00090003          	lb	zero,0(s2)
    23ea:	0100                	addi	s0,sp,128
    23ec:	0809                	addi	a6,a6,2
    23ee:	0000                	unimp
    23f0:	0101                	addi	sp,sp,0

Disassembly of section .debug_info:

00000000 <.debug_info>:
       0:	0022                	c.slli	zero,0x8
       2:	0000                	unimp
       4:	0002                	c.slli64	zero
       6:	0000                	unimp
       8:	0000                	unimp
       a:	0104                	addi	s1,sp,128
       c:	0000                	unimp
       e:	0000                	unimp
      10:	0000                	unimp
      12:	c000                	sw	s0,0(s0)
      14:	0020                	addi	s0,sp,8
      16:	c000                	sw	s0,0(s0)
      18:	0000                	unimp
      1a:	0000                	unimp
      1c:	000a                	c.slli	zero,0x2
      1e:	0000                	unimp
      20:	002c                	addi	a1,sp,8
      22:	0000                	unimp
      24:	8001                	c.srli64	s0
      26:	0109                	addi	sp,sp,2
      28:	0000                	unimp
      2a:	0004                	0x4
      2c:	0014                	0x14
      2e:	0000                	unimp
      30:	0104                	addi	s1,sp,128
      32:	003a                	c.slli	zero,0xe
      34:	0000                	unimp
      36:	3c0c                	fld	fa1,56(s0)
      38:	0001                	nop
      3a:	0a00                	addi	s0,sp,272
	...
      44:	0000                	unimp
      46:	6400                	flw	fs0,8(s0)
      48:	0000                	unimp
      4a:	0200                	addi	s0,sp,256
      4c:	0601                	addi	a2,a2,0
      4e:	000000db          	0xdb
      52:	0000ba03          	0xba03
      56:	0200                	addi	s0,sp,256
      58:	0038182b          	0x38182b
      5c:	0000                	unimp
      5e:	0102                	c.slli64	sp
      60:	d908                	sw	a0,48(a0)
      62:	0000                	unimp
      64:	0200                	addi	s0,sp,256
      66:	0502                	c.slli64	a0
      68:	00000147          	fmsub.s	ft2,ft0,ft0,ft0,rne
      6c:	0202                	c.slli64	tp
      6e:	0000e707          	0xe707
      72:	0200                	addi	s0,sp,256
      74:	0504                	addi	s1,sp,640
      76:	00000133          	add	sp,zero,zero
      7a:	0402                	c.slli64	s0
      7c:	00011c07          	0x11c07
      80:	0200                	addi	s0,sp,256
      82:	0508                	addi	a0,sp,640
      84:	012e                	slli	sp,sp,0xb
      86:	0000                	unimp
      88:	0802                	c.slli64	a6
      8a:	00011707          	0x11707
      8e:	0400                	addi	s0,sp,512
      90:	0504                	addi	s1,sp,640
      92:	6e69                	lui	t3,0x1a
      94:	0074                	addi	a3,sp,12
      96:	0402                	c.slli64	s0
      98:	00012107          	flw	ft2,0(sp)
      9c:	0300                	addi	s0,sp,384
      9e:	00bc                	addi	a5,sp,72
      a0:	0000                	unimp
      a2:	2c131803          	lh	a6,705(t1)
      a6:	0000                	unimp
      a8:	0500                	addi	s0,sp,640
      aa:	00fa                	slli	ra,ra,0x1e
      ac:	0000                	unimp
      ae:	0701                	addi	a4,a4,0
      b0:	6905                	lui	s2,0x1
      b2:	0000                	unimp
      b4:	dc00                	sw	s0,56(s0)
      b6:	40c0000f          	0x40c0000f
      ba:	0000                	unimp
      bc:	0100                	addi	s0,sp,128
      be:	e89c                	fsw	fa5,16(s1)
      c0:	0000                	unimp
      c2:	0600                	addi	s0,sp,768
      c4:	6572                	flw	fa0,28(sp)
      c6:	0c010073          	0xc010073
      ca:	6909                	lui	s2,0x2
      cc:	0000                	unimp
      ce:	0700                	addi	s0,sp,896
      d0:	0ff4                	addi	a3,sp,988
      d2:	c000                	sw	s0,0(s0)
      d4:	00e8                	addi	a0,sp,76
      d6:	0000                	unimp
      d8:	00c5                	addi	ra,ra,17
      da:	0000                	unimp
      dc:	0108                	addi	a0,sp,128
      de:	035a                	slli	t1,t1,0x16
      e0:	4840                	lw	s0,20(s0)
      e2:	0824                	addi	s1,sp,24
      e4:	5b01                	li	s6,-32
      e6:	25800a03          	lb	s4,600(zero) # 258 <ROM_BASE-0xbffffda8>
      ea:	0900                	addi	s0,sp,144
      ec:	1000                	addi	s0,sp,32
      ee:	c000                	sw	s0,0(s0)
      f0:	00f4                	addi	a3,sp,76
      f2:	0000                	unimp
      f4:	0c0a                	slli	s8,s8,0x2
      f6:	0010                	0x10
      f8:	00c0                	addi	s0,sp,68
      fa:	0001                	nop
      fc:	0800                	addi	s0,sp,16
      fe:	5a01                	li	s4,-32
     100:	4004                	lw	s1,0(s0)
     102:	081f244b          	fnmsub.s	fs0,ft10,ft1,ft1,rdn
     106:	5b01                	li	s6,-32
     108:	80000a03          	lb	s4,-2048(zero) # fffff800 <_BSS_END_+0x3fffe4c0>
     10c:	0000                	unimp
     10e:	0000c40b          	0xc40b
     112:	c400                	sw	s0,8(s0)
     114:	0000                	unimp
     116:	0400                	addi	s0,sp,512
     118:	0609                	addi	a2,a2,2
     11a:	0000ce0b          	0xce0b
     11e:	ce00                	sw	s0,24(a2)
     120:	0000                	unimp
     122:	0400                	addi	s0,sp,512
     124:	ff0b060b          	0xff0b060b
     128:	0000                	unimp
     12a:	ff00                	fsw	fs0,56(a4)
     12c:	0000                	unimp
     12e:	0500                	addi	s0,sp,640
     130:	28000527          	0x28000527
     134:	0004                	0x4
     136:	0400                	addi	s0,sp,512
     138:	ba00                	fsd	fs0,48(a2)
     13a:	0000                	unimp
     13c:	0400                	addi	s0,sp,512
     13e:	3a01                	jal	fffffa4e <_BSS_END_+0x3fffe70e>
     140:	0000                	unimp
     142:	0c00                	addi	s0,sp,528
     144:	0160                	addi	s0,sp,140
     146:	0000                	unimp
     148:	000a                	c.slli	zero,0x2
     14a:	0000                	unimp
     14c:	0020                	addi	s0,sp,8
     14e:	c000                	sw	s0,0(s0)
     150:	01c8                	addi	a0,sp,196
     152:	0000                	unimp
     154:	017f                	0x17f
     156:	0000                	unimp
     158:	0102                	c.slli64	sp
     15a:	db06                	sw	ra,180(sp)
     15c:	0000                	unimp
     15e:	0300                	addi	s0,sp,384
     160:	00ba                	slli	ra,ra,0xe
     162:	0000                	unimp
     164:	2b02                	fld	fs6,0(sp)
     166:	3818                	fld	fa4,48(s0)
     168:	0000                	unimp
     16a:	0200                	addi	s0,sp,256
     16c:	0801                	addi	a6,a6,0
     16e:	00d9                	addi	ra,ra,22
     170:	0000                	unimp
     172:	0202                	c.slli64	tp
     174:	4705                	li	a4,1
     176:	0001                	nop
     178:	0200                	addi	s0,sp,256
     17a:	0702                	c.slli64	a4
     17c:	000000e7          	jalr	zero # 0 <ROM_BASE-0xc0000000>
     180:	0402                	c.slli64	s0
     182:	3305                	jal	fffffea2 <_BSS_END_+0x3fffeb62>
     184:	0001                	nop
     186:	0300                	addi	s0,sp,384
     188:	018e                	slli	gp,gp,0x3
     18a:	0000                	unimp
     18c:	4f02                	lw	t5,0(sp)
     18e:	6019                	c.lui	zero,0x6
     190:	0000                	unimp
     192:	0200                	addi	s0,sp,256
     194:	0704                	addi	s1,sp,896
     196:	011c                	addi	a5,sp,128
     198:	0000                	unimp
     19a:	0802                	c.slli64	a6
     19c:	2e05                	jal	4cc <ROM_BASE-0xbffffb34>
     19e:	0001                	nop
     1a0:	0300                	addi	s0,sp,384
     1a2:	01cd                	addi	gp,gp,19
     1a4:	0000                	unimp
     1a6:	6902                	flw	fs2,0(sp)
     1a8:	7a19                	lui	s4,0xfffe6
     1aa:	0000                	unimp
     1ac:	0200                	addi	s0,sp,256
     1ae:	0708                	addi	a0,sp,896
     1b0:	00000117          	auipc	sp,0x0
     1b4:	0404                	addi	s1,sp,512
     1b6:	6905                	lui	s2,0x1
     1b8:	746e                	flw	fs0,248(sp)
     1ba:	0200                	addi	s0,sp,256
     1bc:	0704                	addi	s1,sp,896
     1be:	0121                	addi	sp,sp,8
     1c0:	0000                	unimp
     1c2:	0000bc03          	0xbc03
     1c6:	0300                	addi	s0,sp,384
     1c8:	1318                	addi	a4,sp,416
     1ca:	002c                	addi	a1,sp,8
     1cc:	0000                	unimp
     1ce:	00019003          	lh	zero,0(gp)
     1d2:	0300                	addi	s0,sp,384
     1d4:	1430                	addi	a2,sp,552
     1d6:	0054                	addi	a3,sp,4
     1d8:	0000                	unimp
     1da:	9b05                	andi	a4,a4,-31
     1dc:	0000                	unimp
     1de:	0300                	addi	s0,sp,384
     1e0:	000001cf          	fnmadd.s	ft3,ft0,ft0,ft0,rne
     1e4:	6e143c03          	0x6e143c03
     1e8:	0000                	unimp
     1ea:	0600                	addi	s0,sp,768
     1ec:	017c                	addi	a5,sp,140
     1ee:	0000                	unimp
     1f0:	3301                	jal	fffffef0 <_BSS_END_+0x3fffebb0>
     1f2:	0000ca1b          	0xca1b
     1f6:	0500                	addi	s0,sp,640
     1f8:	00133c03          	0x133c03
     1fc:	07c0                	addi	s0,sp,964
     1fe:	a704                	fsd	fs1,8(a4)
     200:	0000                	unimp
     202:	0800                	addi	s0,sp,16
     204:	0000008f          	0x8f
     208:	00e0                	addi	s0,sp,76
     20a:	0000                	unimp
     20c:	8809                	andi	s0,s0,2
     20e:	0000                	unimp
     210:	0f00                	addi	s0,sp,912
     212:	0a00                	addi	s0,sp,272
     214:	0000016b          	0x16b
     218:	5901                	li	s2,-32
     21a:	d009                	beqz	s0,11c <ROM_BASE-0xbffffee4>
     21c:	0000                	unimp
     21e:	0500                	addi	s0,sp,640
     220:	00101c03          	lh	s8,1(zero) # 1 <ROM_BASE-0xbfffffff>
     224:	0bc0                	addi	s0,sp,468
     226:	01ad                	addi	gp,gp,11
     228:	0000                	unimp
     22a:	7d01                	lui	s10,0xfffe0
     22c:	9c06                	add	s8,s8,ra
     22e:	0001                	nop
     230:	4cc0                	lw	s0,28(s1)
     232:	0000                	unimp
     234:	0100                	addi	s0,sp,128
     236:	8b9c                	0x8b9c
     238:	0001                	nop
     23a:	0c00                	addi	s0,sp,528
     23c:	01b8                	addi	a4,sp,200
     23e:	0000                	unimp
     240:	7d01                	lui	s10,0xfffe0
     242:	8f1e                	mv	t5,t2
     244:	0000                	unimp
     246:	0000                	unimp
     248:	0000                	unimp
     24a:	0d00                	addi	s0,sp,656
     24c:	6568                	flw	fa0,76(a0)
     24e:	0078                	addi	a4,sp,12
     250:	7f01                	lui	t5,0xfffe0
     252:	8b0d                	andi	a4,a4,3
     254:	0001                	nop
     256:	0600                	addi	s0,sp,768
     258:	935c                	0x935c
     25a:	5d01                	li	s10,-32
     25c:	100e0193          	addi	gp,t3,256 # 1a100 <ROM_BASE-0xbffe5f00>
     260:	9c000003          	lb	zero,-1600(zero) # fffff9c0 <_BSS_END_+0x3fffe680>
     264:	0001                	nop
     266:	90c0                	0x90c0
     268:	0000                	unimp
     26a:	0100                	addi	s0,sp,128
     26c:	0580                	addi	s0,sp,704
     26e:	0152                	slli	sp,sp,0x14
     270:	0000                	unimp
     272:	0003290f          	0x3290f
     276:	2100                	fld	fs0,0(a0)
     278:	0000                	unimp
     27a:	0f00                	addi	s0,sp,912
     27c:	031d                	addi	t1,t1,7
     27e:	0000                	unimp
     280:	0039                	c.nop	14
     282:	0000                	unimp
     284:	0e00                	addi	s0,sp,784
     286:	0000038f          	0x38f
     28a:	01b8                	addi	a4,sp,200
     28c:	c000                	sw	s0,0(s0)
     28e:	00a8                	addi	a0,sp,72
     290:	0000                	unimp
     292:	8101                	c.srli64	a0
     294:	7005                	c.lui	zero,0xfffe1
     296:	0001                	nop
     298:	0f00                	addi	s0,sp,912
     29a:	03a0                	addi	s0,sp,456
     29c:	0000                	unimp
     29e:	005a                	c.slli	zero,0x16
     2a0:	0000                	unimp
     2a2:	1000                	addi	s0,sp,32
     2a4:	0000038f          	0x38f
     2a8:	01d4                	addi	a3,sp,196
     2aa:	c000                	sw	s0,0(s0)
     2ac:	0010                	0x10
     2ae:	0000                	unimp
     2b0:	8201                	c.srli64	a2
     2b2:	0f05                	addi	t5,t5,1
     2b4:	03a0                	addi	s0,sp,456
     2b6:	0000                	unimp
     2b8:	006d                	c.nop	27
     2ba:	0000                	unimp
     2bc:	0000                	unimp
     2be:	8f08                	0x8f08
     2c0:	0000                	unimp
     2c2:	9b00                	0x9b00
     2c4:	0001                	nop
     2c6:	0900                	addi	s0,sp,144
     2c8:	0088                	addi	a0,sp,64
     2ca:	0000                	unimp
     2cc:	0001                	nop
     2ce:	0001bd0b          	0x1bd0b
     2d2:	0100                	addi	s0,sp,128
     2d4:	0670                	addi	a2,sp,780
     2d6:	0114                	addi	a3,sp,128
     2d8:	c000                	sw	s0,0(s0)
     2da:	0088                	addi	a0,sp,64
     2dc:	0000                	unimp
     2de:	9c01                	0x9c01
     2e0:	0258                	addi	a4,sp,260
     2e2:	0000                	unimp
     2e4:	0011                	c.nop	4
     2e6:	0002                	c.slli64	zero
     2e8:	0100                	addi	s0,sp,128
     2ea:	1f70                	addi	a2,sp,956
     2ec:	00ac                	addi	a1,sp,72
     2ee:	0000                	unimp
     2f0:	5a06                	lw	s4,96(sp)
     2f2:	935b0493          	addi	s1,s6,-1739
     2f6:	1204                	addi	s1,sp,288
     2f8:	0069                	c.nop	26
     2fa:	7201                	lui	tp,0xfffe0
     2fc:	8109                	srli	a0,a0,0x2
     2fe:	0000                	unimp
     300:	8000                	0x8000
     302:	0000                	unimp
     304:	1300                	addi	s0,sp,416
     306:	0058                	addi	a4,sp,4
     308:	0000                	unimp
     30a:	6312                	flw	ft6,4(sp)
     30c:	7275                	lui	tp,0xffffd
     30e:	0100                	addi	s0,sp,128
     310:	1175                	addi	sp,sp,-3
     312:	0000008f          	0x8f
     316:	0094                	addi	a3,sp,64
     318:	0000                	unimp
     31a:	6812                	flw	fa6,4(sp)
     31c:	7865                	lui	a6,0xffff9
     31e:	0100                	addi	s0,sp,128
     320:	1176                	slli	sp,sp,0x3d
     322:	0000018b          	0x18b
     326:	00b2                	slli	ra,ra,0xc
     328:	0000                	unimp
     32a:	8f0e                	mv	t5,gp
     32c:	14000003          	lb	zero,320(zero) # 140 <ROM_BASE-0xbffffec0>
     330:	0001                	nop
     332:	78c0                	flw	fs0,52(s1)
     334:	0000                	unimp
     336:	0100                	addi	s0,sp,128
     338:	0978                	addi	a4,sp,156
     33a:	0215                	addi	tp,tp,5
     33c:	0000                	unimp
     33e:	0003a00f          	0x3a00f
     342:	d900                	sw	s0,48(a0)
     344:	0000                	unimp
     346:	0000                	unimp
     348:	1014                	addi	a3,sp,32
     34a:	44000003          	lb	zero,1088(zero) # 440 <ROM_BASE-0xbffffbc0>
     34e:	0001                	nop
     350:	18c0                	addi	s0,sp,116
     352:	0000                	unimp
     354:	0100                	addi	s0,sp,128
     356:	023c0977          	0x23c0977
     35a:	0000                	unimp
     35c:	0003290f          	0x3290f
     360:	ec00                	fsw	fs0,24(s0)
     362:	0000                	unimp
     364:	0f00                	addi	s0,sp,912
     366:	031d                	addi	t1,t1,7
     368:	0000                	unimp
     36a:	0094                	addi	a3,sp,64
     36c:	0000                	unimp
     36e:	1000                	addi	s0,sp,32
     370:	0000038f          	0x38f
     374:	016c                	addi	a1,sp,140
     376:	c000                	sw	s0,0(s0)
     378:	0010                	0x10
     37a:	0000                	unimp
     37c:	7901                	lui	s2,0xfffe0
     37e:	0f09                	addi	t5,t5,2
     380:	03a0                	addi	s0,sp,456
     382:	0000                	unimp
     384:	0104                	addi	s1,sp,128
     386:	0000                	unimp
     388:	0000                	unimp
     38a:	0b00                	addi	s0,sp,400
     38c:	0151                	addi	sp,sp,20
     38e:	0000                	unimp
     390:	6301                	0x6301
     392:	b006                	fsd	ft1,32(sp)
     394:	0000                	unimp
     396:	64c0                	flw	fs0,12(s1)
     398:	0000                	unimp
     39a:	0100                	addi	s0,sp,128
     39c:	109c                	addi	a5,sp,96
     39e:	11000003          	lb	zero,272(zero) # 110 <ROM_BASE-0xbffffef0>
     3a2:	0200                	addi	s0,sp,256
     3a4:	0000                	unimp
     3a6:	6301                	0x6301
     3a8:	9b1e                	add	s6,s6,t2
     3aa:	0000                	unimp
     3ac:	0100                	addi	s0,sp,128
     3ae:	125a                	slli	tp,tp,0x36
     3b0:	0069                	c.nop	26
     3b2:	6501                	0x6501
     3b4:	8109                	srli	a0,a0,0x2
     3b6:	0000                	unimp
     3b8:	1700                	addi	s0,sp,928
     3ba:	0001                	nop
     3bc:	1300                	addi	s0,sp,416
     3be:	0028                	addi	a0,sp,8
     3c0:	0000                	unimp
     3c2:	6312                	flw	ft6,4(sp)
     3c4:	7275                	lui	tp,0xffffd
     3c6:	0100                	addi	s0,sp,128
     3c8:	1168                	addi	a0,sp,172
     3ca:	0000008f          	0x8f
     3ce:	0000012b          	0x12b
     3d2:	6812                	flw	fa6,4(sp)
     3d4:	7865                	lui	a6,0xffff9
     3d6:	0100                	addi	s0,sp,128
     3d8:	1169                	addi	sp,sp,-6
     3da:	0000018b          	0x18b
     3de:	015c                	addi	a5,sp,132
     3e0:	0000                	unimp
     3e2:	8f0e                	mv	t5,gp
     3e4:	b0000003          	lb	zero,-1280(zero) # fffffb00 <_BSS_END_+0x3fffe7c0>
     3e8:	0000                	unimp
     3ea:	40c0                	lw	s0,4(s1)
     3ec:	0000                	unimp
     3ee:	0100                	addi	s0,sp,128
     3f0:	02cd096b          	0x2cd096b
     3f4:	0000                	unimp
     3f6:	0003a00f          	0x3a00f
     3fa:	8300                	0x8300
     3fc:	0001                	nop
     3fe:	0000                	unimp
     400:	1014                	addi	a3,sp,32
     402:	d0000003          	lb	zero,-768(zero) # fffffd00 <_BSS_END_+0x3fffe9c0>
     406:	0000                	unimp
     408:	18c0                	addi	s0,sp,116
     40a:	0000                	unimp
     40c:	0100                	addi	s0,sp,128
     40e:	096a                	slli	s2,s2,0x1a
     410:	02f4                	addi	a3,sp,332
     412:	0000                	unimp
     414:	0003290f          	0x3290f
     418:	9600                	0x9600
     41a:	0001                	nop
     41c:	0f00                	addi	s0,sp,912
     41e:	031d                	addi	t1,t1,7
     420:	0000                	unimp
     422:	01ae                	slli	gp,gp,0xb
     424:	0000                	unimp
     426:	1000                	addi	s0,sp,32
     428:	0000038f          	0x38f
     42c:	00f8                	addi	a4,sp,76
     42e:	c000                	sw	s0,0(s0)
     430:	0010                	0x10
     432:	0000                	unimp
     434:	6c01                	0x6c01
     436:	0f09                	addi	t5,t5,2
     438:	03a0                	addi	s0,sp,456
     43a:	0000                	unimp
     43c:	01df 0000 0000      	0x1df
     442:	1500                	addi	s0,sp,672
     444:	00000183          	lb	gp,0(zero) # 0 <ROM_BASE-0xc0000000>
     448:	5c01                	li	s8,-32
     44a:	0106                	slli	sp,sp,0x1
     44c:	0336                	slli	t1,t1,0xd
     44e:	0000                	unimp
     450:	6916                	flw	fs2,68(sp)
     452:	706e                	flw	ft0,248(sp)
     454:	0100                	addi	s0,sp,128
     456:	195c                	addi	a5,sp,180
     458:	0000008f          	0x8f
     45c:	7216                	flw	ft4,100(sp)
     45e:	7365                	lui	t1,0xffff9
     460:	0100                	addi	s0,sp,128
     462:	265c                	fld	fa5,136(a2)
     464:	0336                	slli	t1,t1,0xd
     466:	0000                	unimp
     468:	0700                	addi	s0,sp,896
     46a:	8f04                	0x8f04
     46c:	0000                	unimp
     46e:	0b00                	addi	s0,sp,400
     470:	00ce                	slli	ra,ra,0x13
     472:	0000                	unimp
     474:	5301                	li	t1,-32
     476:	5406                	lw	s0,96(sp)
     478:	0000                	unimp
     47a:	30c0                	fld	fs0,160(s1)
     47c:	0000                	unimp
     47e:	0100                	addi	s0,sp,128
     480:	7d9c                	flw	fa5,56(a1)
     482:	17000003          	lb	zero,368(zero) # 170 <ROM_BASE-0xbffffe90>
     486:	00727473          	csrrci	s0,0x7,4
     48a:	5301                	li	t1,-32
     48c:	7d1d                	lui	s10,0xfffe7
     48e:	f2000003          	lb	zero,-224(zero) # ffffff20 <_BSS_END_+0x3fffebe0>
     492:	0001                	nop
     494:	1800                	addi	s0,sp,48
     496:	0000038f          	0x38f
     49a:	005c                	addi	a5,sp,4
     49c:	c000                	sw	s0,0(s0)
     49e:	0010                	0x10
     4a0:	0000                	unimp
     4a2:	5601                	li	a2,-32
     4a4:	0f09                	addi	t5,t5,2
     4a6:	03a0                	addi	s0,sp,456
     4a8:	0000                	unimp
     4aa:	0210                	addi	a2,sp,256
     4ac:	0000                	unimp
     4ae:	0000                	unimp
     4b0:	038a0407          	0x38a0407
     4b4:	0000                	unimp
     4b6:	0102                	c.slli64	sp
     4b8:	e208                	fsw	fa0,0(a2)
     4ba:	0000                	unimp
     4bc:	1900                	addi	s0,sp,176
     4be:	00000383          	lb	t2,0(zero) # 0 <ROM_BASE-0xc0000000>
     4c2:	d81a                	sw	t1,48(sp)
     4c4:	0001                	nop
     4c6:	0100                	addi	s0,sp,128
     4c8:	0546                	slli	a0,a0,0x11
     4ca:	0081                	addi	ra,ra,0
     4cc:	0000                	unimp
     4ce:	ab01                	j	9de <ROM_BASE-0xbffff622>
     4d0:	16000003          	lb	zero,352(zero) # 160 <ROM_BASE-0xbffffea0>
     4d4:	46010063          	beqz	sp,934 <ROM_BASE-0xbffff6cc>
     4d8:	8319                	srli	a4,a4,0x6
     4da:	00000003          	lb	zero,0(zero) # 0 <ROM_BASE-0xc0000000>
     4de:	0000c40b          	0xc40b
     4e2:	0100                	addi	s0,sp,128
     4e4:	0638                	addi	a4,sp,776
     4e6:	0020                	addi	s0,sp,8
     4e8:	c000                	sw	s0,0(s0)
     4ea:	0014                	0x14
     4ec:	0000                	unimp
     4ee:	9c01                	0x9c01
     4f0:	03ee                	slli	t2,t2,0x1b
     4f2:	0000                	unimp
     4f4:	a311                	j	9f8 <ROM_BASE-0xbffff608>
     4f6:	0001                	nop
     4f8:	0100                	addi	s0,sp,128
     4fa:	1938                	addi	a4,sp,184
     4fc:	0000009b          	0x9b
     500:	5a01                	li	s4,-32
     502:	9911                	andi	a0,a0,-28
     504:	0001                	nop
     506:	0100                	addi	s0,sp,128
     508:	2d38                	fld	fa4,88(a0)
     50a:	0000009b          	0x9b
     50e:	5b01                	li	s6,-32
     510:	6312                	flw	ft6,4(sp)
     512:	6766                	flw	fa4,88(sp)
     514:	0100                	addi	s0,sp,128
     516:	0e3a                	slli	t3,t3,0xe
     518:	0000009b          	0x9b
     51c:	00000223          	sb	zero,4(zero) # 4 <ROM_BASE-0xbffffffc>
     520:	1b00                	addi	s0,sp,432
     522:	0000038f          	0x38f
     526:	0034                	addi	a3,sp,8
     528:	c000                	sw	s0,0(s0)
     52a:	0020                	addi	s0,sp,8
     52c:	0000                	unimp
     52e:	9c01                	0x9c01
     530:	0000040b          	0x40b
     534:	0003a00f          	0x3a00f
     538:	4300                	lw	s0,0(a4)
     53a:	0002                	c.slli64	zero
     53c:	0000                	unimp
     53e:	101c                	addi	a5,sp,32
     540:	84000003          	lb	zero,-1984(zero) # fffff840 <_BSS_END_+0x3fffe500>
     544:	0000                	unimp
     546:	2cc0                	fld	fs0,152(s1)
     548:	0000                	unimp
     54a:	0100                	addi	s0,sp,128
     54c:	0f9c                	addi	a5,sp,976
     54e:	031d                	addi	t1,t1,7
     550:	0000                	unimp
     552:	0264                	addi	s1,sp,268
     554:	0000                	unimp
     556:	291d                	jal	98c <ROM_BASE-0xbffff674>
     558:	01000003          	lb	zero,16(zero) # 10 <ROM_BASE-0xbffffff0>
     55c:	0b00005b          	0xb00005b
     560:	04000007          	0x4000007
     564:	6f00                	flw	fs0,24(a4)
     566:	0002                	c.slli64	zero
     568:	0400                	addi	s0,sp,512
     56a:	3a01                	jal	fffffe7a <_BSS_END_+0x3fffeb3a>
     56c:	0000                	unimp
     56e:	0c00                	addi	s0,sp,528
     570:	0235                	addi	tp,tp,13
     572:	0000                	unimp
     574:	000a                	c.slli	zero,0x2
     576:	0000                	unimp
     578:	01e8                	addi	a0,sp,204
     57a:	c000                	sw	s0,0(s0)
     57c:	029c                	addi	a5,sp,320
     57e:	0000                	unimp
     580:	0848                	addi	a0,sp,20
     582:	0000                	unimp
     584:	0102                	c.slli64	sp
     586:	db06                	sw	ra,180(sp)
     588:	0000                	unimp
     58a:	0300                	addi	s0,sp,384
     58c:	00ba                	slli	ra,ra,0xe
     58e:	0000                	unimp
     590:	2b02                	fld	fs6,0(sp)
     592:	3818                	fld	fa4,48(s0)
     594:	0000                	unimp
     596:	0200                	addi	s0,sp,256
     598:	0801                	addi	a6,a6,0
     59a:	00d9                	addi	ra,ra,22
     59c:	0000                	unimp
     59e:	0202                	c.slli64	tp
     5a0:	4705                	li	a4,1
     5a2:	0001                	nop
     5a4:	0200                	addi	s0,sp,256
     5a6:	0702                	c.slli64	a4
     5a8:	000000e7          	jalr	zero # 0 <ROM_BASE-0xc0000000>
     5ac:	0402                	c.slli64	s0
     5ae:	3305                	jal	2ce <ROM_BASE-0xbffffd32>
     5b0:	0001                	nop
     5b2:	0300                	addi	s0,sp,384
     5b4:	018e                	slli	gp,gp,0x3
     5b6:	0000                	unimp
     5b8:	4f02                	lw	t5,0(sp)
     5ba:	6019                	c.lui	zero,0x6
     5bc:	0000                	unimp
     5be:	0200                	addi	s0,sp,256
     5c0:	0704                	addi	s1,sp,896
     5c2:	011c                	addi	a5,sp,128
     5c4:	0000                	unimp
     5c6:	0802                	c.slli64	a6
     5c8:	2e05                	jal	8f8 <ROM_BASE-0xbffff708>
     5ca:	0001                	nop
     5cc:	0200                	addi	s0,sp,256
     5ce:	0708                	addi	a0,sp,896
     5d0:	00000117          	auipc	sp,0x0
     5d4:	0404                	addi	s1,sp,512
     5d6:	6905                	lui	s2,0x1
     5d8:	746e                	flw	fs0,248(sp)
     5da:	0300                	addi	s0,sp,384
     5dc:	01f0                	addi	a2,sp,204
     5de:	0000                	unimp
     5e0:	e802                	fsw	ft0,16(sp)
     5e2:	881a                	mv	a6,t1
     5e4:	0000                	unimp
     5e6:	0200                	addi	s0,sp,256
     5e8:	0704                	addi	s1,sp,896
     5ea:	0121                	addi	sp,sp,8
     5ec:	0000                	unimp
     5ee:	0000bc03          	0xbc03
     5f2:	0300                	addi	s0,sp,384
     5f4:	1318                	addi	a4,sp,416
     5f6:	002c                	addi	a1,sp,8
     5f8:	0000                	unimp
     5fa:	00019003          	lh	zero,0(gp)
     5fe:	0300                	addi	s0,sp,384
     600:	1430                	addi	a2,sp,552
     602:	0054                	addi	a3,sp,4
     604:	0000                	unimp
     606:	9b05                	andi	a4,a4,-31
     608:	0000                	unimp
     60a:	0300                	addi	s0,sp,384
     60c:	01f2                	slli	gp,gp,0x1c
     60e:	0000                	unimp
     610:	7c155203          	lhu	tp,1985(a0) # fffeb7c1 <_BSS_END_+0x3ffea481>
     614:	0000                	unimp
     616:	0600                	addi	s0,sp,768
     618:	020e                	slli	tp,tp,0x3
     61a:	0000                	unimp
     61c:	5601                	li	a2,-32
     61e:	7505                	lui	a0,0xfffe1
     620:	0000                	unimp
     622:	7000                	flw	fs0,32(s0)
     624:	14c00003          	lb	zero,332(zero) # 14c <ROM_BASE-0xbffffeb4>
     628:	0001                	nop
     62a:	0100                	addi	s0,sp,128
     62c:	e39c                	fsw	fa5,0(a5)
     62e:	0002                	c.slli64	zero
     630:	0700                	addi	s0,sp,896
     632:	0218                	addi	a4,sp,256
     634:	0000                	unimp
     636:	5601                	li	a2,-32
     638:	e31e                	fsw	ft7,132(sp)
     63a:	0002                	c.slli64	zero
     63c:	8500                	0x8500
     63e:	0002                	c.slli64	zero
     640:	0800                	addi	s0,sp,16
     642:	656c                	flw	fa1,76(a0)
     644:	006e                	c.slli	zero,0x1b
     646:	5601                	li	a2,-32
     648:	9b2e                	add	s6,s6,a1
     64a:	0000                	unimp
     64c:	bc00                	fsd	fs0,56(s0)
     64e:	0002                	c.slli64	zero
     650:	0800                	addi	s0,sp,16
     652:	6572                	flw	fa0,28(sp)
     654:	0074                	addi	a3,sp,12
     656:	5601                	li	a2,-32
     658:	e33c                	fsw	fa5,64(a4)
     65a:	0002                	c.slli64	zero
     65c:	e500                	fsw	fs0,8(a0)
     65e:	0002                	c.slli64	zero
     660:	0700                	addi	s0,sp,896
     662:	0316                	slli	t1,t1,0x5
     664:	0000                	unimp
     666:	5601                	li	a2,-32
     668:	9b4a                	add	s6,s6,s2
     66a:	0000                	unimp
     66c:	4000                	lw	s0,0(s0)
     66e:	09000003          	lb	zero,144(zero) # 90 <ROM_BASE-0xbfffff70>
     672:	02ee                	slli	t0,t0,0x1b
     674:	0000                	unimp
     676:	5801                	li	a6,-32
     678:	9b0e                	add	s6,s6,gp
     67a:	0000                	unimp
     67c:	6900                	flw	fs0,16(a0)
     67e:	0a000003          	lb	zero,160(zero) # a0 <ROM_BASE-0xbfffff60>
     682:	006a                	c.slli	zero,0x1a
     684:	5901                	li	s2,-32
     686:	7509                	lui	a0,0xfffe2
     688:	0000                	unimp
     68a:	8700                	0x8700
     68c:	0b000003          	lb	zero,176(zero) # b0 <ROM_BASE-0xbfffff50>
     690:	0394                	addi	a3,sp,448
     692:	c000                	sw	s0,0(s0)
     694:	0034                	addi	a3,sp,8
     696:	0000                	unimp
     698:	019c                	addi	a5,sp,192
     69a:	0000                	unimp
     69c:	690a                	flw	fs2,128(sp)
     69e:	0100                	addi	s0,sp,128
     6a0:	0e62                	slli	t3,t3,0x18
     6a2:	0075                	c.nop	29
     6a4:	0000                	unimp
     6a6:	03c9                	addi	t2,t2,18
     6a8:	0000                	unimp
     6aa:	0003ac0b          	0x3ac0b
     6ae:	0cc0                	addi	s0,sp,596
     6b0:	0000                	unimp
     6b2:	6900                	flw	fs0,16(a0)
     6b4:	0001                	nop
     6b6:	0900                	addi	s0,sp,144
     6b8:	0000022f          	0x22f
     6bc:	6501                	0x6501
     6be:	7512                	flw	fa0,36(sp)
     6c0:	0000                	unimp
     6c2:	1200                	addi	s0,sp,288
     6c4:	0004                	0x4
     6c6:	0000                	unimp
     6c8:	780c                	flw	fa1,48(s0)
     6ca:	0006                	c.slli	zero,0x1
     6cc:	9c00                	0x9c00
     6ce:	70c00003          	lb	zero,1804(zero) # 70c <ROM_BASE-0xbffff8f4>
     6d2:	0001                	nop
     6d4:	0100                	addi	s0,sp,128
     6d6:	0964                	addi	s1,sp,156
     6d8:	910d                	srli	a0,a0,0x23
     6da:	0006                	c.slli	zero,0x1
     6dc:	4a00                	lw	s0,16(a2)
     6de:	0004                	0x4
     6e0:	0d00                	addi	s0,sp,656
     6e2:	0685                	addi	a3,a3,1
     6e4:	0000                	unimp
     6e6:	045d                	addi	s0,s0,23
     6e8:	0000                	unimp
     6ea:	700e                	flw	ft0,224(sp)
     6ec:	0001                	nop
     6ee:	0f00                	addi	s0,sp,912
     6f0:	069d                	addi	a3,a3,7
     6f2:	0000                	unimp
     6f4:	045d                	addi	s0,s0,23
     6f6:	0000                	unimp
     6f8:	0000                	unimp
     6fa:	0b00                	addi	s0,sp,400
     6fc:	03c8                	addi	a0,sp,452
     6fe:	c000                	sw	s0,0(s0)
     700:	000c                	0xc
     702:	0000                	unimp
     704:	01b8                	addi	a4,sp,200
     706:	0000                	unimp
     708:	690a                	flw	fs2,128(sp)
     70a:	0100                	addi	s0,sp,128
     70c:	0e6c                	addi	a1,sp,796
     70e:	0075                	c.nop	29
     710:	0000                	unimp
     712:	0475                	addi	s0,s0,29
     714:	0000                	unimp
     716:	1000                	addi	s0,sp,32
     718:	01a8                	addi	a0,sp,200
     71a:	0000                	unimp
     71c:	0208                	addi	a0,sp,256
     71e:	0000                	unimp
     720:	690a                	flw	fs2,128(sp)
     722:	0100                	addi	s0,sp,128
     724:	0e7a                	slli	t3,t3,0x1e
     726:	0075                	c.nop	29
     728:	0000                	unimp
     72a:	04b0                	addi	a2,sp,584
     72c:	0000                	unimp
     72e:	5a11                	li	s4,-28
     730:	0006                	c.slli	zero,0x1
     732:	fc00                	fsw	fs0,56(s0)
     734:	c0c00003          	lb	zero,-1012(zero) # fffffc0c <_BSS_END_+0x3fffe8cc>
     738:	0001                	nop
     73a:	0100                	addi	s0,sp,128
     73c:	127c                	addi	a5,sp,300
     73e:	01ed                	addi	gp,gp,27
     740:	0000                	unimp
     742:	6b0d                	lui	s6,0x3
     744:	0006                	c.slli	zero,0x1
     746:	e700                	fsw	fs0,8(a4)
     748:	0004                	0x4
     74a:	0000                	unimp
     74c:	5a12                	lw	s4,36(sp)
     74e:	0006                	c.slli	zero,0x1
     750:	1c00                	addi	s0,sp,560
     752:	0004                	0x4
     754:	04c0                	addi	s0,sp,580
     756:	0000                	unimp
     758:	0100                	addi	s0,sp,128
     75a:	1686                	slli	a3,a3,0x21
     75c:	6b0d                	lui	s6,0x3
     75e:	0006                	c.slli	zero,0x1
     760:	ff00                	fsw	fs0,56(a4)
     762:	0004                	0x4
     764:	0000                	unimp
     766:	1300                	addi	s0,sp,416
     768:	0678                	addi	a4,sp,780
     76a:	0000                	unimp
     76c:	0388                	addi	a0,sp,448
     76e:	c000                	sw	s0,0(s0)
     770:	000c                	0xc
     772:	0000                	unimp
     774:	6001                	0x6001
     776:	3805                	jal	ffffffa6 <_BSS_END_+0x3fffec66>
     778:	0002                	c.slli64	zero
     77a:	0d00                	addi	s0,sp,656
     77c:	0691                	addi	a3,a3,4
     77e:	0000                	unimp
     780:	00000517          	auipc	a0,0x0
     784:	850d                	srai	a0,a0,0x3
     786:	0006                	c.slli	zero,0x1
     788:	2c00                	fld	fs0,24(s0)
     78a:	0005                	c.nop	1
     78c:	0f00                	addi	s0,sp,912
     78e:	069d                	addi	a3,a3,7
     790:	0000                	unimp
     792:	052c                	addi	a1,sp,648
     794:	0000                	unimp
     796:	1300                	addi	s0,sp,416
     798:	0678                	addi	a4,sp,780
     79a:	0000                	unimp
     79c:	03d4                	addi	a3,sp,452
     79e:	c000                	sw	s0,0(s0)
     7a0:	000c                	0xc
     7a2:	0000                	unimp
     7a4:	7301                	lui	t1,0xfffe0
     7a6:	6805                	lui	a6,0x1
     7a8:	0002                	c.slli64	zero
     7aa:	0d00                	addi	s0,sp,656
     7ac:	0691                	addi	a3,a3,4
     7ae:	0000                	unimp
     7b0:	0544                	addi	s1,sp,644
     7b2:	0000                	unimp
     7b4:	850d                	srai	a0,a0,0x3
     7b6:	0006                	c.slli	zero,0x1
     7b8:	5a00                	lw	s0,48(a2)
     7ba:	0005                	c.nop	1
     7bc:	0f00                	addi	s0,sp,912
     7be:	069d                	addi	a3,a3,7
     7c0:	0000                	unimp
     7c2:	055a                	slli	a0,a0,0x16
     7c4:	0000                	unimp
     7c6:	1100                	addi	s0,sp,160
     7c8:	065a                	slli	a2,a2,0x16
     7ca:	0000                	unimp
     7cc:	03e0                	addi	s0,sp,460
     7ce:	c000                	sw	s0,0(s0)
     7d0:	0190                	addi	a2,sp,192
     7d2:	0000                	unimp
     7d4:	7701                	lui	a4,0xfffe0
     7d6:	8612                	mv	a2,tp
     7d8:	0002                	c.slli64	zero
     7da:	0d00                	addi	s0,sp,656
     7dc:	0000066b          	0x66b
     7e0:	0572                	slli	a0,a0,0x1c
     7e2:	0000                	unimp
     7e4:	1300                	addi	s0,sp,416
     7e6:	0678                	addi	a4,sp,780
     7e8:	0000                	unimp
     7ea:	0460                	addi	s0,sp,524
     7ec:	c000                	sw	s0,0(s0)
     7ee:	000c                	0xc
     7f0:	0000                	unimp
     7f2:	9801                	andi	s0,s0,-32
     7f4:	b605                	j	314 <ROM_BASE-0xbffffcec>
     7f6:	0002                	c.slli64	zero
     7f8:	0d00                	addi	s0,sp,656
     7fa:	0691                	addi	a3,a3,4
     7fc:	0000                	unimp
     7fe:	058a                	slli	a1,a1,0x2
     800:	0000                	unimp
     802:	850d                	srai	a0,a0,0x3
     804:	0006                	c.slli	zero,0x1
     806:	9f00                	0x9f00
     808:	0005                	c.nop	1
     80a:	0f00                	addi	s0,sp,912
     80c:	069d                	addi	a3,a3,7
     80e:	0000                	unimp
     810:	059f 0000 1200      	0x12000000059f
     816:	0678                	addi	a4,sp,780
     818:	0000                	unimp
     81a:	046c                	addi	a1,sp,524
     81c:	c000                	sw	s0,0(s0)
     81e:	0008                	0x8
     820:	0000                	unimp
     822:	9b01                	andi	a4,a4,-32
     824:	0d05                	addi	s10,s10,1
     826:	0691                	addi	a3,a3,4
     828:	0000                	unimp
     82a:	000005b7          	lui	a1,0x0
     82e:	850d                	srai	a0,a0,0x3
     830:	0006                	c.slli	zero,0x1
     832:	cb00                	sw	s0,16(a4)
     834:	0005                	c.nop	1
     836:	0f00                	addi	s0,sp,912
     838:	069d                	addi	a3,a3,7
     83a:	0000                	unimp
     83c:	000005cb          	fnmsub.s	fa1,ft0,ft0,ft0,rne
     840:	0000                	unimp
     842:	0414                	addi	a3,sp,512
     844:	0000008f          	0x8f
     848:	0506                	slli	a0,a0,0x1
     84a:	0002                	c.slli64	zero
     84c:	0100                	addi	s0,sp,128
     84e:	0931                	addi	s2,s2,12
     850:	0000008f          	0x8f
     854:	02b8                	addi	a4,sp,328
     856:	c000                	sw	s0,0(s0)
     858:	00b8                	addi	a4,sp,72
     85a:	0000                	unimp
     85c:	9c01                	0x9c01
     85e:	04d1                	addi	s1,s1,20
     860:	0000                	unimp
     862:	0001b807          	fld	fa6,0(gp)
     866:	0100                	addi	s0,sp,128
     868:	1a31                	addi	s4,s4,-20
     86a:	0000008f          	0x8f
     86e:	000005e3          	beqz	zero,1078 <ROM_BASE-0xbfffef88>
     872:	1e09                	addi	t3,t3,-30
     874:	0002                	c.slli64	zero
     876:	0100                	addi	s0,sp,128
     878:	0e44                	addi	s1,sp,788
     87a:	0000009b          	0x9b
     87e:	061d                	addi	a2,a2,7
     880:	0000                	unimp
     882:	2810                	fld	fa2,16(s0)
     884:	0001                	nop
     886:	3b00                	fld	fs0,48(a4)
     888:	0a000003          	lb	zero,160(zero) # a0 <ROM_BASE-0xbfffff60>
     88c:	0069                	c.nop	26
     88e:	3801                	jal	9e <ROM_BASE-0xbfffff62>
     890:	750e                	flw	fa0,224(sp)
     892:	0000                	unimp
     894:	3b00                	fld	fs0,48(a4)
     896:	0006                	c.slli	zero,0x1
     898:	0000                	unimp
     89a:	7811                	lui	a6,0xfffe4
     89c:	0006                	c.slli	zero,0x1
     89e:	b800                	fsd	fs0,48(s0)
     8a0:	0002                	c.slli64	zero
     8a2:	f0c0                	fsw	fs0,36(s1)
     8a4:	0000                	unimp
     8a6:	0100                	addi	s0,sp,128
     8a8:	0534                	addi	a3,sp,648
     8aa:	0371                	addi	t1,t1,28
     8ac:	0000                	unimp
     8ae:	910d                	srli	a0,a0,0x23
     8b0:	0006                	c.slli	zero,0x1
     8b2:	8200                	0x8200
     8b4:	0006                	c.slli	zero,0x1
     8b6:	0d00                	addi	s0,sp,656
     8b8:	0685                	addi	a3,a3,1
     8ba:	0000                	unimp
     8bc:	00000697          	auipc	a3,0x0
     8c0:	f00e                	fsw	ft3,32(sp)
     8c2:	0000                	unimp
     8c4:	0f00                	addi	s0,sp,912
     8c6:	069d                	addi	a3,a3,7
     8c8:	0000                	unimp
     8ca:	00000697          	auipc	a3,0x0
     8ce:	0000                	unimp
     8d0:	7811                	lui	a6,0xfffe4
     8d2:	0006                	c.slli	zero,0x1
     8d4:	d400                	sw	s0,40(s0)
     8d6:	0002                	c.slli64	zero
     8d8:	10c0                	addi	s0,sp,100
     8da:	0001                	nop
     8dc:	0100                	addi	s0,sp,128
     8de:	0536                	slli	a0,a0,0xd
     8e0:	000003a7          	0x3a7
     8e4:	910d                	srli	a0,a0,0x23
     8e6:	0006                	c.slli	zero,0x1
     8e8:	af00                	fsd	fs0,24(a4)
     8ea:	0006                	c.slli	zero,0x1
     8ec:	0d00                	addi	s0,sp,656
     8ee:	0685                	addi	a3,a3,1
     8f0:	0000                	unimp
     8f2:	06c2                	slli	a3,a3,0x10
     8f4:	0000                	unimp
     8f6:	100e                	c.slli	zero,0x23
     8f8:	0001                	nop
     8fa:	0f00                	addi	s0,sp,912
     8fc:	069d                	addi	a3,a3,7
     8fe:	0000                	unimp
     900:	06c2                	slli	a3,a3,0x10
     902:	0000                	unimp
     904:	0000                	unimp
     906:	00067813          	andi	a6,a2,0
     90a:	ec00                	fsw	fs0,24(s0)
     90c:	0002                	c.slli64	zero
     90e:	0cc0                	addi	s0,sp,596
     910:	0000                	unimp
     912:	0100                	addi	s0,sp,128
     914:	03d7053f 910d0000 	0x910d000003d7053f
     91c:	0006                	c.slli	zero,0x1
     91e:	da00                	sw	s0,48(a2)
     920:	0006                	c.slli	zero,0x1
     922:	0d00                	addi	s0,sp,656
     924:	0685                	addi	a3,a3,1
     926:	0000                	unimp
     928:	06f0                	addi	a2,sp,844
     92a:	0000                	unimp
     92c:	00069d0f          	0x69d0f
     930:	f000                	fsw	fs0,32(s0)
     932:	0006                	c.slli	zero,0x1
     934:	0000                	unimp
     936:	5a11                	li	s4,-28
     938:	0006                	c.slli	zero,0x1
     93a:	f800                	fsw	fs0,48(s0)
     93c:	0002                	c.slli64	zero
     93e:	40c0                	lw	s0,4(s1)
     940:	0001                	nop
     942:	0100                	addi	s0,sp,128
     944:	0d41                	addi	s10,s10,16
     946:	03f5                	addi	t2,t2,29
     948:	0000                	unimp
     94a:	6b0d                	lui	s6,0x3
     94c:	0006                	c.slli	zero,0x1
     94e:	0800                	addi	s0,sp,16
     950:	00000007          	0x7
     954:	00065a13          	srli	s4,a2,0x0
     958:	0c00                	addi	s0,sp,528
     95a:	04c00003          	lb	zero,76(zero) # 4c <ROM_BASE-0xbfffffb4>
     95e:	0000                	unimp
     960:	0100                	addi	s0,sp,128
     962:	1744                	addi	s1,sp,932
     964:	00000413          	li	s0,0
     968:	6b0d                	lui	s6,0x3
     96a:	0006                	c.slli	zero,0x1
     96c:	2000                	fld	fs0,0(s0)
     96e:	00000007          	0x7
     972:	00065a13          	srli	s4,a2,0x0
     976:	1000                	addi	s0,sp,32
     978:	04c00003          	lb	zero,76(zero) # 4c <ROM_BASE-0xbfffffb4>
     97c:	0000                	unimp
     97e:	0100                	addi	s0,sp,128
     980:	0a46                	slli	s4,s4,0x11
     982:	0431                	addi	s0,s0,12
     984:	0000                	unimp
     986:	6b0d                	lui	s6,0x3
     988:	0006                	c.slli	zero,0x1
     98a:	3800                	fld	fs0,48(s0)
     98c:	00000007          	0x7
     990:	7811                	lui	a6,0xfffe4
     992:	0006                	c.slli	zero,0x1
     994:	1c00                	addi	s0,sp,560
     996:	58c00003          	lb	zero,1420(zero) # 58c <ROM_BASE-0xbffffa74>
     99a:	0001                	nop
     99c:	0100                	addi	s0,sp,128
     99e:	054e                	slli	a0,a0,0x13
     9a0:	00000467          	jalr	s0,zero # 0 <ROM_BASE-0xc0000000>
     9a4:	910d                	srli	a0,a0,0x23
     9a6:	0006                	c.slli	zero,0x1
     9a8:	5000                	lw	s0,32(s0)
     9aa:	0d000007          	0xd000007
     9ae:	0685                	addi	a3,a3,1
     9b0:	0000                	unimp
     9b2:	0765                	addi	a4,a4,25
     9b4:	0000                	unimp
     9b6:	580e                	lw	a6,224(sp)
     9b8:	0001                	nop
     9ba:	0f00                	addi	s0,sp,912
     9bc:	069d                	addi	a3,a3,7
     9be:	0000                	unimp
     9c0:	0765                	addi	a4,a4,25
     9c2:	0000                	unimp
     9c4:	0000                	unimp
     9c6:	00067813          	andi	a6,a2,0
     9ca:	3000                	fld	fs0,32(s0)
     9cc:	08c00003          	lb	zero,140(zero) # 8c <ROM_BASE-0xbfffff74>
     9d0:	0000                	unimp
     9d2:	0100                	addi	s0,sp,128
     9d4:	0551                	addi	a0,a0,20
     9d6:	00000497          	auipc	s1,0x0
     9da:	910d                	srli	a0,a0,0x23
     9dc:	0006                	c.slli	zero,0x1
     9de:	7d00                	flw	fs0,56(a0)
     9e0:	0d000007          	0xd000007
     9e4:	0685                	addi	a3,a3,1
     9e6:	0000                	unimp
     9e8:	0791                	addi	a5,a5,4
     9ea:	0000                	unimp
     9ec:	00069d0f          	0x69d0f
     9f0:	9100                	0x9100
     9f2:	00000007          	0x7
     9f6:	00065a13          	srli	s4,a2,0x0
     9fa:	5400                	lw	s0,40(s0)
     9fc:	04c00003          	lb	zero,76(zero) # 4c <ROM_BASE-0xbfffffb4>
     a00:	0000                	unimp
     a02:	0100                	addi	s0,sp,128
     a04:	1949                	addi	s2,s2,-14
     a06:	04b5                	addi	s1,s1,13
     a08:	0000                	unimp
     a0a:	6b0d                	lui	s6,0x3
     a0c:	0006                	c.slli	zero,0x1
     a0e:	a900                	fsd	fs0,16(a0)
     a10:	00000007          	0x7
     a14:	5415                	li	s0,-27
     a16:	f6c00003          	lb	zero,-148(zero) # ffffff6c <_BSS_END_+0x3fffec2c>
     a1a:	0006                	c.slli	zero,0x1
     a1c:	1500                	addi	s0,sp,672
     a1e:	0360                	addi	s0,sp,396
     a20:	c000                	sw	s0,0(s0)
     a22:	0702                	c.slli64	a4
     a24:	0000                	unimp
     a26:	6c15                	lui	s8,0x5
     a28:	f6c00003          	lb	zero,-148(zero) # ffffff6c <_BSS_END_+0x3fffec2c>
     a2c:	0006                	c.slli	zero,0x1
     a2e:	0000                	unimp
     a30:	4516                	lw	a0,68(sp)
     a32:	0002                	c.slli64	zero
     a34:	0100                	addi	s0,sp,128
     a36:	0610                	addi	a2,sp,768
     a38:	01f8                	addi	a4,sp,204
     a3a:	c000                	sw	s0,0(s0)
     a3c:	00c0                	addi	s0,sp,68
     a3e:	0000                	unimp
     a40:	9c01                	0x9c01
     a42:	065a                	slli	a2,a2,0x16
     a44:	0000                	unimp
     a46:	ee09                	bnez	a2,a60 <ROM_BASE-0xbffff5a0>
     a48:	0002                	c.slli64	zero
     a4a:	0100                	addi	s0,sp,128
     a4c:	0e1f 009b 0000      	0x9b0e1f
     a52:	07c1                	addi	a5,a5,16
     a54:	0000                	unimp
     a56:	d810                	sw	a2,48(s0)
     a58:	0000                	unimp
     a5a:	0f00                	addi	s0,sp,912
     a5c:	0005                	c.nop	1
     a5e:	0a00                	addi	s0,sp,272
     a60:	0069                	c.nop	26
     a62:	1701                	addi	a4,a4,-32
     a64:	750e                	flw	fa0,224(sp)
     a66:	0000                	unimp
     a68:	d400                	sw	s0,40(s0)
     a6a:	00000007          	0x7
     a6e:	7811                	lui	a6,0xfffe4
     a70:	0006                	c.slli	zero,0x1
     a72:	1400                	addi	s0,sp,544
     a74:	0002                	c.slli64	zero
     a76:	c0c0                	sw	s0,4(s1)
     a78:	0000                	unimp
     a7a:	0100                	addi	s0,sp,128
     a7c:	0515                	addi	a0,a0,5
     a7e:	0545                	addi	a0,a0,17
     a80:	0000                	unimp
     a82:	910d                	srli	a0,a0,0x23
     a84:	0006                	c.slli	zero,0x1
     a86:	1500                	addi	s0,sp,672
     a88:	0008                	0x8
     a8a:	0d00                	addi	s0,sp,656
     a8c:	0685                	addi	a3,a3,1
     a8e:	0000                	unimp
     a90:	0829                	addi	a6,a6,10
     a92:	0000                	unimp
     a94:	c00e                	sw	gp,0(sp)
     a96:	0000                	unimp
     a98:	0f00                	addi	s0,sp,912
     a9a:	069d                	addi	a3,a3,7
     a9c:	0000                	unimp
     a9e:	0829                	addi	a6,a6,10
     aa0:	0000                	unimp
     aa2:	0000                	unimp
     aa4:	00067813          	andi	a6,a2,0
     aa8:	3000                	fld	fs0,32(s0)
     aaa:	0002                	c.slli64	zero
     aac:	0cc0                	addi	s0,sp,596
     aae:	0000                	unimp
     ab0:	0100                	addi	s0,sp,128
     ab2:	051d                	addi	a0,a0,7
     ab4:	0575                	addi	a0,a0,29
     ab6:	0000                	unimp
     ab8:	910d                	srli	a0,a0,0x23
     aba:	0006                	c.slli	zero,0x1
     abc:	4100                	lw	s0,0(a0)
     abe:	0008                	0x8
     ac0:	0d00                	addi	s0,sp,656
     ac2:	0685                	addi	a3,a3,1
     ac4:	0000                	unimp
     ac6:	00000857          	0x857
     aca:	00069d0f          	0x69d0f
     ace:	5700                	lw	s0,40(a4)
     ad0:	0008                	0x8
     ad2:	0000                	unimp
     ad4:	00065a13          	srli	s4,a2,0x0
     ad8:	3c00                	fld	fs0,56(s0)
     ada:	0002                	c.slli64	zero
     adc:	04c0                	addi	s0,sp,580
     ade:	0000                	unimp
     ae0:	0100                	addi	s0,sp,128
     ae2:	171f 0593 0000      	0x593171f
     ae8:	6b0d                	lui	s6,0x3
     aea:	0006                	c.slli	zero,0x1
     aec:	6f00                	flw	fs0,24(a4)
     aee:	0008                	0x8
     af0:	0000                	unimp
     af2:	00067813          	andi	a6,a2,0
     af6:	6400                	flw	fs0,8(s0)
     af8:	0002                	c.slli64	zero
     afa:	08c0                	addi	s0,sp,84
     afc:	0000                	unimp
     afe:	0100                	addi	s0,sp,128
     b00:	0525                	addi	a0,a0,9
     b02:	000005c3          	fmadd.s	fa1,ft0,ft0,ft0,rne
     b06:	910d                	srli	a0,a0,0x23
     b08:	0006                	c.slli	zero,0x1
     b0a:	8700                	0x8700
     b0c:	0008                	0x8
     b0e:	0d00                	addi	s0,sp,656
     b10:	0685                	addi	a3,a3,1
     b12:	0000                	unimp
     b14:	089d                	addi	a7,a7,7
     b16:	0000                	unimp
     b18:	00069d0f          	0x69d0f
     b1c:	9d00                	0x9d00
     b1e:	0008                	0x8
     b20:	0000                	unimp
     b22:	00065a13          	srli	s4,a2,0x0
     b26:	6c00                	flw	fs0,24(s0)
     b28:	0002                	c.slli64	zero
     b2a:	04c0                	addi	s0,sp,580
     b2c:	0000                	unimp
     b2e:	0100                	addi	s0,sp,128
     b30:	05e10e27          	0x5e10e27
     b34:	0000                	unimp
     b36:	6b0d                	lui	s6,0x3
     b38:	0006                	c.slli	zero,0x1
     b3a:	b500                	fsd	fs0,40(a0)
     b3c:	0008                	0x8
     b3e:	0000                	unimp
     b40:	00067813          	andi	a6,a2,0
     b44:	9400                	0x9400
     b46:	0002                	c.slli64	zero
     b48:	08c0                	addi	s0,sp,84
     b4a:	0000                	unimp
     b4c:	0100                	addi	s0,sp,128
     b4e:	052c                	addi	a1,sp,648
     b50:	0611                	addi	a2,a2,4
     b52:	0000                	unimp
     b54:	910d                	srli	a0,a0,0x23
     b56:	0006                	c.slli	zero,0x1
     b58:	cd00                	sw	s0,24(a0)
     b5a:	0008                	0x8
     b5c:	0d00                	addi	s0,sp,656
     b5e:	0685                	addi	a3,a3,1
     b60:	0000                	unimp
     b62:	08e1                	addi	a7,a7,24
     b64:	0000                	unimp
     b66:	00069d0f          	0x69d0f
     b6a:	e100                	fsw	fs0,0(a0)
     b6c:	0008                	0x8
     b6e:	0000                	unimp
     b70:	1415                	addi	s0,s0,-27
     b72:	0002                	c.slli64	zero
     b74:	f6c0                	fsw	fs0,44(a3)
     b76:	0006                	c.slli	zero,0x1
     b78:	1500                	addi	s0,sp,672
     b7a:	024c                	addi	a1,sp,260
     b7c:	c000                	sw	s0,0(s0)
     b7e:	06f6                	slli	a3,a3,0x1d
     b80:	0000                	unimp
     b82:	5815                	li	a6,-27
     b84:	0002                	c.slli64	zero
     b86:	02c0                	addi	s0,sp,324
     b88:	15000007          	0x15000007
     b8c:	0264                	addi	s1,sp,268
     b8e:	c000                	sw	s0,0(s0)
     b90:	06f6                	slli	a3,a3,0x1d
     b92:	0000                	unimp
     b94:	7c15                	lui	s8,0xfffe5
     b96:	0002                	c.slli64	zero
     b98:	f6c0                	fsw	fs0,44(a3)
     b9a:	0006                	c.slli	zero,0x1
     b9c:	1500                	addi	s0,sp,672
     b9e:	0288                	addi	a0,sp,320
     ba0:	c000                	sw	s0,0(s0)
     ba2:	0702                	c.slli64	a4
     ba4:	0000                	unimp
     ba6:	9415                	srai	s0,s0,0x25
     ba8:	0002                	c.slli64	zero
     baa:	f6c0                	fsw	fs0,44(a3)
     bac:	0006                	c.slli	zero,0x1
     bae:	1700                	addi	s0,sp,928
     bb0:	02b8                	addi	a4,sp,328
     bb2:	c000                	sw	s0,0(s0)
     bb4:	06f6                	slli	a3,a3,0x1d
     bb6:	0000                	unimp
     bb8:	1800                	addi	s0,sp,48
     bba:	000001e7          	jalr	gp,zero # 0 <ROM_BASE-0xc0000000>
     bbe:	0b01                	addi	s6,s6,0
     bc0:	9b0a                	add	s6,s6,sp
     bc2:	0000                	unimp
     bc4:	0100                	addi	s0,sp,128
     bc6:	0678                	addi	a4,sp,780
     bc8:	0000                	unimp
     bca:	0019                	c.nop	6
     bcc:	0002                	c.slli64	zero
     bce:	0100                	addi	s0,sp,128
     bd0:	00ac1d0b          	0xac1d0b
     bd4:	0000                	unimp
     bd6:	1a00                	addi	s0,sp,304
     bd8:	0225                	addi	tp,tp,9
     bda:	0000                	unimp
     bdc:	0501                	addi	a0,a0,0
     bde:	0106                	slli	sp,sp,0x1
     be0:	06aa                	slli	a3,a3,0xa
     be2:	0000                	unimp
     be4:	0019                	c.nop	6
     be6:	0002                	c.slli64	zero
     be8:	0100                	addi	s0,sp,128
     bea:	1a05                	addi	s4,s4,-31
     bec:	00ac                	addi	a1,sp,72
     bee:	0000                	unimp
     bf0:	3f19                	jal	b06 <ROM_BASE-0xbffff4fa>
     bf2:	0002                	c.slli64	zero
     bf4:	0100                	addi	s0,sp,128
     bf6:	2905                	jal	1026 <ROM_BASE-0xbfffefda>
     bf8:	0000009b          	0x9b
     bfc:	0001fc1b          	0x1fc1b
     c00:	0100                	addi	s0,sp,128
     c02:	06aa1807          	0x6aa1807
     c06:	0000                	unimp
     c08:	1400                	addi	s0,sp,544
     c0a:	a704                	fsd	fs1,8(a4)
     c0c:	0000                	unimp
     c0e:	1c00                	addi	s0,sp,560
     c10:	0678                	addi	a4,sp,780
     c12:	0000                	unimp
     c14:	01e8                	addi	a0,sp,204
     c16:	c000                	sw	s0,0(s0)
     c18:	0008                	0x8
     c1a:	0000                	unimp
     c1c:	9c01                	0x9c01
     c1e:	06d9                	addi	a3,a3,22
     c20:	0000                	unimp
     c22:	851d                	srai	a0,a0,0x7
     c24:	0006                	c.slli	zero,0x1
     c26:	0100                	addi	s0,sp,128
     c28:	1d5a                	slli	s10,s10,0x36
     c2a:	0691                	addi	a3,a3,4
     c2c:	0000                	unimp
     c2e:	5b01                	li	s6,-32
     c30:	9d1e                	add	s10,s10,t2
     c32:	0006                	c.slli	zero,0x1
     c34:	0100                	addi	s0,sp,128
     c36:	005a                	c.slli	zero,0x16
     c38:	5a1c                	lw	a5,48(a2)
     c3a:	0006                	c.slli	zero,0x1
     c3c:	f000                	fsw	fs0,32(s0)
     c3e:	0001                	nop
     c40:	08c0                	addi	s0,sp,84
     c42:	0000                	unimp
     c44:	0100                	addi	s0,sp,128
     c46:	f69c                	fsw	fa5,40(a3)
     c48:	0006                	c.slli	zero,0x1
     c4a:	0d00                	addi	s0,sp,656
     c4c:	0000066b          	0x66b
     c50:	08f9                	addi	a7,a7,30
     c52:	0000                	unimp
     c54:	1f00                	addi	s0,sp,944
     c56:	00ce                	slli	ra,ra,0x13
     c58:	0000                	unimp
     c5a:	00ce                	slli	ra,ra,0x13
     c5c:	0000                	unimp
     c5e:	0b04                	addi	s1,sp,400
     c60:	1f06                	slli	t5,t5,0x21
     c62:	01bd                	addi	gp,gp,15
     c64:	0000                	unimp
     c66:	01bd                	addi	gp,gp,15
     c68:	0000                	unimp
     c6a:	0e04                	addi	s1,sp,784
     c6c:	0006                	c.slli	zero,0x1
     c6e:	00000caf          	0xcaf
     c72:	0004                	0x4
     c74:	00000443          	fmadd.s	fs0,ft0,ft0,ft0,rne
     c78:	0104                	addi	s1,sp,128
     c7a:	003a                	c.slli	zero,0xe
     c7c:	0000                	unimp
     c7e:	b90c                	fsd	fa1,48(a0)
     c80:	0002                	c.slli64	zero
     c82:	0a00                	addi	s0,sp,272
     c84:	0000                	unimp
     c86:	8400                	0x8400
     c88:	0004                	0x4
     c8a:	c8c0                	sw	s0,20(s1)
     c8c:	31000007          	0x31000007
     c90:	0010                	0x10
     c92:	0200                	addi	s0,sp,256
     c94:	0601                	addi	a2,a2,0
     c96:	000000db          	0xdb
     c9a:	0000ba03          	0xba03
     c9e:	0200                	addi	s0,sp,256
     ca0:	0038182b          	0x38182b
     ca4:	0000                	unimp
     ca6:	0102                	c.slli64	sp
     ca8:	d908                	sw	a0,48(a0)
     caa:	0000                	unimp
     cac:	0200                	addi	s0,sp,256
     cae:	0502                	c.slli64	a0
     cb0:	00000147          	fmsub.s	ft2,ft0,ft0,ft0,rne
     cb4:	00026f03          	0x26f03
     cb8:	0200                	addi	s0,sp,256
     cba:	1939                	addi	s2,s2,-18
     cbc:	0052                	c.slli	zero,0x14
     cbe:	0000                	unimp
     cc0:	0202                	c.slli64	tp
     cc2:	0000e707          	0xe707
     cc6:	0200                	addi	s0,sp,256
     cc8:	0504                	addi	s1,sp,640
     cca:	00000133          	add	sp,zero,zero
     cce:	00018e03          	lb	t3,0(gp)
     cd2:	0200                	addi	s0,sp,256
     cd4:	006c194f          	fnmadd.s	fs2,fs8,ft6,ft0,rtz
     cd8:	0000                	unimp
     cda:	0402                	c.slli64	s0
     cdc:	00011c07          	0x11c07
     ce0:	0200                	addi	s0,sp,256
     ce2:	0508                	addi	a0,sp,640
     ce4:	012e                	slli	sp,sp,0xb
     ce6:	0000                	unimp
     ce8:	0802                	c.slli64	a6
     cea:	00011707          	0x11707
     cee:	0400                	addi	s0,sp,512
     cf0:	0504                	addi	s1,sp,640
     cf2:	6e69                	lui	t3,0x1a
     cf4:	0074                	addi	a3,sp,12
     cf6:	0402                	c.slli64	s0
     cf8:	00012107          	flw	ft2,0(sp) # 5d0 <ROM_BASE-0xbffffa30>
     cfc:	0300                	addi	s0,sp,384
     cfe:	00bc                	addi	a5,sp,72
     d00:	0000                	unimp
     d02:	2c131803          	lh	a6,705(t1) # fffe02c1 <_BSS_END_+0x3ffdef81>
     d06:	0000                	unimp
     d08:	0500                	addi	s0,sp,640
     d0a:	0000008f          	0x8f
     d0e:	00027103          	0x27103
     d12:	0300                	addi	s0,sp,384
     d14:	1424                	addi	s1,sp,552
     d16:	0046                	c.slli	zero,0x11
     d18:	0000                	unimp
     d1a:	00019003          	lh	zero,0(gp)
     d1e:	0300                	addi	s0,sp,384
     d20:	1430                	addi	a2,sp,552
     d22:	0060                	addi	s0,sp,12
     d24:	0000                	unimp
     d26:	7a06                	flw	fs4,96(sp)
     d28:	0002                	c.slli64	zero
     d2a:	0100                	addi	s0,sp,128
     d2c:	0590                	addi	a2,sp,704
     d2e:	0081                	addi	ra,ra,0
     d30:	0000                	unimp
     d32:	09f0                	addi	a2,sp,220
     d34:	c000                	sw	s0,0(s0)
     d36:	025c                	addi	a5,sp,260
     d38:	0000                	unimp
     d3a:	9c01                	0x9c01
     d3c:	0392                	slli	t2,t2,0x4
     d3e:	0000                	unimp
     d40:	74736407          	0x74736407
     d44:	0100                	addi	s0,sp,128
     d46:	1390                	addi	a2,sp,480
     d48:	0392                	slli	t2,t2,0x4
     d4a:	0000                	unimp
     d4c:	091a                	slli	s2,s2,0x6
     d4e:	0000                	unimp
     d50:	a308                	fsd	fa0,0(a4)
     d52:	0002                	c.slli64	zero
     d54:	0100                	addi	s0,sp,128
     d56:	2190                	fld	fa2,0(a1)
     d58:	00ac                	addi	a1,sp,72
     d5a:	0000                	unimp
     d5c:	0951                	addi	s2,s2,20
     d5e:	0000                	unimp
     d60:	1608                	addi	a0,sp,800
     d62:	01000003          	lb	zero,16(zero) # 10 <ROM_BASE-0xbffffff0>
     d66:	3390                	fld	fa2,32(a5)
     d68:	00ac                	addi	a1,sp,72
     d6a:	0000                	unimp
     d6c:	0972                	slli	s2,s2,0x1c
     d6e:	0000                	unimp
     d70:	7009                	c.lui	zero,0xfffe2
     d72:	0100                	addi	s0,sp,128
     d74:	1792                	slli	a5,a5,0x24
     d76:	0394                	addi	a3,sp,448
     d78:	0000                	unimp
     d7a:	09a9                	addi	s3,s3,10
     d7c:	0000                	unimp
     d7e:	fd0a                	fsw	ft2,184(sp)
     d80:	0002                	c.slli64	zero
     d82:	0100                	addi	s0,sp,128
     d84:	00590a93          	addi	s5,s2,5 # 1005 <ROM_BASE-0xbfffeffb>
     d88:	0000                	unimp
     d8a:	09dd                	addi	s3,s3,23
     d8c:	0000                	unimp
     d8e:	7209                	lui	tp,0xfffe2
     d90:	94010063          	beqz	sp,fffffed0 <_BSS_END_+0x3fffeb90>
     d94:	8109                	srli	a0,a0,0x2
     d96:	0000                	unimp
     d98:	1100                	addi	s0,sp,160
     d9a:	000a                	c.slli	zero,0x2
     d9c:	0b00                	addi	s0,sp,400
     d9e:	6666                	flw	fa2,88(sp)
     da0:	0100                	addi	s0,sp,128
     da2:	0d96                	slli	s11,s11,0x5
     da4:	039a                	slli	t2,t2,0x6
     da6:	0000                	unimp
     da8:	7ed09103          	lh	sp,2029(ra)
     dac:	630c                	flw	fa1,0(a4)
     dae:	6372                	flw	ft6,28(sp)
     db0:	0100                	addi	s0,sp,128
     db2:	0d9a                	slli	s11,s11,0x6
     db4:	0000008f          	0x8f
     db8:	0d01                	addi	s10,s10,0
     dba:	0a2c                	addi	a1,sp,280
     dbc:	c000                	sw	s0,0(s0)
     dbe:	0018                	0x18
     dc0:	0000                	unimp
     dc2:	00000167          	jalr	sp,zero # 0 <ROM_BASE-0xc0000000>
     dc6:	6a09                	lui	s4,0x2
     dc8:	0100                	addi	s0,sp,128
     dca:	00810e97          	auipc	t4,0x810
     dce:	0000                	unimp
     dd0:	0a49                	addi	s4,s4,18
     dd2:	0000                	unimp
     dd4:	0d00                	addi	s0,sp,656
     dd6:	0c28                	addi	a0,sp,536
     dd8:	c000                	sw	s0,0(s0)
     dda:	0010                	0x10
     ddc:	0000                	unimp
     dde:	01a4                	addi	s1,sp,200
     de0:	0000                	unimp
     de2:	6a09                	lui	s4,0x2
     de4:	0100                	addi	s0,sp,128
     de6:	008112a3          	sh	s0,5(sp)
     dea:	0000                	unimp
     dec:	0a96                	slli	s5,s5,0x5
     dee:	0000                	unimp
     df0:	da0e                	sw	gp,52(sp)
     df2:	0009                	c.nop	2
     df4:	2800                	fld	fs0,16(s0)
     df6:	000c                	0xc
     df8:	e8c0                	fsw	fs0,20(s1)
     dfa:	01000003          	lb	zero,16(zero) # 10 <ROM_BASE-0xbffffff0>
     dfe:	0da4                	addi	s1,sp,728
     e00:	000c340f          	0xc340f
     e04:	6ac0                	flw	fs0,20(a3)
     e06:	000c                	0xc
     e08:	1000                	addi	s0,sp,32
     e0a:	5a01                	li	s4,-32
     e0c:	0902                	c.slli64	s2
     e0e:	00ff                	0xff
     e10:	0000                	unimp
     e12:	2011                	jal	e16 <ROM_BASE-0xbffff1ea>
     e14:	1e000003          	lb	zero,480(zero) # 1e0 <ROM_BASE-0xbffffe20>
     e18:	09000003          	lb	zero,144(zero) # 90 <ROM_BASE-0xbfffff70>
     e1c:	00637263          	bgeu	t1,t1,e20 <ROM_BASE-0xbffff1e0>
     e20:	ab01                	j	1330 <ROM_BASE-0xbfffecd0>
     e22:	a012                	fsd	ft4,0(sp)
     e24:	0000                	unimp
     e26:	bc00                	fsd	fs0,56(s0)
     e28:	000a                	c.slli	zero,0x2
     e2a:	0a00                	addi	s0,sp,272
     e2c:	0258                	addi	a4,sp,260
     e2e:	0000                	unimp
     e30:	ab01                	j	1340 <ROM_BASE-0xbfffecc0>
     e32:	0000a017          	auipc	zero,0xa
     e36:	e500                	fsw	fs0,8(a0)
     e38:	000a                	c.slli	zero,0x2
     e3a:	0900                	addi	s0,sp,144
     e3c:	006e                	c.slli	zero,0x1b
     e3e:	ac01                	j	104e <ROM_BASE-0xbfffefb2>
     e40:	590e                	lw	s2,224(sp)
     e42:	0000                	unimp
     e44:	2600                	fld	fs0,8(a2)
     e46:	1100000b          	0x1100000b
     e4a:	0338                	addi	a4,sp,392
     e4c:	0000                	unimp
     e4e:	0288                	addi	a0,sp,320
     e50:	0000                	unimp
     e52:	d00a                	sw	sp,32(sp)
     e54:	0002                	c.slli64	zero
     e56:	0100                	addi	s0,sp,128
     e58:	11b5                	addi	gp,gp,-19
     e5a:	0081                	addi	ra,ra,0
     e5c:	0000                	unimp
     e5e:	0b4c                	addi	a1,sp,404
     e60:	0000                	unimp
     e62:	6011                	c.lui	zero,0x4
     e64:	2f000003          	lb	zero,752(zero) # 2f0 <ROM_BASE-0xbffffd10>
     e68:	0002                	c.slli64	zero
     e6a:	0900                	addi	s0,sp,144
     e6c:	0069                	c.nop	26
     e6e:	bb01                	j	b7e <ROM_BASE-0xbffff482>
     e70:	8116                	mv	sp,t0
     e72:	0000                	unimp
     e74:	6100                	flw	fs0,0(a0)
     e76:	0e00000b          	0xe00000b
     e7a:	03aa                	slli	t2,t2,0xa
     e7c:	0000                	unimp
     e7e:	0a58                	addi	a4,sp,276
     e80:	c000                	sw	s0,0(s0)
     e82:	0380                	addi	s0,sp,448
     e84:	0000                	unimp
     e86:	bd01                	j	c96 <ROM_BASE-0xbffff36a>
     e88:	03c71217          	auipc	tp,0x3c71
     e8c:	0000                	unimp
     e8e:	0b8a                	slli	s7,s7,0x2
     e90:	0000                	unimp
     e92:	bb12                	fsd	ft4,432(sp)
     e94:	9d000003          	lb	zero,-1584(zero) # fffff9d0 <_BSS_END_+0x3fffe690>
     e98:	0000000b          	0xb
     e9c:	1300                	addi	s0,sp,416
     e9e:	0a98                	addi	a4,sp,336
     ea0:	c000                	sw	s0,0(s0)
     ea2:	0c76                	slli	s8,s8,0x1d
     ea4:	0000                	unimp
     ea6:	a014                	fsd	fa3,0(s0)
     ea8:	000a                	c.slli	zero,0x2
     eaa:	82c0                	0x82c0
     eac:	000c                	0xc
     eae:	4f00                	lw	s0,24(a4)
     eb0:	0002                	c.slli64	zero
     eb2:	1000                	addi	s0,sp,32
     eb4:	5a01                	li	s4,-32
     eb6:	8205                	srli	a2,a2,0x1
     eb8:	7900                	flw	fs0,48(a0)
     eba:	1c00                	addi	s0,sp,560
     ebc:	1300                	addi	s0,sp,416
     ebe:	0aac                	addi	a1,sp,344
     ec0:	c000                	sw	s0,0(s0)
     ec2:	0c76                	slli	s8,s8,0x1d
     ec4:	0000                	unimp
     ec6:	c014                	sw	a3,0(s0)
     ec8:	000a                	c.slli	zero,0x2
     eca:	8ec0                	0x8ec0
     ecc:	000c                	0xc
     ece:	7e00                	flw	fs0,56(a2)
     ed0:	0002                	c.slli64	zero
     ed2:	1000                	addi	s0,sp,32
     ed4:	5a01                	li	s4,-32
     ed6:	7202                	flw	ft4,32(sp)
     ed8:	1000                	addi	s0,sp,32
     eda:	5b01                	li	s6,-32
     edc:	0802                	c.slli64	a6
     ede:	1040                	addi	s0,sp,36
     ee0:	5c01                	li	s8,-32
     ee2:	7902                	flw	fs2,32(sp)
     ee4:	1000                	addi	s0,sp,32
     ee6:	5d01                	li	s10,-32
     ee8:	8302                	jr	t1
     eea:	0000                	unimp
     eec:	000ad013          	srli	zero,s5,0x0
     ef0:	76c0                	flw	fs0,44(a3)
     ef2:	000c                	0xc
     ef4:	0000                	unimp
     ef6:	da15                	beqz	a2,e2a <ROM_BASE-0xbffff1d6>
     ef8:	0009                	c.nop	2
     efa:	7000                	flw	fs0,32(s0)
     efc:	000a                	c.slli	zero,0x2
     efe:	08c0                	addi	s0,sp,84
     f00:	0000                	unimp
     f02:	0100                	addi	s0,sp,128
     f04:	10b0                	addi	a2,sp,104
     f06:	02ad                	addi	t0,t0,11
     f08:	0000                	unimp
     f0a:	000a780f          	0xa780f
     f0e:	6ac0                	flw	fs0,20(a3)
     f10:	000c                	0xc
     f12:	1000                	addi	s0,sp,32
     f14:	5a01                	li	s4,-32
     f16:	0902                	c.slli64	s2
     f18:	00ff                	0xff
     f1a:	1600                	addi	s0,sp,800
     f1c:	09da                	slli	s3,s3,0x16
     f1e:	0000                	unimp
     f20:	0b34                	addi	a3,sp,408
     f22:	c000                	sw	s0,0(s0)
     f24:	03b0                	addi	a2,sp,456
     f26:	0000                	unimp
     f28:	c601                	beqz	a2,f30 <ROM_BASE-0xbffff0d0>
     f2a:	d21e                	sw	t2,36(sp)
     f2c:	0002                	c.slli64	zero
     f2e:	0f00                	addi	s0,sp,912
     f30:	0b3c                	addi	a5,sp,408
     f32:	c000                	sw	s0,0(s0)
     f34:	0c6a                	slli	s8,s8,0x1a
     f36:	0000                	unimp
     f38:	0110                	addi	a2,sp,128
     f3a:	025a                	slli	tp,tp,0x16
     f3c:	ff09                	bnez	a4,e56 <ROM_BASE-0xbffff1aa>
     f3e:	0000                	unimp
     f40:	da16                	sw	t0,52(sp)
     f42:	0009                	c.nop	2
     f44:	4400                	lw	s0,8(s0)
     f46:	c8c0000b          	0xc8c0000b
     f4a:	01000003          	lb	zero,16(zero) # 10 <ROM_BASE-0xbffffff0>
     f4e:	02f714c7          	fmsub.d	fs1,fa4,fa5,ft0,rtz
     f52:	0000                	unimp
     f54:	000b500f          	0xb500f
     f58:	6ac0                	flw	fs0,20(a3)
     f5a:	000c                	0xc
     f5c:	1000                	addi	s0,sp,32
     f5e:	5a01                	li	s4,-32
     f60:	0902                	c.slli64	s2
     f62:	00ff                	0xff
     f64:	1300                	addi	s0,sp,416
     f66:	0b94                	addi	a3,sp,464
     f68:	c000                	sw	s0,0(s0)
     f6a:	0c76                	slli	s8,s8,0x1d
     f6c:	0000                	unimp
     f6e:	a414                	fsd	fa3,8(s0)
     f70:	82c0000b          	0x82c0000b
     f74:	000c                	0xc
     f76:	1400                	addi	s0,sp,544
     f78:	10000003          	lb	zero,256(zero) # 100 <ROM_BASE-0xbfffff00>
     f7c:	5a01                	li	s4,-32
     f7e:	8502                	jr	a0
     f80:	0000                	unimp
     f82:	000bb013          	sltiu	zero,s7,0
     f86:	76c0                	flw	fs0,44(a3)
     f88:	000c                	0xc
     f8a:	0000                	unimp
     f8c:	da15                	beqz	a2,ec0 <ROM_BASE-0xbffff140>
     f8e:	0009                	c.nop	2
     f90:	e000                	fsw	fs0,0(s0)
     f92:	08c0000b          	0x8c0000b
     f96:	0000                	unimp
     f98:	0100                	addi	s0,sp,128
     f9a:	05f5                	addi	a1,a1,29
     f9c:	00000343          	fmadd.s	ft6,ft0,ft0,ft0,rne
     fa0:	000be80f          	0xbe80f
     fa4:	6ac0                	flw	fs0,20(a3)
     fa6:	000c                	0xc
     fa8:	1000                	addi	s0,sp,32
     faa:	5a01                	li	s4,-32
     fac:	0902                	c.slli64	s2
     fae:	00ff                	0xff
     fb0:	1400                	addi	s0,sp,544
     fb2:	0a50                	addi	a2,sp,276
     fb4:	c000                	sw	s0,0(s0)
     fb6:	08ac                	addi	a1,sp,88
     fb8:	0000                	unimp
     fba:	0362                	slli	t1,t1,0x18
     fbc:	0000                	unimp
     fbe:	0110                	addi	a2,sp,128
     fc0:	015a                	slli	sp,sp,0x16
     fc2:	1042                	c.slli	zero,0x30
     fc4:	5b01                	li	s6,-32
     fc6:	5b01f303          	0x5b01f303
     fca:	0110                	addi	a2,sp,128
     fcc:	015c                	addi	a5,sp,132
     fce:	0031                	c.nop	12
     fd0:	000bd013          	srli	zero,s7,0x0
     fd4:	76c0                	flw	fs0,44(a3)
     fd6:	000c                	0xc
     fd8:	1400                	addi	s0,sp,544
     fda:	0be0                	addi	s0,sp,476
     fdc:	c000                	sw	s0,0(s0)
     fde:	08ac                	addi	a1,sp,88
     fe0:	0000                	unimp
     fe2:	0388                	addi	a0,sp,448
     fe4:	0000                	unimp
     fe6:	0110                	addi	a2,sp,128
     fe8:	015a                	slli	sp,sp,0x16
     fea:	103c                	addi	a5,sp,40
     fec:	5b01                	li	s6,-32
     fee:	3001                	jal	7ee <ROM_BASE-0xbffff812>
     ff0:	0110                	addi	a2,sp,128
     ff2:	015c                	addi	a5,sp,132
     ff4:	0031                	c.nop	12
     ff6:	000c4413          	xori	s0,s8,0
     ffa:	76c0                	flw	fs0,44(a3)
     ffc:	000c                	0xc
     ffe:	0000                	unimp
    1000:	04180417          	auipc	s0,0x4180
    1004:	0000009b          	0x9b
    1008:	8f19                	sub	a4,a4,a4
    100a:	0000                	unimp
    100c:	aa00                	fsd	fs0,16(a2)
    100e:	1a000003          	lb	zero,416(zero) # 1a0 <ROM_BASE-0xbffffe60>
    1012:	0088                	addi	a0,sp,64
    1014:	0000                	unimp
    1016:	007f                	0x7f
    1018:	0002601b          	0x2601b
    101c:	0100                	addi	s0,sp,128
    101e:	0a85                	addi	s5,s5,1
    1020:	00a0                	addi	s0,sp,72
    1022:	0000                	unimp
    1024:	d401                	beqz	s0,f2c <ROM_BASE-0xbffff0d4>
    1026:	1c000003          	lb	zero,448(zero) # 1c0 <ROM_BASE-0xbffffe40>
    102a:	00637263          	bgeu	t1,t1,102e <ROM_BASE-0xbfffefd2>
    102e:	8501                	c.srai64	a0
    1030:	a019                	j	1036 <ROM_BASE-0xbfffefca>
    1032:	0000                	unimp
    1034:	1d00                	addi	s0,sp,688
    1036:	02b4                	addi	a3,sp,328
    1038:	0000                	unimp
    103a:	8501                	c.srai64	a0
    103c:	8f26                	mv	t5,s1
    103e:	0000                	unimp
    1040:	0000                	unimp
    1042:	0002c21b          	0x2c21b
    1046:	0100                	addi	s0,sp,128
    1048:	097c                	addi	a5,sp,156
    104a:	0000008f          	0x8f
    104e:	0901                	addi	s2,s2,0
    1050:	0004                	0x4
    1052:	1d00                	addi	s0,sp,688
    1054:	000002e3          	beqz	zero,1858 <ROM_BASE-0xbfffe7a8>
    1058:	7c01                	lui	s8,0xfffe0
    105a:	8f16                	mv	t5,t0
    105c:	0000                	unimp
    105e:	1c00                	addi	s0,sp,560
    1060:	6e69                	lui	t3,0x1a
    1062:	0100                	addi	s0,sp,128
    1064:	247c                	fld	fa5,200(s0)
    1066:	0000008f          	0x8f
    106a:	4e1e                	lw	t3,196(sp)
    106c:	0002                	c.slli64	zero
    106e:	0100                	addi	s0,sp,128
    1070:	0d7f                	0xd7f
    1072:	0000008f          	0x8f
    1076:	1f00                	addi	s0,sp,944
    1078:	0289                	addi	t0,t0,2
    107a:	0000                	unimp
    107c:	6401                	0x6401
    107e:	8105                	srli	a0,a0,0x1
    1080:	0000                	unimp
    1082:	5800                	lw	s0,48(s0)
    1084:	0008                	0x8
    1086:	20c0                	fld	fs0,128(s1)
    1088:	0001                	nop
    108a:	0100                	addi	s0,sp,128
    108c:	679c                	flw	fa5,8(a5)
    108e:	0005                	c.nop	1
    1090:	1100                	addi	s0,sp,160
    1092:	02c0                	addi	s0,sp,324
    1094:	0000                	unimp
    1096:	045c                	addi	a5,sp,516
    1098:	0000                	unimp
    109a:	6909                	lui	s2,0x2
    109c:	0100                	addi	s0,sp,128
    109e:	0e70                	addi	a2,sp,796
    10a0:	0081                	addi	ra,ra,0
    10a2:	0000                	unimp
    10a4:	00000bbb          	0xbbb
    10a8:	da0e                	sw	gp,52(sp)
    10aa:	0009                	c.nop	2
    10ac:	8000                	0x8000
    10ae:	0008                	0x8
    10b0:	d8c0                	sw	s0,52(s1)
    10b2:	0002                	c.slli64	zero
    10b4:	0100                	addi	s0,sp,128
    10b6:	0671                	addi	a2,a2,28
    10b8:	00088c0f          	0x88c0f
    10bc:	6ac0                	flw	fs0,20(a3)
    10be:	000c                	0xc
    10c0:	1000                	addi	s0,sp,32
    10c2:	5a01                	li	s4,-32
    10c4:	0902                	c.slli64	s2
    10c6:	00ff                	0xff
    10c8:	0000                	unimp
    10ca:	4c15                	li	s8,5
    10cc:	0008                	0x8
    10ce:	9000                	0x9000
    10d0:	0008                	0x8
    10d2:	8cc0                	0x8cc0
    10d4:	0000                	unimp
    10d6:	0100                	addi	s0,sp,128
    10d8:	05420a73          	0x5420a73
    10dc:	0000                	unimp
    10de:	5d20                	lw	s0,120(a0)
    10e0:	0008                	0x8
    10e2:	ed00                	fsw	fs0,24(a0)
    10e4:	2000000b          	0x2000000b
    10e8:	0869                	addi	a6,a6,26
    10ea:	0000                	unimp
    10ec:	0c36                	slli	s8,s8,0xd
    10ee:	0000                	unimp
    10f0:	da16                	sw	t0,52(sp)
    10f2:	0009                	c.nop	2
    10f4:	a400                	fsd	fs0,8(s0)
    10f6:	0008                	0x8
    10f8:	f0c0                	fsw	fs0,36(s1)
    10fa:	0002                	c.slli64	zero
    10fc:	0100                	addi	s0,sp,128
    10fe:	0938                	addi	a4,sp,152
    1100:	000004bb          	0x4bb
    1104:	b014                	fsd	fa3,32(s0)
    1106:	0008                	0x8
    1108:	6ac0                	flw	fs0,20(a3)
    110a:	000c                	0xc
    110c:	aa00                	fsd	fs0,16(a2)
    110e:	0004                	0x4
    1110:	1000                	addi	s0,sp,32
    1112:	5a01                	li	s4,-32
    1114:	0902                	c.slli64	s2
    1116:	00ff                	0xff
    1118:	0008cc0f          	0x8cc0f
    111c:	6ac0                	flw	fs0,20(a3)
    111e:	000c                	0xc
    1120:	1000                	addi	s0,sp,32
    1122:	5a01                	li	s4,-32
    1124:	0902                	c.slli64	s2
    1126:	00ff                	0xff
    1128:	1500                	addi	s0,sp,672
    112a:	0874                	addi	a3,sp,28
    112c:	0000                	unimp
    112e:	08e4                	addi	s1,sp,92
    1130:	c000                	sw	s0,0(s0)
    1132:	0038                	addi	a4,sp,8
    1134:	0000                	unimp
    1136:	3d01                	jal	f46 <ROM_BASE-0xbffff0ba>
    1138:	1a05                	addi	s4,s4,-31
    113a:	0005                	c.nop	1
    113c:	1200                	addi	s0,sp,288
    113e:	088d                	addi	a7,a7,3
    1140:	0000                	unimp
    1142:	0c6c                	addi	a1,sp,540
    1144:	0000                	unimp
    1146:	8112                	mv	sp,tp
    1148:	0008                	0x8
    114a:	8000                	0x8000
    114c:	000c                	0xc
    114e:	1300                	addi	s0,sp,416
    1150:	08f0                	addi	a2,sp,92
    1152:	c000                	sw	s0,0(s0)
    1154:	0c76                	slli	s8,s8,0x1d
    1156:	0000                	unimp
    1158:	0008fc13          	andi	s8,a7,0
    115c:	76c0                	flw	fs0,44(a3)
    115e:	000c                	0xc
    1160:	1300                	addi	s0,sp,416
    1162:	0908                	addi	a0,sp,144
    1164:	c000                	sw	s0,0(s0)
    1166:	0c76                	slli	s8,s8,0x1d
    1168:	0000                	unimp
    116a:	1014                	addi	a3,sp,32
    116c:	0009                	c.nop	2
    116e:	9ac0                	0x9ac0
    1170:	000c                	0xc
    1172:	1000                	addi	s0,sp,32
    1174:	0005                	c.nop	1
    1176:	1000                	addi	s0,sp,32
    1178:	5a01                	li	s4,-32
    117a:	8202                	jr	tp
    117c:	0000                	unimp
    117e:	00091c13          	slli	s8,s2,0x0
    1182:	76c0                	flw	fs0,44(a3)
    1184:	000c                	0xc
    1186:	0000                	unimp
    1188:	a014                	fsd	fa3,0(s0)
    118a:	0008                	0x8
    118c:	acc0                	fsd	fs0,152(s1)
    118e:	0008                	0x8
    1190:	3800                	fld	fs0,48(s0)
    1192:	0005                	c.nop	1
    1194:	1000                	addi	s0,sp,32
    1196:	5a01                	li	s4,-32
    1198:	3001                	jal	998 <ROM_BASE-0xbffff668>
    119a:	0110                	addi	a2,sp,128
    119c:	1030015b          	0x1030015b
    11a0:	5c01                	li	s8,-32
    11a2:	0902                	c.slli64	s2
    11a4:	0095                	addi	ra,ra,5
    11a6:	0008c013          	xori	zero,a7,0
    11aa:	acc0                	fsd	fs0,152(s1)
    11ac:	0008                	0x8
    11ae:	0000                	unimp
    11b0:	00087013          	andi	zero,a6,0
    11b4:	a6c0                	fsd	fs0,136(a3)
    11b6:	000c                	0xc
    11b8:	1300                	addi	s0,sp,416
    11ba:	087c                	addi	a5,sp,28
    11bc:	c000                	sw	s0,0(s0)
    11be:	0c76                	slli	s8,s8,0x1d
    11c0:	0000                	unimp
    11c2:	00092013          	slti	zero,s2,0
    11c6:	0ac0                	addi	s0,sp,340
    11c8:	13000007          	0x13000007
    11cc:	0928                	addi	a0,sp,152
    11ce:	c000                	sw	s0,0(s0)
    11d0:	00000567          	jalr	a0,zero # 0 <ROM_BASE-0xc0000000>
    11d4:	1f00                	addi	s0,sp,944
    11d6:	0291                	addi	t0,t0,4
    11d8:	0000                	unimp
    11da:	5701                	li	a4,-32
    11dc:	8105                	srli	a0,a0,0x1
    11de:	0000                	unimp
    11e0:	8000                	0x8000
    11e2:	d8c00007          	0xd8c00007
    11e6:	0000                	unimp
    11e8:	0100                	addi	s0,sp,128
    11ea:	ee9c                	fsw	fa5,24(a3)
    11ec:	0006                	c.slli	zero,0x1
    11ee:	0900                	addi	s0,sp,144
    11f0:	0072                	c.slli	zero,0x1c
    11f2:	5901                	li	s2,-32
    11f4:	8f0d                	sub	a4,a4,a1
    11f6:	0000                	unimp
    11f8:	9800                	0x9800
    11fa:	000c                	0xc
    11fc:	1500                	addi	s0,sp,672
    11fe:	06ee                	slli	a3,a3,0x1b
    1200:	0000                	unimp
    1202:	0794                	addi	a3,sp,960
    1204:	c000                	sw	s0,0(s0)
    1206:	0054                	addi	a3,sp,4
    1208:	0000                	unimp
    120a:	5c01                	li	s8,-32
    120c:	4c09                	li	s8,2
    120e:	0006                	c.slli	zero,0x1
    1210:	2000                	fld	fs0,0(s0)
    1212:	06ff                	0x6ff
    1214:	0000                	unimp
    1216:	00000cab          	0xcab
    121a:	da16                	sw	t0,52(sp)
    121c:	0009                	c.nop	2
    121e:	a800                	fsd	fs0,16(s0)
    1220:	90c00007          	0x90c00007
    1224:	0002                	c.slli64	zero
    1226:	0100                	addi	s0,sp,128
    1228:	0552                	slli	a0,a0,0x14
    122a:	05d1                	addi	a1,a1,20
    122c:	0000                	unimp
    122e:	0007b00f          	0x7b00f
    1232:	6ac0                	flw	fs0,20(a3)
    1234:	000c                	0xc
    1236:	1000                	addi	s0,sp,32
    1238:	5a01                	li	s4,-32
    123a:	0902                	c.slli64	s2
    123c:	00ff                	0xff
    123e:	1500                	addi	s0,sp,672
    1240:	0874                	addi	a3,sp,28
    1242:	0000                	unimp
    1244:	07b0                	addi	a2,sp,968
    1246:	c000                	sw	s0,0(s0)
    1248:	0038                	addi	a4,sp,8
    124a:	0000                	unimp
    124c:	5301                	li	t1,-32
    124e:	3005                	jal	a6e <ROM_BASE-0xbffff592>
    1250:	0006                	c.slli	zero,0x1
    1252:	1200                	addi	s0,sp,288
    1254:	088d                	addi	a7,a7,3
    1256:	0000                	unimp
    1258:	0cbe                	slli	s9,s9,0xf
    125a:	0000                	unimp
    125c:	8112                	mv	sp,tp
    125e:	0008                	0x8
    1260:	d100                	sw	s0,32(a0)
    1262:	000c                	0xc
    1264:	1300                	addi	s0,sp,416
    1266:	07bc                	addi	a5,sp,968
    1268:	c000                	sw	s0,0(s0)
    126a:	0c76                	slli	s8,s8,0x1d
    126c:	0000                	unimp
    126e:	0007c813          	xori	a6,a5,0
    1272:	76c0                	flw	fs0,44(a3)
    1274:	000c                	0xc
    1276:	1300                	addi	s0,sp,416
    1278:	07d4                	addi	a3,sp,964
    127a:	c000                	sw	s0,0(s0)
    127c:	0c76                	slli	s8,s8,0x1d
    127e:	0000                	unimp
    1280:	dc14                	sw	a3,56(s0)
    1282:	9ac00007          	0x9ac00007
    1286:	000c                	0xc
    1288:	2600                	fld	fs0,8(a2)
    128a:	0006                	c.slli	zero,0x1
    128c:	1000                	addi	s0,sp,32
    128e:	5a01                	li	s4,-32
    1290:	7802                	flw	fa6,32(sp)
    1292:	0000                	unimp
    1294:	0007e813          	ori	a6,a5,0
    1298:	76c0                	flw	fs0,44(a3)
    129a:	000c                	0xc
    129c:	0000                	unimp
    129e:	0007a40f          	0x7a40f
    12a2:	acc0                	fsd	fs0,152(s1)
    12a4:	0008                	0x8
    12a6:	1000                	addi	s0,sp,32
    12a8:	5a01                	li	s4,-32
    12aa:	0802                	c.slli64	a6
    12ac:	5b011037          	lui	zero,0x5b011
    12b0:	3001                	jal	ab0 <ROM_BASE-0xbffff550>
    12b2:	0110                	addi	a2,sp,128
    12b4:	025c                	addi	a5,sp,260
    12b6:	6508                	flw	fa0,8(a0)
    12b8:	0000                	unimp
    12ba:	7416                	flw	fs0,100(sp)
    12bc:	0008                	0x8
    12be:	fc00                	fsw	fs0,56(s0)
    12c0:	a8c00007          	0xa8c00007
    12c4:	0002                	c.slli64	zero
    12c6:	0100                	addi	s0,sp,128
    12c8:	095e                	slli	s2,s2,0x17
    12ca:	000006ab          	0x6ab
    12ce:	8d12                	mv	s10,tp
    12d0:	0008                	0x8
    12d2:	e900                	fsw	fs0,16(a0)
    12d4:	000c                	0xc
    12d6:	1200                	addi	s0,sp,288
    12d8:	0881                	addi	a7,a7,0
    12da:	0000                	unimp
    12dc:	0cfc                	addi	a5,sp,604
    12de:	0000                	unimp
    12e0:	00080813          	mv	a6,a6
    12e4:	76c0                	flw	fs0,44(a3)
    12e6:	000c                	0xc
    12e8:	1300                	addi	s0,sp,416
    12ea:	0814                	addi	a3,sp,16
    12ec:	c000                	sw	s0,0(s0)
    12ee:	0c76                	slli	s8,s8,0x1d
    12f0:	0000                	unimp
    12f2:	00082013          	slti	zero,a6,0
    12f6:	76c0                	flw	fs0,44(a3)
    12f8:	000c                	0xc
    12fa:	1400                	addi	s0,sp,544
    12fc:	0828                	addi	a0,sp,24
    12fe:	c000                	sw	s0,0(s0)
    1300:	0c9a                	slli	s9,s9,0x6
    1302:	0000                	unimp
    1304:	06a1                	addi	a3,a3,8
    1306:	0000                	unimp
    1308:	0110                	addi	a2,sp,128
    130a:	025a                	slli	tp,tp,0x16
    130c:	0078                	addi	a4,sp,12
    130e:	1300                	addi	s0,sp,416
    1310:	0834                	addi	a3,sp,24
    1312:	c000                	sw	s0,0(s0)
    1314:	0c76                	slli	s8,s8,0x1d
    1316:	0000                	unimp
    1318:	1500                	addi	s0,sp,672
    131a:	09da                	slli	s3,s3,0x16
    131c:	0000                	unimp
    131e:	0834                	addi	a3,sp,24
    1320:	c000                	sw	s0,0(s0)
    1322:	0008                	0x8
    1324:	0000                	unimp
    1326:	5f01                	li	t5,-32
    1328:	d009                	beqz	s0,122a <ROM_BASE-0xbfffedd6>
    132a:	0006                	c.slli	zero,0x1
    132c:	0f00                	addi	s0,sp,912
    132e:	083c                	addi	a5,sp,24
    1330:	c000                	sw	s0,0(s0)
    1332:	0c6a                	slli	s8,s8,0x1a
    1334:	0000                	unimp
    1336:	0110                	addi	a2,sp,128
    1338:	025a                	slli	tp,tp,0x16
    133a:	ff09                	bnez	a4,1254 <ROM_BASE-0xbfffedac>
    133c:	0000                	unimp
    133e:	0007f80f          	0x7f80f
    1342:	acc0                	fsd	fs0,152(s1)
    1344:	0008                	0x8
    1346:	1000                	addi	s0,sp,32
    1348:	5a01                	li	s4,-32
    134a:	0802                	c.slli64	a6
    134c:	1029                	c.nop	-22
    134e:	5b01                	li	s6,-32
    1350:	244a4003          	lbu	zero,580(s4) # 2244 <ROM_BASE-0xbfffddbc>
    1354:	0110                	addi	a2,sp,128
    1356:	025c                	addi	a5,sp,260
    1358:	7708                	flw	fa0,40(a4)
    135a:	0000                	unimp
    135c:	ab21                	j	1874 <ROM_BASE-0xbfffe78c>
    135e:	0002                	c.slli64	zero
    1360:	0100                	addi	s0,sp,128
    1362:	0081054f          	fnmadd.s	fa0,ft2,fs0,ft0,rne
    1366:	0000                	unimp
    1368:	0a01                	addi	s4,s4,0
    136a:	22000007          	0x22000007
    136e:	0072                	c.slli	zero,0x1c
    1370:	5101                	li	sp,-32
    1372:	8f0d                	sub	a4,a4,a1
    1374:	0000                	unimp
    1376:	0000                	unimp
    1378:	081f 0003 0100      	0x1000003081f
    137e:	0542                	slli	a0,a0,0x10
    1380:	0081                	addi	ra,ra,0
    1382:	0000                	unimp
    1384:	065c                	addi	a5,sp,772
    1386:	c000                	sw	s0,0(s0)
    1388:	00ac                	addi	a1,sp,72
    138a:	0000                	unimp
    138c:	9c01                	0x9c01
    138e:	084c                	addi	a1,sp,20
    1390:	0000                	unimp
    1392:	7209                	lui	tp,0xfffe2
    1394:	0031                	c.nop	12
    1396:	4401                	li	s0,0
    1398:	8f0d                	sub	a4,a4,a1
    139a:	0000                	unimp
    139c:	1400                	addi	s0,sp,544
    139e:	000d                	c.nop	3
    13a0:	0900                	addi	s0,sp,144
    13a2:	3472                	fld	fs0,312(sp)
    13a4:	0100                	addi	s0,sp,128
    13a6:	008f0d47          	fmsub.s	fs10,ft10,fs0,ft0,rne
    13aa:	0000                	unimp
    13ac:	0d32                	slli	s10,s10,0xc
    13ae:	0000                	unimp
    13b0:	7209                	lui	tp,0xfffe2
    13b2:	0035                	c.nop	13
    13b4:	4801                	li	a6,0
    13b6:	8f0d                	sub	a4,a4,a1
    13b8:	0000                	unimp
    13ba:	5000                	lw	s0,32(s0)
    13bc:	000d                	c.nop	3
    13be:	1600                	addi	s0,sp,800
    13c0:	09da                	slli	s3,s3,0x16
    13c2:	0000                	unimp
    13c4:	0684                	addi	s1,sp,832
    13c6:	c000                	sw	s0,0(s0)
    13c8:	0230                	addi	a2,sp,264
    13ca:	0000                	unimp
    13cc:	4501                	li	a0,0
    13ce:	7605                	lui	a2,0xfffe1
    13d0:	0f000007          	0xf000007
    13d4:	068c                	addi	a1,sp,832
    13d6:	c000                	sw	s0,0(s0)
    13d8:	0c6a                	slli	s8,s8,0x1a
    13da:	0000                	unimp
    13dc:	0110                	addi	a2,sp,128
    13de:	025a                	slli	tp,tp,0x16
    13e0:	ff09                	bnez	a4,12fa <ROM_BASE-0xbfffed06>
    13e2:	0000                	unimp
    13e4:	da15                	beqz	a2,1318 <ROM_BASE-0xbfffece8>
    13e6:	0009                	c.nop	2
    13e8:	8c00                	0x8c00
    13ea:	0006                	c.slli	zero,0x1
    13ec:	08c0                	addi	s0,sp,84
    13ee:	0000                	unimp
    13f0:	0100                	addi	s0,sp,128
    13f2:	0546                	slli	a0,a0,0x11
    13f4:	0000079b          	0x79b
    13f8:	0006940f          	0x6940f
    13fc:	6ac0                	flw	fs0,20(a3)
    13fe:	000c                	0xc
    1400:	1000                	addi	s0,sp,32
    1402:	5a01                	li	s4,-32
    1404:	0902                	c.slli64	s2
    1406:	00ff                	0xff
    1408:	1500                	addi	s0,sp,672
    140a:	09da                	slli	s3,s3,0x16
    140c:	0000                	unimp
    140e:	0694                	addi	a3,sp,832
    1410:	c000                	sw	s0,0(s0)
    1412:	000c                	0xc
    1414:	0000                	unimp
    1416:	4701                	li	a4,0
    1418:	c012                	sw	tp,0(sp)
    141a:	0f000007          	0xf000007
    141e:	069c                	addi	a5,sp,832
    1420:	c000                	sw	s0,0(s0)
    1422:	0c6a                	slli	s8,s8,0x1a
    1424:	0000                	unimp
    1426:	0110                	addi	a2,sp,128
    1428:	025a                	slli	tp,tp,0x16
    142a:	ff09                	bnez	a4,1344 <ROM_BASE-0xbfffecbc>
    142c:	0000                	unimp
    142e:	da16                	sw	t0,52(sp)
    1430:	0009                	c.nop	2
    1432:	a000                	fsd	fs0,0(s0)
    1434:	0006                	c.slli	zero,0x1
    1436:	48c0                	lw	s0,20(s1)
    1438:	0002                	c.slli64	zero
    143a:	0100                	addi	s0,sp,128
    143c:	1248                	addi	a0,sp,292
    143e:	07e5                	addi	a5,a5,25
    1440:	0000                	unimp
    1442:	0006a80f          	0x6a80f
    1446:	6ac0                	flw	fs0,20(a3)
    1448:	000c                	0xc
    144a:	1000                	addi	s0,sp,32
    144c:	5a01                	li	s4,-32
    144e:	0902                	c.slli64	s2
    1450:	00ff                	0xff
    1452:	1600                	addi	s0,sp,800
    1454:	09da                	slli	s3,s3,0x16
    1456:	0000                	unimp
    1458:	06ac                	addi	a1,sp,840
    145a:	c000                	sw	s0,0(s0)
    145c:	0260                	addi	s0,sp,268
    145e:	0000                	unimp
    1460:	4901                	li	s2,0
    1462:	0a05                	addi	s4,s4,1
    1464:	0008                	0x8
    1466:	0f00                	addi	s0,sp,912
    1468:	06b4                	addi	a3,sp,840
    146a:	c000                	sw	s0,0(s0)
    146c:	0c6a                	slli	s8,s8,0x1a
    146e:	0000                	unimp
    1470:	0110                	addi	a2,sp,128
    1472:	025a                	slli	tp,tp,0x16
    1474:	ff09                	bnez	a4,138e <ROM_BASE-0xbfffec72>
    1476:	0000                	unimp
    1478:	da15                	beqz	a2,13ac <ROM_BASE-0xbfffec54>
    147a:	0009                	c.nop	2
    147c:	b400                	fsd	fs0,40(s0)
    147e:	0006                	c.slli	zero,0x1
    1480:	08c0                	addi	s0,sp,84
    1482:	0000                	unimp
    1484:	0100                	addi	s0,sp,128
    1486:	082f054b          	fnmsub.s	fa0,ft10,ft2,ft1,rne
    148a:	0000                	unimp
    148c:	0006bc0f          	0x6bc0f
    1490:	6ac0                	flw	fs0,20(a3)
    1492:	000c                	0xc
    1494:	1000                	addi	s0,sp,32
    1496:	5a01                	li	s4,-32
    1498:	0902                	c.slli64	s2
    149a:	00ff                	0xff
    149c:	0f00                	addi	s0,sp,912
    149e:	0680                	addi	s0,sp,832
    14a0:	c000                	sw	s0,0(s0)
    14a2:	08ac                	addi	a1,sp,88
    14a4:	0000                	unimp
    14a6:	0110                	addi	a2,sp,128
    14a8:	015a                	slli	sp,sp,0x16
    14aa:	1038                	addi	a4,sp,40
    14ac:	5b01                	li	s6,-32
    14ae:	01aa0a03          	lb	s4,26(s4)
    14b2:	0110                	addi	a2,sp,128
    14b4:	025c                	addi	a5,sp,260
    14b6:	8709                	srai	a4,a4,0x2
    14b8:	0000                	unimp
    14ba:	f521                	bnez	a0,1402 <ROM_BASE-0xbfffebfe>
    14bc:	0002                	c.slli64	zero
    14be:	0100                	addi	s0,sp,128
    14c0:	0531                	addi	a0,a0,12
    14c2:	0081                	addi	ra,ra,0
    14c4:	0000                	unimp
    14c6:	7401                	lui	s0,0xfffe0
    14c8:	0008                	0x8
    14ca:	1e00                	addi	s0,sp,816
    14cc:	0000029b          	0x29b
    14d0:	3301                	jal	11d0 <ROM_BASE-0xbfffee30>
    14d2:	8109                	srli	a0,a0,0x2
    14d4:	0000                	unimp
    14d6:	2200                	fld	fs0,0(a2)
    14d8:	0072                	c.slli	zero,0x1c
    14da:	3401                	jal	eda <ROM_BASE-0xbffff126>
    14dc:	8f0d                	sub	a4,a4,a1
    14de:	0000                	unimp
    14e0:	0000                	unimp
    14e2:	0002e823          	0x2e823
    14e6:	0100                	addi	s0,sp,128
    14e8:	0628                	addi	a0,sp,776
    14ea:	9a01                	andi	a2,a2,-32
    14ec:	0008                	0x8
    14ee:	1c00                	addi	s0,sp,560
    14f0:	00646d63          	bltu	s0,t1,150a <ROM_BASE-0xbfffeaf6>
    14f4:	2801                	jal	1504 <ROM_BASE-0xbfffeafc>
    14f6:	9a1f 0008 1d00      	0x1d0000089a1f
    14fc:	000002c7          	fmsub.s	ft5,ft0,ft0,ft0,rne
    1500:	2801                	jal	1510 <ROM_BASE-0xbfffeaf0>
    1502:	8f2c                	0x8f2c
    1504:	0000                	unimp
    1506:	0000                	unimp
    1508:	0418                	addi	a4,sp,512
    150a:	000008a7          	0x8a7
    150e:	0102                	c.slli64	sp
    1510:	e208                	fsw	fa0,0(a2)
    1512:	0000                	unimp
    1514:	2400                	fld	fs0,8(s0)
    1516:	08a0                	addi	s0,sp,88
    1518:	0000                	unimp
    151a:	8206                	mv	tp,ra
    151c:	0002                	c.slli64	zero
    151e:	0100                	addi	s0,sp,128
    1520:	008f090b          	0x8f090b
    1524:	0000                	unimp
    1526:	048c                	addi	a1,sp,576
    1528:	c000                	sw	s0,0(s0)
    152a:	009c                	addi	a5,sp,64
    152c:	0000                	unimp
    152e:	9c01                	0x9c01
    1530:	09da                	slli	s3,s3,0x16
    1532:	0000                	unimp
    1534:	646d6307          	0x646d6307
    1538:	0100                	addi	s0,sp,128
    153a:	008f180b          	0x8f180b
    153e:	0000                	unimp
    1540:	0d6e                	slli	s10,s10,0x1b
    1542:	0000                	unimp
    1544:	67726107          	0x67726107
    1548:	0100                	addi	s0,sp,128
    154a:	00ac260b          	0xac260b
    154e:	0000                	unimp
    1550:	00000d8f          	0xd8f
    1554:	63726307          	0x63726307
    1558:	0100                	addi	s0,sp,128
    155a:	008f330b          	0x8f330b
    155e:	0000                	unimp
    1560:	00000dbb          	0xdbb
    1564:	6e09                	lui	t3,0x2
    1566:	0100                	addi	s0,sp,128
    1568:	130d                	addi	t1,t1,-29
    156a:	006c                	addi	a1,sp,12
    156c:	0000                	unimp
    156e:	0ddc                	addi	a5,sp,724
    1570:	0000                	unimp
    1572:	7209                	lui	tp,0xfffe2
    1574:	0100                	addi	s0,sp,128
    1576:	0d0e                	slli	s10,s10,0x3
    1578:	0000008f          	0x8f
    157c:	0e14                	addi	a3,sp,784
    157e:	0000                	unimp
    1580:	da16                	sw	t0,52(sp)
    1582:	0009                	c.nop	2
    1584:	8c00                	0x8c00
    1586:	0004                	0x4
    1588:	e0c0                	fsw	fs0,4(s1)
    158a:	0001                	nop
    158c:	0100                	addi	s0,sp,128
    158e:	0510                	addi	a2,sp,640
    1590:	00000937          	lui	s2,0x0
    1594:	0004b40f          	0x4b40f
    1598:	6ac0                	flw	fs0,20(a3)
    159a:	000c                	0xc
    159c:	1000                	addi	s0,sp,32
    159e:	5a01                	li	s4,-32
    15a0:	0902                	c.slli64	s2
    15a2:	00ff                	0xff
    15a4:	1500                	addi	s0,sp,672
    15a6:	09da                	slli	s3,s3,0x16
    15a8:	0000                	unimp
    15aa:	04f8                	addi	a4,sp,588
    15ac:	c000                	sw	s0,0(s0)
    15ae:	0008                	0x8
    15b0:	0000                	unimp
    15b2:	1b01                	addi	s6,s6,-32
    15b4:	5c0d                	li	s8,-29
    15b6:	0009                	c.nop	2
    15b8:	0f00                	addi	s0,sp,912
    15ba:	0500                	addi	s0,sp,640
    15bc:	c000                	sw	s0,0(s0)
    15be:	0c6a                	slli	s8,s8,0x1a
    15c0:	0000                	unimp
    15c2:	0110                	addi	a2,sp,128
    15c4:	025a                	slli	tp,tp,0x16
    15c6:	ff09                	bnez	a4,14e0 <ROM_BASE-0xbfffeb20>
    15c8:	0000                	unimp
    15ca:	bc14                	fsd	fa3,56(s0)
    15cc:	0004                	0x4
    15ce:	6ac0                	flw	fs0,20(a3)
    15d0:	000c                	0xc
    15d2:	7300                	flw	fs0,32(a4)
    15d4:	0009                	c.nop	2
    15d6:	1000                	addi	s0,sp,32
    15d8:	5a01                	li	s4,-32
    15da:	8205                	srli	a2,a2,0x1
    15dc:	0800                	addi	s0,sp,16
    15de:	2140                	fld	fs0,128(a0)
    15e0:	1400                	addi	s0,sp,544
    15e2:	04c4                	addi	s1,sp,580
    15e4:	c000                	sw	s0,0(s0)
    15e6:	0c6a                	slli	s8,s8,0x1a
    15e8:	0000                	unimp
    15ea:	0989                	addi	s3,s3,2
    15ec:	0000                	unimp
    15ee:	0110                	addi	a2,sp,128
    15f0:	045a                	slli	s0,s0,0x16
    15f2:	0078                	addi	a4,sp,12
    15f4:	2548                	fld	fa0,136(a0)
    15f6:	1400                	addi	s0,sp,544
    15f8:	04d0                	addi	a2,sp,580
    15fa:	c000                	sw	s0,0(s0)
    15fc:	0c6a                	slli	s8,s8,0x1a
    15fe:	0000                	unimp
    1600:	099f 0000 0110      	0x1100000099f
    1606:	045a                	slli	s0,s0,0x16
    1608:	0078                	addi	a4,sp,12
    160a:	2540                	fld	fs0,136(a0)
    160c:	1400                	addi	s0,sp,544
    160e:	04dc                	addi	a5,sp,580
    1610:	c000                	sw	s0,0(s0)
    1612:	0c6a                	slli	s8,s8,0x1a
    1614:	0000                	unimp
    1616:	09b5                	addi	s3,s3,13
    1618:	0000                	unimp
    161a:	0110                	addi	a2,sp,128
    161c:	045a                	slli	s0,s0,0x16
    161e:	0078                	addi	a4,sp,12
    1620:	2538                	fld	fa4,72(a0)
    1622:	1400                	addi	s0,sp,544
    1624:	04e4                	addi	s1,sp,588
    1626:	c000                	sw	s0,0(s0)
    1628:	0c6a                	slli	s8,s8,0x1a
    162a:	0000                	unimp
    162c:	09c9                	addi	s3,s3,18
    162e:	0000                	unimp
    1630:	0110                	addi	a2,sp,128
    1632:	025a                	slli	tp,tp,0x16
    1634:	0078                	addi	a4,sp,12
    1636:	0f00                	addi	s0,sp,912
    1638:	04ec                	addi	a1,sp,588
    163a:	c000                	sw	s0,0(s0)
    163c:	0c6a                	slli	s8,s8,0x1a
    163e:	0000                	unimp
    1640:	0110                	addi	a2,sp,128
    1642:	025a                	slli	tp,tp,0x16
    1644:	0079                	c.nop	30
    1646:	0000                	unimp
    1648:	6625                	lui	a2,0x9
    164a:	0002                	c.slli64	zero
    164c:	0100                	addi	s0,sp,128
    164e:	0906                	slli	s2,s2,0x1
    1650:	0000008f          	0x8f
    1654:	2601                	jal	1954 <ROM_BASE-0xbfffe6ac>
    1656:	09da                	slli	s3,s3,0x16
    1658:	0000                	unimp
    165a:	0484                	addi	s1,sp,576
    165c:	c000                	sw	s0,0(s0)
    165e:	0008                	0x8
    1660:	0000                	unimp
    1662:	9c01                	0x9c01
    1664:	00000a0b          	0xa0b
    1668:	00048c27          	0x48c27
    166c:	6ac0                	flw	fs0,20(a3)
    166e:	000c                	0xc
    1670:	1000                	addi	s0,sp,32
    1672:	5a01                	li	s4,-32
    1674:	0902                	c.slli64	s2
    1676:	00ff                	0xff
    1678:	2600                	fld	fs0,8(a2)
    167a:	0874                	addi	a3,sp,28
    167c:	0000                	unimp
    167e:	0528                	addi	a0,sp,648
    1680:	c000                	sw	s0,0(s0)
    1682:	005c                	addi	a5,sp,4
    1684:	0000                	unimp
    1686:	9c01                	0x9c01
    1688:	0a74                	addi	a3,sp,284
    168a:	0000                	unimp
    168c:	8112                	mv	sp,tp
    168e:	0008                	0x8
    1690:	3200                	fld	fs0,32(a2)
    1692:	000e                	c.slli	zero,0x3
    1694:	1200                	addi	s0,sp,288
    1696:	088d                	addi	a7,a7,3
    1698:	0000                	unimp
    169a:	0e5e                	slli	t3,t3,0x17
    169c:	0000                	unimp
    169e:	00054c13          	xori	s8,a0,0
    16a2:	76c0                	flw	fs0,44(a3)
    16a4:	000c                	0xc
    16a6:	1400                	addi	s0,sp,544
    16a8:	0554                	addi	a3,sp,644
    16aa:	c000                	sw	s0,0(s0)
    16ac:	0c76                	slli	s8,s8,0x1d
    16ae:	0000                	unimp
    16b0:	0a4d                	addi	s4,s4,19
    16b2:	0000                	unimp
    16b4:	0110                	addi	a2,sp,128
    16b6:	025a                	slli	tp,tp,0x16
    16b8:	0079                	c.nop	30
    16ba:	1300                	addi	s0,sp,416
    16bc:	0560                	addi	s0,sp,652
    16be:	c000                	sw	s0,0(s0)
    16c0:	0c76                	slli	s8,s8,0x1d
    16c2:	0000                	unimp
    16c4:	6814                	flw	fa3,16(s0)
    16c6:	0005                	c.nop	1
    16c8:	9ac0                	0x9ac0
    16ca:	000c                	0xc
    16cc:	6a00                	flw	fs0,16(a2)
    16ce:	000a                	c.slli	zero,0x2
    16d0:	1000                	addi	s0,sp,32
    16d2:	5a01                	li	s4,-32
    16d4:	7802                	flw	fa6,32(sp)
    16d6:	0000                	unimp
    16d8:	8428                	0x8428
    16da:	0005                	c.nop	1
    16dc:	76c0                	flw	fs0,44(a3)
    16de:	000c                	0xc
    16e0:	0000                	unimp
    16e2:	4c26                	lw	s8,72(sp)
    16e4:	0008                	0x8
    16e6:	8400                	0x8400
    16e8:	0005                	c.nop	1
    16ea:	d8c0                	sw	s0,52(s1)
    16ec:	0000                	unimp
    16ee:	0100                	addi	s0,sp,128
    16f0:	599c                	lw	a5,48(a1)
    16f2:	2000000b          	0x2000000b
    16f6:	085d                	addi	a6,a6,23
    16f8:	0000                	unimp
    16fa:	0e7f                	0xe7f
    16fc:	0000                	unimp
    16fe:	6920                	flw	fs0,80(a0)
    1700:	0008                	0x8
    1702:	c800                	sw	s0,16(s0)
    1704:	000e                	c.slli	zero,0x3
    1706:	1600                	addi	s0,sp,800
    1708:	09da                	slli	s3,s3,0x16
    170a:	0000                	unimp
    170c:	05ac                	addi	a1,sp,712
    170e:	c000                	sw	s0,0(s0)
    1710:	0200                	addi	s0,sp,256
    1712:	0000                	unimp
    1714:	3801                	jal	f24 <ROM_BASE-0xbffff0dc>
    1716:	d209                	beqz	a2,1618 <ROM_BASE-0xbfffe9e8>
    1718:	000a                	c.slli	zero,0x2
    171a:	1400                	addi	s0,sp,544
    171c:	05b8                	addi	a4,sp,712
    171e:	c000                	sw	s0,0(s0)
    1720:	0c6a                	slli	s8,s8,0x1a
    1722:	0000                	unimp
    1724:	0ac1                	addi	s5,s5,16
    1726:	0000                	unimp
    1728:	0110                	addi	a2,sp,128
    172a:	025a                	slli	tp,tp,0x16
    172c:	ff09                	bnez	a4,1646 <ROM_BASE-0xbfffe9ba>
    172e:	0f00                	addi	s0,sp,912
    1730:	05d4                	addi	a3,sp,708
    1732:	c000                	sw	s0,0(s0)
    1734:	0c6a                	slli	s8,s8,0x1a
    1736:	0000                	unimp
    1738:	0110                	addi	a2,sp,128
    173a:	025a                	slli	tp,tp,0x16
    173c:	ff09                	bnez	a4,1656 <ROM_BASE-0xbfffe9aa>
    173e:	0000                	unimp
    1740:	7415                	lui	s0,0xfffe5
    1742:	0008                	0x8
    1744:	ec00                	fsw	fs0,24(s0)
    1746:	0005                	c.nop	1
    1748:	38c0                	fld	fs0,176(s1)
    174a:	0000                	unimp
    174c:	0100                	addi	s0,sp,128
    174e:	053d                	addi	a0,a0,15
    1750:	0b31                	addi	s6,s6,12
    1752:	0000                	unimp
    1754:	8d12                	mv	s10,tp
    1756:	0008                	0x8
    1758:	fe00                	fsw	fs0,56(a2)
    175a:	000e                	c.slli	zero,0x3
    175c:	1200                	addi	s0,sp,288
    175e:	0881                	addi	a7,a7,0
    1760:	0000                	unimp
    1762:	0f12                	slli	t5,t5,0x4
    1764:	0000                	unimp
    1766:	0005f813          	andi	a6,a1,0
    176a:	76c0                	flw	fs0,44(a3)
    176c:	000c                	0xc
    176e:	1300                	addi	s0,sp,416
    1770:	0604                	addi	s1,sp,768
    1772:	c000                	sw	s0,0(s0)
    1774:	0c76                	slli	s8,s8,0x1d
    1776:	0000                	unimp
    1778:	00061013          	slli	zero,a2,0x0
    177c:	76c0                	flw	fs0,44(a3)
    177e:	000c                	0xc
    1780:	1400                	addi	s0,sp,544
    1782:	0618                	addi	a4,sp,768
    1784:	c000                	sw	s0,0(s0)
    1786:	0c9a                	slli	s9,s9,0x6
    1788:	0000                	unimp
    178a:	00000b27          	0xb27
    178e:	0110                	addi	a2,sp,128
    1790:	025a                	slli	tp,tp,0x16
    1792:	0082                	c.slli64	ra
    1794:	1300                	addi	s0,sp,416
    1796:	0624                	addi	s1,sp,776
    1798:	c000                	sw	s0,0(s0)
    179a:	0c76                	slli	s8,s8,0x1d
    179c:	0000                	unimp
    179e:	1400                	addi	s0,sp,544
    17a0:	05a8                	addi	a0,sp,712
    17a2:	c000                	sw	s0,0(s0)
    17a4:	08ac                	addi	a1,sp,88
    17a6:	0000                	unimp
    17a8:	00000b4f          	fnmadd.s	fs6,ft0,ft0,ft0,rne
    17ac:	0110                	addi	a2,sp,128
    17ae:	015a                	slli	sp,sp,0x16
    17b0:	1030                	addi	a2,sp,40
    17b2:	5b01                	li	s6,-32
    17b4:	3001                	jal	fb4 <ROM_BASE-0xbffff04c>
    17b6:	0110                	addi	a2,sp,128
    17b8:	025c                	addi	a5,sp,260
    17ba:	9509                	srai	a0,a0,0x22
    17bc:	1300                	addi	s0,sp,416
    17be:	05c8                	addi	a0,sp,708
    17c0:	c000                	sw	s0,0(s0)
    17c2:	08ac                	addi	a1,sp,88
    17c4:	0000                	unimp
    17c6:	2600                	fld	fs0,8(a2)
    17c8:	06ee                	slli	a3,a3,0x1b
    17ca:	0000                	unimp
    17cc:	0708                	addi	a0,sp,896
    17ce:	c000                	sw	s0,0(s0)
    17d0:	0078                	addi	a4,sp,12
    17d2:	0000                	unimp
    17d4:	9c01                	0x9c01
    17d6:	0c15                	addi	s8,s8,5
    17d8:	0000                	unimp
    17da:	ff20                	fsw	fs0,120(a4)
    17dc:	0006                	c.slli	zero,0x1
    17de:	2a00                	fld	fs0,16(a2)
    17e0:	1600000f          	0x1600000f
    17e4:	09da                	slli	s3,s3,0x16
    17e6:	0000                	unimp
    17e8:	0728                	addi	a0,sp,904
    17ea:	c000                	sw	s0,0(s0)
    17ec:	0278                	addi	a4,sp,268
    17ee:	0000                	unimp
    17f0:	5201                	li	tp,-32
    17f2:	9a05                	andi	a2,a2,-31
    17f4:	0f00000b          	0xf00000b
    17f8:	0730                	addi	a2,sp,904
    17fa:	c000                	sw	s0,0(s0)
    17fc:	0c6a                	slli	s8,s8,0x1a
    17fe:	0000                	unimp
    1800:	0110                	addi	a2,sp,128
    1802:	025a                	slli	tp,tp,0x16
    1804:	ff09                	bnez	a4,171e <ROM_BASE-0xbfffe8e2>
    1806:	0000                	unimp
    1808:	7415                	lui	s0,0xfffe5
    180a:	0008                	0x8
    180c:	3000                	fld	fs0,32(s0)
    180e:	38c00007          	0x38c00007
    1812:	0000                	unimp
    1814:	0100                	addi	s0,sp,128
    1816:	0bf90553          	fsub.d	fa0,fs2,ft11,rne
    181a:	0000                	unimp
    181c:	8d12                	mv	s10,tp
    181e:	0008                	0x8
    1820:	3d00                	fld	fs0,56(a0)
    1822:	1200000f          	0x1200000f
    1826:	0881                	addi	a7,a7,0
    1828:	0000                	unimp
    182a:	0f50                	addi	a2,sp,916
    182c:	0000                	unimp
    182e:	00073c13          	sltiu	s8,a4,0
    1832:	76c0                	flw	fs0,44(a3)
    1834:	000c                	0xc
    1836:	1300                	addi	s0,sp,416
    1838:	0748                	addi	a0,sp,900
    183a:	c000                	sw	s0,0(s0)
    183c:	0c76                	slli	s8,s8,0x1d
    183e:	0000                	unimp
    1840:	00075413          	srli	s0,a4,0x0
    1844:	76c0                	flw	fs0,44(a3)
    1846:	000c                	0xc
    1848:	1400                	addi	s0,sp,544
    184a:	075c                	addi	a5,sp,900
    184c:	c000                	sw	s0,0(s0)
    184e:	0c9a                	slli	s9,s9,0x6
    1850:	0000                	unimp
    1852:	00000bef          	jal	s7,1852 <ROM_BASE-0xbfffe7ae>
    1856:	0110                	addi	a2,sp,128
    1858:	025a                	slli	tp,tp,0x16
    185a:	0078                	addi	a4,sp,12
    185c:	1300                	addi	s0,sp,416
    185e:	0768                	addi	a0,sp,908
    1860:	c000                	sw	s0,0(s0)
    1862:	0c76                	slli	s8,s8,0x1d
    1864:	0000                	unimp
    1866:	0f00                	addi	s0,sp,912
    1868:	0724                	addi	s1,sp,904
    186a:	c000                	sw	s0,0(s0)
    186c:	08ac                	addi	a1,sp,88
    186e:	0000                	unimp
    1870:	0110                	addi	a2,sp,128
    1872:	025a                	slli	tp,tp,0x16
    1874:	3708                	fld	fa0,40(a4)
    1876:	0110                	addi	a2,sp,128
    1878:	1030015b          	0x1030015b
    187c:	5c01                	li	s8,-32
    187e:	0802                	c.slli64	a6
    1880:	0065                	c.nop	25
    1882:	2600                	fld	fs0,8(a2)
    1884:	03d4                	addi	a3,sp,452
    1886:	0000                	unimp
    1888:	0978                	addi	a4,sp,156
    188a:	c000                	sw	s0,0(s0)
    188c:	0024                	addi	s1,sp,8
    188e:	0000                	unimp
    1890:	9c01                	0x9c01
    1892:	0c44                	addi	s1,sp,532
    1894:	0000                	unimp
    1896:	e512                	fsw	ft4,136(sp)
    1898:	68000003          	lb	zero,1664(zero) # 680 <ROM_BASE-0xbffff980>
    189c:	1200000f          	0x1200000f
    18a0:	03f1                	addi	t2,t2,28
    18a2:	0000                	unimp
    18a4:	0f89                	addi	t6,t6,2
    18a6:	0000                	unimp
    18a8:	fc20                	fsw	fs0,120(s0)
    18aa:	aa000003          	lb	zero,-1376(zero) # fffffaa0 <_BSS_END_+0x3fffe760>
    18ae:	0000000f          	fence	unknown,unknown
    18b2:	aa26                	fsd	fs1,272(sp)
    18b4:	9c000003          	lb	zero,-1600(zero) # fffff9c0 <_BSS_END_+0x3fffe680>
    18b8:	0009                	c.nop	2
    18ba:	54c0                	lw	s0,44(s1)
    18bc:	0000                	unimp
    18be:	0100                	addi	s0,sp,128
    18c0:	6a9c                	flw	fa5,16(a3)
    18c2:	000c                	0xc
    18c4:	1200                	addi	s0,sp,288
    18c6:	000003bb          	0x3bb
    18ca:	0fc8                	addi	a0,sp,980
    18cc:	0000                	unimp
    18ce:	c712                	sw	tp,140(sp)
    18d0:	0a000003          	lb	zero,160(zero) # a0 <ROM_BASE-0xbfffff60>
    18d4:	0010                	0x10
    18d6:	0000                	unimp
    18d8:	0529                	addi	a0,a0,10
    18da:	0002                	c.slli64	zero
    18dc:	0500                	addi	s0,sp,640
    18de:	0002                	c.slli64	zero
    18e0:	0400                	addi	s0,sp,512
    18e2:	0916                	slli	s2,s2,0x5
    18e4:	ce29                	beqz	a2,193e <ROM_BASE-0xbfffe6c2>
    18e6:	0000                	unimp
    18e8:	ce00                	sw	s0,24(a2)
    18ea:	0000                	unimp
    18ec:	0500                	addi	s0,sp,640
    18ee:	5129060b          	0x5129060b
    18f2:	0001                	nop
    18f4:	5100                	lw	s0,32(a0)
    18f6:	0001                	nop
    18f8:	0500                	addi	s0,sp,640
    18fa:	060d                	addi	a2,a2,3
    18fc:	0e29                	addi	t3,t3,10
    18fe:	0002                	c.slli64	zero
    1900:	0e00                	addi	s0,sp,784
    1902:	0002                	c.slli64	zero
    1904:	0400                	addi	s0,sp,512
    1906:	0519                	addi	a0,a0,6
    1908:	ad29                	j	1f22 <ROM_BASE-0xbfffe0de>
    190a:	0001                	nop
    190c:	ad00                	fsd	fs0,24(a0)
    190e:	0001                	nop
    1910:	0500                	addi	s0,sp,640
    1912:	4529060f          	0x4529060f
    1916:	0002                	c.slli64	zero
    1918:	4500                	lw	s0,8(a0)
    191a:	0002                	c.slli64	zero
    191c:	0400                	addi	s0,sp,512
    191e:	0614                	addi	a3,sp,768
    1920:	1600                	addi	s0,sp,800
    1922:	0006                	c.slli	zero,0x1
    1924:	0400                	addi	s0,sp,512
    1926:	a900                	fsd	fs0,16(a0)
    1928:	0006                	c.slli	zero,0x1
    192a:	0400                	addi	s0,sp,512
    192c:	3a01                	jal	123c <ROM_BASE-0xbfffedc4>
    192e:	0000                	unimp
    1930:	0c00                	addi	s0,sp,528
    1932:	038a                	slli	t2,t2,0x2
    1934:	0000                	unimp
    1936:	000a                	c.slli	zero,0x2
    1938:	0000                	unimp
    193a:	0c4c                	addi	a1,sp,532
    193c:	c000                	sw	s0,0(s0)
    193e:	0390                	addi	a2,sp,448
    1940:	0000                	unimp
    1942:	00001edb          	0x1edb
    1946:	0102                	c.slli64	sp
    1948:	db06                	sw	ra,180(sp)
    194a:	0000                	unimp
    194c:	0300                	addi	s0,sp,384
    194e:	00ba                	slli	ra,ra,0xe
    1950:	0000                	unimp
    1952:	2b02                	fld	fs6,0(sp)
    1954:	3818                	fld	fa4,48(s0)
    1956:	0000                	unimp
    1958:	0200                	addi	s0,sp,256
    195a:	0801                	addi	a6,a6,0
    195c:	00d9                	addi	ra,ra,22
    195e:	0000                	unimp
    1960:	0202                	c.slli64	tp
    1962:	4705                	li	a4,1
    1964:	0001                	nop
    1966:	0200                	addi	s0,sp,256
    1968:	0702                	c.slli64	a4
    196a:	000000e7          	jalr	zero # 0 <ROM_BASE-0xc0000000>
    196e:	0402                	c.slli64	s0
    1970:	3305                	jal	1690 <ROM_BASE-0xbfffe970>
    1972:	0001                	nop
    1974:	0300                	addi	s0,sp,384
    1976:	018e                	slli	gp,gp,0x3
    1978:	0000                	unimp
    197a:	4f02                	lw	t5,0(sp)
    197c:	6019                	c.lui	zero,0x6
    197e:	0000                	unimp
    1980:	0200                	addi	s0,sp,256
    1982:	0704                	addi	s1,sp,896
    1984:	011c                	addi	a5,sp,128
    1986:	0000                	unimp
    1988:	0802                	c.slli64	a6
    198a:	2e05                	jal	1cba <ROM_BASE-0xbfffe346>
    198c:	0001                	nop
    198e:	0300                	addi	s0,sp,384
    1990:	01cd                	addi	gp,gp,19
    1992:	0000                	unimp
    1994:	6902                	flw	fs2,0(sp)
    1996:	7a19                	lui	s4,0xfffe6
    1998:	0000                	unimp
    199a:	0200                	addi	s0,sp,256
    199c:	0708                	addi	a0,sp,896
    199e:	00000117          	auipc	sp,0x0
    19a2:	0404                	addi	s1,sp,512
    19a4:	6905                	lui	s2,0x1
    19a6:	746e                	flw	fs0,248(sp)
    19a8:	0200                	addi	s0,sp,256
    19aa:	0704                	addi	s1,sp,896
    19ac:	0121                	addi	sp,sp,8
    19ae:	0000                	unimp
    19b0:	0000bc03          	0xbc03
    19b4:	0300                	addi	s0,sp,384
    19b6:	1318                	addi	a4,sp,416
    19b8:	002c                	addi	a1,sp,8
    19ba:	0000                	unimp
    19bc:	00019003          	lh	zero,0(gp)
    19c0:	0300                	addi	s0,sp,384
    19c2:	1430                	addi	a2,sp,552
    19c4:	0054                	addi	a3,sp,4
    19c6:	0000                	unimp
    19c8:	0001cf03          	lbu	t5,0(gp)
    19cc:	0300                	addi	s0,sp,384
    19ce:	143c                	addi	a5,sp,552
    19d0:	006e                	c.slli	zero,0x1b
    19d2:	0000                	unimp
    19d4:	7505                	lui	a0,0xfffe1
    19d6:	0004                	0x4
    19d8:	6000                	flw	fs0,0(s0)
    19da:	0904                	addi	s1,sp,144
    19dc:	7710                	flw	fa2,40(a4)
    19de:	0001                	nop
    19e0:	0600                	addi	s0,sp,768
    19e2:	0460                	addi	s0,sp,524
    19e4:	0000                	unimp
    19e6:	0b04                	addi	s1,sp,400
    19e8:	a70e                	fsd	ft3,392(sp)
    19ea:	0000                	unimp
    19ec:	0000                	unimp
    19ee:	a206                	fsd	ft1,256(sp)
    19f0:	04000003          	lb	zero,64(zero) # 40 <ROM_BASE-0xbfffffc0>
    19f4:	0e0c                	addi	a1,sp,784
    19f6:	0000009b          	0x9b
    19fa:	0608                	addi	a0,sp,768
    19fc:	03cd                	addi	t2,t2,19
    19fe:	0000                	unimp
    1a00:	0d04                	addi	s1,sp,656
    1a02:	9b0e                	add	s6,s6,gp
    1a04:	0000                	unimp
    1a06:	0c00                	addi	s0,sp,528
    1a08:	6a06                	flw	fs4,64(sp)
    1a0a:	0004                	0x4
    1a0c:	0400                	addi	s0,sp,512
    1a0e:	0e0e                	slli	t3,t3,0x3
    1a10:	0000009b          	0x9b
    1a14:	0610                	addi	a2,sp,768
    1a16:	00000487          	0x487
    1a1a:	0f04                	addi	s1,sp,912
    1a1c:	9b0e                	add	s6,s6,gp
    1a1e:	0000                	unimp
    1a20:	1400                	addi	s0,sp,544
    1a22:	0106                	slli	sp,sp,0x1
    1a24:	0004                	0x4
    1a26:	0400                	addi	s0,sp,512
    1a28:	0e10                	addi	a2,sp,784
    1a2a:	000000a7          	0xa7
    1a2e:	0618                	addi	a4,sp,768
    1a30:	0455                	addi	s0,s0,21
    1a32:	0000                	unimp
    1a34:	1104                	addi	s1,sp,160
    1a36:	a70e                	fsd	ft3,392(sp)
    1a38:	0000                	unimp
    1a3a:	2000                	fld	fs0,0(s0)
    1a3c:	ab06                	fsd	ft1,400(sp)
    1a3e:	04000003          	lb	zero,64(zero) # 40 <ROM_BASE-0xbfffffc0>
    1a42:	0e12                	slli	t3,t3,0x4
    1a44:	000000a7          	0xa7
    1a48:	0628                	addi	a0,sp,776
    1a4a:	03d9                	addi	t2,t2,22
    1a4c:	0000                	unimp
    1a4e:	1304                	addi	s1,sp,416
    1a50:	a70e                	fsd	ft3,392(sp)
    1a52:	0000                	unimp
    1a54:	3000                	fld	fs0,32(s0)
    1a56:	7d06                	flw	fs10,96(sp)
    1a58:	0004                	0x4
    1a5a:	0400                	addi	s0,sp,512
    1a5c:	0d14                	addi	a3,sp,656
    1a5e:	00000177          	0x177
    1a62:	0638                	addi	a4,sp,776
    1a64:	0000033f a70e1504 	0xa70e15040000033f
    1a6c:	0000                	unimp
    1a6e:	4800                	lw	s0,16(s0)
    1a70:	3606                	fld	fa2,96(sp)
    1a72:	0004                	0x4
    1a74:	0400                	addi	s0,sp,512
    1a76:	0e16                	slli	t3,t3,0x5
    1a78:	0000009b          	0x9b
    1a7c:	0650                	addi	a2,sp,772
    1a7e:	0421                	addi	s0,s0,8
    1a80:	0000                	unimp
    1a82:	1704                	addi	s1,sp,928
    1a84:	9b0e                	add	s6,s6,gp
    1a86:	0000                	unimp
    1a88:	5400                	lw	s0,40(s0)
    1a8a:	2b06                	fld	fs6,64(sp)
    1a8c:	04000003          	lb	zero,64(zero) # 40 <ROM_BASE-0xbfffffc0>
    1a90:	0e18                	addi	a4,sp,784
    1a92:	0000009b          	0x9b
    1a96:	0058                	addi	a4,sp,4
    1a98:	00008f07          	0x8f07
    1a9c:	8700                	0x8700
    1a9e:	0001                	nop
    1aa0:	0800                	addi	s0,sp,16
    1aa2:	0088                	addi	a0,sp,64
    1aa4:	0000                	unimp
    1aa6:	f703000f          	0xf703000f
    1aaa:	04000003          	lb	zero,64(zero) # 40 <ROM_BASE-0xbfffffc0>
    1aae:	0319                	addi	t1,t1,6
    1ab0:	000000b3          	add	ra,zero,zero
    1ab4:	3905                	jal	16e4 <ROM_BASE-0xbfffe91c>
    1ab6:	0004                	0x4
    1ab8:	8000                	0x8000
    1aba:	1c04                	addi	s1,sp,560
    1abc:	ef10                	fsw	fa2,24(a4)
    1abe:	0001                	nop
    1ac0:	0600                	addi	s0,sp,768
    1ac2:	040d                	addi	s0,s0,3
    1ac4:	0000                	unimp
    1ac6:	1e04                	addi	s1,sp,816
    1ac8:	770d                	lui	a4,0xfffe3
    1aca:	0001                	nop
    1acc:	0000                	unimp
    1ace:	7b06                	flw	fs6,96(sp)
    1ad0:	04000003          	lb	zero,64(zero) # 40 <ROM_BASE-0xbfffffc0>
    1ad4:	0d1f 0177 0000      	0x1770d1f
    1ada:	0610                	addi	a2,sp,768
    1adc:	0000044b          	fnmsub.s	fs0,ft0,ft0,ft0,rne
    1ae0:	2004                	fld	fs1,0(s0)
    1ae2:	a70e                	fsd	ft3,392(sp)
    1ae4:	0000                	unimp
    1ae6:	2000                	fld	fs0,0(s0)
    1ae8:	9006                	c.add	zero,ra
    1aea:	0004                	0x4
    1aec:	0400                	addi	s0,sp,512
    1aee:	0e21                	addi	t3,t3,8
    1af0:	000000a7          	0xa7
    1af4:	0628                	addi	a0,sp,776
    1af6:	0000031b          	0x31b
    1afa:	2204                	fld	fs1,0(a2)
    1afc:	a70e                	fsd	ft3,392(sp)
    1afe:	0000                	unimp
    1b00:	3000                	fld	fs0,32(s0)
    1b02:	bc06                	fsd	ft1,56(sp)
    1b04:	04000003          	lb	zero,64(zero) # 40 <ROM_BASE-0xbfffffc0>
    1b08:	01ef0d23          	sb	t5,26(t5) # fffe001a <_BSS_END_+0x3ffdecda>
    1b0c:	0000                	unimp
    1b0e:	0038                	addi	a4,sp,8
    1b10:	00008f07          	0x8f07
    1b14:	ff00                	fsw	fs0,56(a4)
    1b16:	0001                	nop
    1b18:	0800                	addi	s0,sp,16
    1b1a:	0088                	addi	a0,sp,64
    1b1c:	0000                	unimp
    1b1e:	67030047          	fmsub.q	ft0,ft6,fa6,fa2,rne
    1b22:	04000003          	lb	zero,64(zero) # 40 <ROM_BASE-0xbfffffc0>
    1b26:	0324                	addi	s1,sp,392
    1b28:	00000193          	li	gp,0
    1b2c:	00036003          	0x36003
    1b30:	0500                	addi	s0,sp,640
    1b32:	17d1                	addi	a5,a5,-12
    1b34:	0088                	addi	a0,sp,64
    1b36:	0000                	unimp
    1b38:	1002                	c.slli	zero,0x20
    1b3a:	c104                	sw	s1,0(a0)
    1b3c:	09000003          	lb	zero,144(zero) # 90 <ROM_BASE-0xbfffff70>
    1b40:	00ff                	0xff
    1b42:	0000                	unimp
    1b44:	0701                	addi	a4,a4,0
    1b46:	8105                	srli	a0,a0,0x1
    1b48:	0000                	unimp
    1b4a:	4c00                	lw	s0,24(s0)
    1b4c:	000c                	0xc
    1b4e:	90c0                	0x90c0
    1b50:	01000003          	lb	zero,16(zero) # 10 <ROM_BASE-0xbffffff0>
    1b54:	999c                	0x999c
    1b56:	0005                	c.nop	1
    1b58:	0a00                	addi	s0,sp,272
    1b5a:	0326                	slli	t1,t1,0x9
    1b5c:	0000                	unimp
    1b5e:	0701                	addi	a4,a4,0
    1b60:	9926                	add	s2,s2,s1
    1b62:	0005                	c.nop	1
    1b64:	2b00                	fld	fs0,16(a4)
    1b66:	0010                	0x10
    1b68:	0a00                	addi	s0,sp,272
    1b6a:	0316                	slli	t1,t1,0x5
    1b6c:	0000                	unimp
    1b6e:	0701                	addi	a4,a4,0
    1b70:	9b35                	andi	a4,a4,-19
    1b72:	0000                	unimp
    1b74:	6200                	flw	fs0,0(a2)
    1b76:	0010                	0x10
    1b78:	0b00                	addi	s0,sp,400
    1b7a:	6572                	flw	fa0,28(sp)
    1b7c:	0074                	addi	a3,sp,12
    1b7e:	0901                	addi	s2,s2,0
    1b80:	8109                	srli	a0,a0,0x2
    1b82:	0000                	unimp
    1b84:	8300                	0x8300
    1b86:	0010                	0x10
    1b88:	0c00                	addi	s0,sp,528
    1b8a:	0310                	addi	a2,sp,384
    1b8c:	0000                	unimp
    1b8e:	1201                	addi	tp,tp,-32
    1b90:	0b0c                	addi	a1,sp,400
    1b92:	0002                	c.slli64	zero
    1b94:	a100                	fsd	fs0,0(a0)
    1b96:	0010                	0x10
    1b98:	0c00                	addi	s0,sp,528
    1b9a:	03ee                	slli	t2,t2,0x1b
    1b9c:	0000                	unimp
    1b9e:	1301                	addi	t1,t1,-32
    1ba0:	9f0d                	0x9f0d
    1ba2:	0005                	c.nop	1
    1ba4:	c500                	sw	s0,8(a0)
    1ba6:	0010                	0x10
    1ba8:	0b00                	addi	s0,sp,400
    1baa:	6572                	flw	fa0,28(sp)
    1bac:	15010073          	0x15010073
    1bb0:	8109                	srli	a0,a0,0x2
    1bb2:	0000                	unimp
    1bb4:	fd00                	fsw	fs0,56(a0)
    1bb6:	0010                	0x10
    1bb8:	0c00                	addi	s0,sp,528
    1bba:	03e9                	addi	t2,t2,26
    1bbc:	0000                	unimp
    1bbe:	2001                	jal	1bbe <ROM_BASE-0xbfffe442>
    1bc0:	b210                	fsd	fa2,32(a2)
    1bc2:	0005                	c.nop	1
    1bc4:	5200                	lw	s0,32(a2)
    1bc6:	0011                	c.nop	4
    1bc8:	0c00                	addi	s0,sp,528
    1bca:	0394                	addi	a3,sp,448
    1bcc:	0000                	unimp
    1bce:	3901                	jal	17de <ROM_BASE-0xbfffe822>
    1bd0:	b80d                	j	1402 <ROM_BASE-0xbfffebfe>
    1bd2:	0005                	c.nop	1
    1bd4:	7b00                	flw	fs0,48(a4)
    1bd6:	0011                	c.nop	4
    1bd8:	0c00                	addi	s0,sp,528
    1bda:	039d                	addi	t2,t2,7
    1bdc:	0000                	unimp
    1bde:	5d01                	li	s10,-32
    1be0:	cb1a                	sw	t1,148(sp)
    1be2:	0005                	c.nop	1
    1be4:	9b00                	0x9b00
    1be6:	0011                	c.nop	4
    1be8:	0d00                	addi	s0,sp,656
    1bea:	0dd0                	addi	a2,sp,724
    1bec:	c000                	sw	s0,0(s0)
    1bee:	00e0                	addi	s0,sp,76
    1bf0:	0000                	unimp
    1bf2:	03dc                	addi	a5,sp,452
    1bf4:	0000                	unimp
    1bf6:	0100690b          	0x100690b
    1bfa:	0e46                	slli	t3,t3,0x11
    1bfc:	0081                	addi	ra,ra,0
    1bfe:	0000                	unimp
    1c00:	11b9                	addi	gp,gp,-18
    1c02:	0000                	unimp
    1c04:	000e                	c.slli	zero,0x3
    1c06:	0004                	0x4
    1c08:	0c00                	addi	s0,sp,528
    1c0a:	0355                	addi	t1,t1,21
    1c0c:	0000                	unimp
    1c0e:	4801                	li	a6,0
    1c10:	cb1e                	sw	t2,148(sp)
    1c12:	0005                	c.nop	1
    1c14:	ef00                	fsw	fs0,24(a4)
    1c16:	0011                	c.nop	4
    1c18:	0d00                	addi	s0,sp,656
    1c1a:	0df4                	addi	a3,sp,732
    1c1c:	c000                	sw	s0,0(s0)
    1c1e:	0014                	0x14
    1c20:	0000                	unimp
    1c22:	031d                	addi	t1,t1,7
    1c24:	0000                	unimp
    1c26:	01006a0b          	0x1006a0b
    1c2a:	124c                	addi	a1,sp,292
    1c2c:	0081                	addi	ra,ra,0
    1c2e:	0000                	unimp
    1c30:	1205                	addi	tp,tp,-31
    1c32:	0000                	unimp
    1c34:	000e040f          	0xe040f
    1c38:	d1c0                	sw	s0,36(a1)
    1c3a:	0005                	c.nop	1
    1c3c:	0000                	unimp
    1c3e:	1810                	addi	a2,sp,48
    1c40:	0004                	0x4
    1c42:	3e00                	fld	fs0,56(a2)
    1c44:	0b000003          	lb	zero,176(zero) # b0 <ROM_BASE-0xbfffff50>
    1c48:	006a                	c.slli	zero,0x1a
    1c4a:	4f01                	li	t5,0
    1c4c:	8112                	mv	sp,tp
    1c4e:	0000                	unimp
    1c50:	3e00                	fld	fs0,56(a2)
    1c52:	0012                	c.slli	zero,0x4
    1c54:	0f00                	addi	s0,sp,912
    1c56:	0e24                	addi	s1,sp,792
    1c58:	c000                	sw	s0,0(s0)
    1c5a:	05d1                	addi	a1,a1,20
    1c5c:	0000                	unimp
    1c5e:	0d00                	addi	s0,sp,656
    1c60:	0e80                	addi	s0,sp,848
    1c62:	c000                	sw	s0,0(s0)
    1c64:	0010                	0x10
    1c66:	0000                	unimp
    1c68:	00000363          	beqz	zero,1c6e <ROM_BASE-0xbfffe392>
    1c6c:	01006a0b          	0x1006a0b
    1c70:	1258                	addi	a4,sp,292
    1c72:	0081                	addi	ra,ra,0
    1c74:	0000                	unimp
    1c76:	1276                	slli	tp,tp,0x3d
    1c78:	0000                	unimp
    1c7a:	000e8c0f          	0xe8c0f
    1c7e:	d1c0                	sw	s0,36(a1)
    1c80:	0005                	c.nop	1
    1c82:	0000                	unimp
    1c84:	000de00f          	0xde00f
    1c88:	ddc0                	sw	s0,60(a1)
    1c8a:	0005                	c.nop	1
    1c8c:	1100                	addi	s0,sp,160
    1c8e:	0de8                	addi	a0,sp,732
    1c90:	c000                	sw	s0,0(s0)
    1c92:	05d1                	addi	a1,a1,20
    1c94:	0000                	unimp
    1c96:	0380                	addi	s0,sp,448
    1c98:	0000                	unimp
    1c9a:	0112                	slli	sp,sp,0x4
    1c9c:	025a                	slli	tp,tp,0x16
    1c9e:	0085                	addi	ra,ra,1
    1ca0:	0f00                	addi	s0,sp,912
    1ca2:	0df4                	addi	a3,sp,732
    1ca4:	c000                	sw	s0,0(s0)
    1ca6:	05dd                	addi	a1,a1,23
    1ca8:	0000                	unimp
    1caa:	000e140f          	0xe140f
    1cae:	ddc0                	sw	s0,60(a1)
    1cb0:	0005                	c.nop	1
    1cb2:	0f00                	addi	s0,sp,912
    1cb4:	0e34                	addi	a3,sp,792
    1cb6:	c000                	sw	s0,0(s0)
    1cb8:	05dd                	addi	a1,a1,23
    1cba:	0000                	unimp
    1cbc:	000e440f          	0xe440f
    1cc0:	e9c0                	fsw	fs0,20(a1)
    1cc2:	0005                	c.nop	1
    1cc4:	0f00                	addi	s0,sp,912
    1cc6:	0e50                	addi	a2,sp,788
    1cc8:	c000                	sw	s0,0(s0)
    1cca:	05dd                	addi	a1,a1,23
    1ccc:	0000                	unimp
    1cce:	000e5c0f          	0xe5c0f
    1cd2:	e9c0                	fsw	fs0,20(a1)
    1cd4:	0005                	c.nop	1
    1cd6:	0f00                	addi	s0,sp,912
    1cd8:	0e68                	addi	a0,sp,796
    1cda:	c000                	sw	s0,0(s0)
    1cdc:	05dd                	addi	a1,a1,23
    1cde:	0000                	unimp
    1ce0:	000e740f          	0xe740f
    1ce4:	e9c0                	fsw	fs0,20(a1)
    1ce6:	0005                	c.nop	1
    1ce8:	0f00                	addi	s0,sp,912
    1cea:	0e80                	addi	s0,sp,848
    1cec:	c000                	sw	s0,0(s0)
    1cee:	05dd                	addi	a1,a1,23
    1cf0:	0000                	unimp
    1cf2:	000ea00f          	0xea00f
    1cf6:	ddc0                	sw	s0,60(a1)
    1cf8:	0005                	c.nop	1
    1cfa:	0000                	unimp
    1cfc:	1300                	addi	s0,sp,416
    1cfe:	0088                	addi	a0,sp,64
    1d00:	0000                	unimp
    1d02:	12a2                	slli	t0,t0,0x28
    1d04:	0000                	unimp
    1d06:	00008813          	mv	a6,ra
    1d0a:	c600                	sw	s0,8(a2)
    1d0c:	0012                	c.slli	zero,0x4
    1d0e:	0f00                	addi	s0,sp,912
    1d10:	0c84                	addi	s1,sp,592
    1d12:	c000                	sw	s0,0(s0)
    1d14:	05f5                	addi	a1,a1,29
    1d16:	0000                	unimp
    1d18:	000c940f          	0xc940f
    1d1c:	ddc0                	sw	s0,60(a1)
    1d1e:	0005                	c.nop	1
    1d20:	1100                	addi	s0,sp,160
    1d22:	0ca8                	addi	a0,sp,600
    1d24:	c000                	sw	s0,0(s0)
    1d26:	0601                	addi	a2,a2,0
    1d28:	0000                	unimp
    1d2a:	041e                	slli	s0,s0,0x7
    1d2c:	0000                	unimp
    1d2e:	0112                	slli	sp,sp,0x4
    1d30:	025a                	slli	tp,tp,0x16
    1d32:	0072                	c.slli	zero,0x1c
    1d34:	0112                	slli	sp,sp,0x4
    1d36:	1231015b          	0x1231015b
    1d3a:	5c01                	li	s8,-32
    1d3c:	3101                	jal	193c <ROM_BASE-0xbfffe6c4>
    1d3e:	0f00                	addi	s0,sp,912
    1d40:	0cc0                	addi	s0,sp,596
    1d42:	c000                	sw	s0,0(s0)
    1d44:	05dd                	addi	a1,a1,23
    1d46:	0000                	unimp
    1d48:	000ccc0f          	0xccc0f
    1d4c:	ddc0                	sw	s0,60(a1)
    1d4e:	0005                	c.nop	1
    1d50:	0f00                	addi	s0,sp,912
    1d52:	0cd8                	addi	a4,sp,596
    1d54:	c000                	sw	s0,0(s0)
    1d56:	05e9                	addi	a1,a1,26
    1d58:	0000                	unimp
    1d5a:	000ce40f          	0xce40f
    1d5e:	ddc0                	sw	s0,60(a1)
    1d60:	0005                	c.nop	1
    1d62:	0f00                	addi	s0,sp,912
    1d64:	0cec                	addi	a1,sp,604
    1d66:	c000                	sw	s0,0(s0)
    1d68:	060d                	addi	a2,a2,3
    1d6a:	0000                	unimp
    1d6c:	000cf80f          	0xcf80f
    1d70:	ddc0                	sw	s0,60(a1)
    1d72:	0005                	c.nop	1
    1d74:	0f00                	addi	s0,sp,912
    1d76:	0d00                	addi	s0,sp,656
    1d78:	c000                	sw	s0,0(s0)
    1d7a:	060d                	addi	a2,a2,3
    1d7c:	0000                	unimp
    1d7e:	000d0c0f          	0xd0c0f
    1d82:	ddc0                	sw	s0,60(a1)
    1d84:	0005                	c.nop	1
    1d86:	0f00                	addi	s0,sp,912
    1d88:	0d14                	addi	a3,sp,656
    1d8a:	c000                	sw	s0,0(s0)
    1d8c:	060d                	addi	a2,a2,3
    1d8e:	0000                	unimp
    1d90:	000d200f          	0xd200f
    1d94:	ddc0                	sw	s0,60(a1)
    1d96:	0005                	c.nop	1
    1d98:	0f00                	addi	s0,sp,912
    1d9a:	0d28                	addi	a0,sp,664
    1d9c:	c000                	sw	s0,0(s0)
    1d9e:	060d                	addi	a2,a2,3
    1da0:	0000                	unimp
    1da2:	000d340f          	0xd340f
    1da6:	ddc0                	sw	s0,60(a1)
    1da8:	0005                	c.nop	1
    1daa:	0f00                	addi	s0,sp,912
    1dac:	0d40                	addi	s0,sp,660
    1dae:	c000                	sw	s0,0(s0)
    1db0:	05e9                	addi	a1,a1,26
    1db2:	0000                	unimp
    1db4:	000d4c0f          	0xd4c0f
    1db8:	ddc0                	sw	s0,60(a1)
    1dba:	0005                	c.nop	1
    1dbc:	0f00                	addi	s0,sp,912
    1dbe:	0d58                	addi	a4,sp,660
    1dc0:	c000                	sw	s0,0(s0)
    1dc2:	05e9                	addi	a1,a1,26
    1dc4:	0000                	unimp
    1dc6:	000d640f          	0xd640f
    1dca:	ddc0                	sw	s0,60(a1)
    1dcc:	0005                	c.nop	1
    1dce:	0f00                	addi	s0,sp,912
    1dd0:	0d70                	addi	a2,sp,668
    1dd2:	c000                	sw	s0,0(s0)
    1dd4:	05e9                	addi	a1,a1,26
    1dd6:	0000                	unimp
    1dd8:	000d7c0f          	0xd7c0f
    1ddc:	ddc0                	sw	s0,60(a1)
    1dde:	0005                	c.nop	1
    1de0:	0f00                	addi	s0,sp,912
    1de2:	0d84                	addi	s1,sp,720
    1de4:	c000                	sw	s0,0(s0)
    1de6:	060d                	addi	a2,a2,3
    1de8:	0000                	unimp
    1dea:	000d900f          	0xd900f
    1dee:	ddc0                	sw	s0,60(a1)
    1df0:	0005                	c.nop	1
    1df2:	0f00                	addi	s0,sp,912
    1df4:	0d98                	addi	a4,sp,720
    1df6:	c000                	sw	s0,0(s0)
    1df8:	060d                	addi	a2,a2,3
    1dfa:	0000                	unimp
    1dfc:	000da40f          	0xda40f
    1e00:	ddc0                	sw	s0,60(a1)
    1e02:	0005                	c.nop	1
    1e04:	1100                	addi	s0,sp,160
    1e06:	0db8                	addi	a4,sp,728
    1e08:	c000                	sw	s0,0(s0)
    1e0a:	0601                	addi	a2,a2,0
    1e0c:	0000                	unimp
    1e0e:	04fd                	addi	s1,s1,31
    1e10:	0000                	unimp
    1e12:	0112                	slli	sp,sp,0x4
    1e14:	025a                	slli	tp,tp,0x16
    1e16:	0072                	c.slli	zero,0x1c
    1e18:	0112                	slli	sp,sp,0x4
    1e1a:	015c                	addi	a5,sp,132
    1e1c:	0031                	c.nop	12
    1e1e:	000ebc0f          	0xebc0f
    1e22:	ddc0                	sw	s0,60(a1)
    1e24:	0005                	c.nop	1
    1e26:	1100                	addi	s0,sp,160
    1e28:	0ed4                	addi	a3,sp,852
    1e2a:	c000                	sw	s0,0(s0)
    1e2c:	0601                	addi	a2,a2,0
    1e2e:	0000                	unimp
    1e30:	051a                	slli	a0,a0,0x6
    1e32:	0000                	unimp
    1e34:	0112                	slli	sp,sp,0x4
    1e36:	025a                	slli	tp,tp,0x16
    1e38:	0f000087          	0xf000087
    1e3c:	0ee8                	addi	a0,sp,860
    1e3e:	c000                	sw	s0,0(s0)
    1e40:	05dd                	addi	a1,a1,23
    1e42:	0000                	unimp
    1e44:	000f2c0f          	0xf2c0f
    1e48:	ddc0                	sw	s0,60(a1)
    1e4a:	0005                	c.nop	1
    1e4c:	0f00                	addi	s0,sp,912
    1e4e:	0f40                	addi	s0,sp,916
    1e50:	c000                	sw	s0,0(s0)
    1e52:	05dd                	addi	a1,a1,23
    1e54:	0000                	unimp
    1e56:	000f4c0f          	0xf4c0f
    1e5a:	ddc0                	sw	s0,60(a1)
    1e5c:	0005                	c.nop	1
    1e5e:	0f00                	addi	s0,sp,912
    1e60:	0f58                	addi	a4,sp,916
    1e62:	c000                	sw	s0,0(s0)
    1e64:	05e9                	addi	a1,a1,26
    1e66:	0000                	unimp
    1e68:	000f640f          	0xf640f
    1e6c:	ddc0                	sw	s0,60(a1)
    1e6e:	0005                	c.nop	1
    1e70:	0f00                	addi	s0,sp,912
    1e72:	0f78                	addi	a4,sp,924
    1e74:	c000                	sw	s0,0(s0)
    1e76:	05dd                	addi	a1,a1,23
    1e78:	0000                	unimp
    1e7a:	000f840f          	0xf840f
    1e7e:	ddc0                	sw	s0,60(a1)
    1e80:	0005                	c.nop	1
    1e82:	0f00                	addi	s0,sp,912
    1e84:	0f90                	addi	a2,sp,976
    1e86:	c000                	sw	s0,0(s0)
    1e88:	05e9                	addi	a1,a1,26
    1e8a:	0000                	unimp
    1e8c:	000f9c0f          	0xf9c0f
    1e90:	ddc0                	sw	s0,60(a1)
    1e92:	0005                	c.nop	1
    1e94:	0f00                	addi	s0,sp,912
    1e96:	0fb0                	addi	a2,sp,984
    1e98:	c000                	sw	s0,0(s0)
    1e9a:	05dd                	addi	a1,a1,23
    1e9c:	0000                	unimp
    1e9e:	000fbc0f          	0xfbc0f
    1ea2:	ddc0                	sw	s0,60(a1)
    1ea4:	0005                	c.nop	1
    1ea6:	0f00                	addi	s0,sp,912
    1ea8:	0fc8                	addi	a0,sp,980
    1eaa:	c000                	sw	s0,0(s0)
    1eac:	05e9                	addi	a1,a1,26
    1eae:	0000                	unimp
    1eb0:	000fd40f          	0xfd40f
    1eb4:	ddc0                	sw	s0,60(a1)
    1eb6:	0005                	c.nop	1
    1eb8:	0000                	unimp
    1eba:	0414                	addi	a3,sp,512
    1ebc:	0000008f          	0x8f
    1ec0:	00008f07          	0x8f07
    1ec4:	b200                	fsd	fs0,32(a2)
    1ec6:	0005                	c.nop	1
    1ec8:	1500                	addi	s0,sp,672
    1eca:	0088                	addi	a0,sp,64
    1ecc:	0000                	unimp
    1ece:	03dc                	addi	a5,sp,452
    1ed0:	0000                	unimp
    1ed2:	1400                	addi	s0,sp,544
    1ed4:	8704                	0x8704
    1ed6:	0001                	nop
    1ed8:	0700                	addi	s0,sp,896
    1eda:	0000008f          	0x8f
    1ede:	000005cb          	fnmsub.s	fa1,ft0,ft0,ft0,rne
    1ee2:	8815                	andi	s0,s0,5
    1ee4:	0000                	unimp
    1ee6:	e500                	fsw	fs0,8(a0)
    1ee8:	00000003          	lb	zero,0(zero) # 0 <ROM_BASE-0xc0000000>
    1eec:	0414                	addi	a3,sp,512
    1eee:	01ff                	0x1ff
    1ef0:	0000                	unimp
    1ef2:	ad16                	fsd	ft5,152(sp)
    1ef4:	0001                	nop
    1ef6:	ad00                	fsd	fs0,24(a0)
    1ef8:	0001                	nop
    1efa:	0600                	addi	s0,sp,768
    1efc:	ce16060f          	0xce16060f
    1f00:	0000                	unimp
    1f02:	ce00                	sw	s0,24(a2)
    1f04:	0000                	unimp
    1f06:	0600                	addi	s0,sp,768
    1f08:	bd16060b          	0xbd16060b
    1f0c:	0001                	nop
    1f0e:	bd00                	fsd	fs0,56(a0)
    1f10:	0001                	nop
    1f12:	0600                	addi	s0,sp,768
    1f14:	060e                	slli	a2,a2,0x3
    1f16:	8916                	mv	s2,t0
    1f18:	0002                	c.slli64	zero
    1f1a:	8900                	0x8900
    1f1c:	0002                	c.slli64	zero
    1f1e:	0700                	addi	s0,sp,896
    1f20:	0510                	addi	a2,sp,640
    1f22:	7a16                	flw	fs4,100(sp)
    1f24:	0002                	c.slli64	zero
    1f26:	7a00                	flw	fs0,48(a2)
    1f28:	0002                	c.slli64	zero
    1f2a:	0700                	addi	s0,sp,896
    1f2c:	0514                	addi	a3,sp,640
    1f2e:	5116                	lw	sp,100(sp)
    1f30:	0001                	nop
    1f32:	5100                	lw	s0,32(a0)
    1f34:	0001                	nop
    1f36:	0600                	addi	s0,sp,768
    1f38:	060d                	addi	a2,a2,3
	...

Disassembly of section .debug_abbrev:

00000000 <.debug_abbrev>:
   0:	1101                	addi	sp,sp,-32
   2:	1000                	addi	s0,sp,32
   4:	1106                	slli	sp,sp,0x21
   6:	1201                	addi	tp,tp,-32
   8:	0301                	addi	t1,t1,0
   a:	1b0e                	slli	s6,s6,0x23
   c:	250e                	fld	fa0,192(sp)
   e:	130e                	slli	t1,t1,0x23
  10:	0005                	c.nop	1
  12:	0000                	unimp
  14:	1101                	addi	sp,sp,-32
  16:	2501                	jal	616 <ROM_BASE-0xbffff9ea>
  18:	130e                	slli	t1,t1,0x23
  1a:	1b0e030b          	0x1b0e030b
  1e:	550e                	lw	a0,224(sp)
  20:	10011117          	auipc	sp,0x10011
  24:	02000017          	auipc	zero,0x2000
  28:	0024                	addi	s1,sp,8
  2a:	0b3e0b0b          	0xb3e0b0b
  2e:	00000e03          	lb	t3,0(zero) # 0 <ROM_BASE-0xc0000000>
  32:	03001603          	lh	a2,48(zero) # 30 <ROM_BASE-0xbfffffd0>
  36:	3a0e                	fld	fs4,224(sp)
  38:	390b3b0b          	0x390b3b0b
  3c:	0013490b          	0x13490b
  40:	0400                	addi	s0,sp,512
  42:	0024                	addi	s1,sp,8
  44:	0b3e0b0b          	0xb3e0b0b
  48:	00000803          	lb	a6,0(zero) # 0 <ROM_BASE-0xc0000000>
  4c:	2e05                	jal	37c <ROM_BASE-0xbffffc84>
  4e:	3f01                	jal	ffffff5e <_BSS_END_+0x3fffec1e>
  50:	0319                	addi	t1,t1,6
  52:	3a0e                	fld	fs4,224(sp)
  54:	390b3b0b          	0x390b3b0b
  58:	1113490b          	0x1113490b
  5c:	1201                	addi	tp,tp,-32
  5e:	4006                	0x4006
  60:	9718                	0x9718
  62:	1942                	slli	s2,s2,0x30
  64:	1301                	addi	t1,t1,-32
  66:	0000                	unimp
  68:	3406                	fld	fs0,96(sp)
  6a:	0300                	addi	s0,sp,384
  6c:	3a08                	fld	fa0,48(a2)
  6e:	390b3b0b          	0x390b3b0b
  72:	0013490b          	0x13490b
  76:	0700                	addi	s0,sp,896
  78:	8289                	srli	a3,a3,0x2
  7a:	0101                	addi	sp,sp,0
  7c:	0111                	addi	sp,sp,4
  7e:	1331                	addi	t1,t1,-20
  80:	1301                	addi	t1,t1,-32
  82:	0000                	unimp
  84:	8a08                	0x8a08
  86:	0182                	c.slli64	gp
  88:	0200                	addi	s0,sp,256
  8a:	9118                	0x9118
  8c:	1842                	slli	a6,a6,0x30
  8e:	0000                	unimp
  90:	8909                	andi	a0,a0,2
  92:	0182                	c.slli64	gp
  94:	1100                	addi	s0,sp,160
  96:	3101                	jal	fffffc96 <_BSS_END_+0x3fffe956>
  98:	0a000013          	li	zero,160
  9c:	8289                	srli	a3,a3,0x2
  9e:	0101                	addi	sp,sp,0
  a0:	0111                	addi	sp,sp,4
  a2:	1331                	addi	t1,t1,-20
  a4:	0000                	unimp
  a6:	3f002e0b          	0x3f002e0b
  aa:	3c19                	jal	fffffac0 <_BSS_END_+0x3fffe780>
  ac:	6e19                	lui	t3,0x6
  ae:	030e                	slli	t1,t1,0x3
  b0:	3a0e                	fld	fs4,224(sp)
  b2:	390b3b0b          	0x390b3b0b
  b6:	0000000b          	0xb
  ba:	1101                	addi	sp,sp,-32
  bc:	2501                	jal	6bc <ROM_BASE-0xbffff944>
  be:	130e                	slli	t1,t1,0x23
  c0:	1b0e030b          	0x1b0e030b
  c4:	110e                	slli	sp,sp,0x23
  c6:	1201                	addi	tp,tp,-32
  c8:	1006                	c.slli	zero,0x21
  ca:	02000017          	auipc	zero,0x2000
  ce:	0024                	addi	s1,sp,8
  d0:	0b3e0b0b          	0xb3e0b0b
  d4:	00000e03          	lb	t3,0(zero) # 0 <ROM_BASE-0xc0000000>
  d8:	03001603          	lh	a2,48(zero) # 30 <ROM_BASE-0xbfffffd0>
  dc:	3a0e                	fld	fs4,224(sp)
  de:	390b3b0b          	0x390b3b0b
  e2:	0013490b          	0x13490b
  e6:	0400                	addi	s0,sp,512
  e8:	0024                	addi	s1,sp,8
  ea:	0b3e0b0b          	0xb3e0b0b
  ee:	00000803          	lb	a6,0(zero) # 0 <ROM_BASE-0xc0000000>
  f2:	3505                	jal	ffffff12 <_BSS_END_+0x3fffebd2>
  f4:	4900                	lw	s0,16(a0)
  f6:	06000013          	li	zero,96
  fa:	0034                	addi	a3,sp,8
  fc:	0b3a0e03          	lb	t3,179(s4) # fffe60b3 <_BSS_END_+0x3ffe4d73>
 100:	0b390b3b          	0xb390b3b
 104:	1349                	addi	t1,t1,-14
 106:	1802                	slli	a6,a6,0x20
 108:	0000                	unimp
 10a:	0b000f07          	0xb000f07
 10e:	0013490b          	0x13490b
 112:	0800                	addi	s0,sp,16
 114:	0101                	addi	sp,sp,0
 116:	1349                	addi	t1,t1,-14
 118:	1301                	addi	t1,t1,-32
 11a:	0000                	unimp
 11c:	2109                	jal	51e <ROM_BASE-0xbffffae2>
 11e:	4900                	lw	s0,16(a0)
 120:	000b2f13          	slti	t5,s6,0
 124:	0a00                	addi	s0,sp,272
 126:	0034                	addi	a3,sp,8
 128:	0b3a0e03          	lb	t3,179(s4)
 12c:	0b390b3b          	0xb390b3b
 130:	1349                	addi	t1,t1,-14
 132:	1802193f 2e0b0000 	0x2e0b00001802193f
 13a:	3f01                	jal	4a <ROM_BASE-0xbfffffb6>
 13c:	0319                	addi	t1,t1,6
 13e:	3a0e                	fld	fs4,224(sp)
 140:	390b3b0b          	0x390b3b0b
 144:	1119270b          	0x1119270b
 148:	1201                	addi	tp,tp,-32
 14a:	4006                	0x4006
 14c:	9718                	0x9718
 14e:	1942                	slli	s2,s2,0x30
 150:	1301                	addi	t1,t1,-32
 152:	0000                	unimp
 154:	050c                	addi	a1,sp,640
 156:	0300                	addi	s0,sp,384
 158:	3a0e                	fld	fs4,224(sp)
 15a:	390b3b0b          	0x390b3b0b
 15e:	0213490b          	0x213490b
 162:	0d000017          	auipc	zero,0xd000
 166:	0034                	addi	a3,sp,8
 168:	0b3a0803          	lb	a6,179(s4)
 16c:	0b390b3b          	0xb390b3b
 170:	1349                	addi	t1,t1,-14
 172:	1802                	slli	a6,a6,0x20
 174:	0000                	unimp
 176:	1d0e                	slli	s10,s10,0x23
 178:	3101                	jal	fffffd78 <_BSS_END_+0x3fffea38>
 17a:	55015213          	0x55015213
 17e:	590b5817          	auipc	a6,0x590b5
 182:	010b570b          	0x10b570b
 186:	0f000013          	li	zero,240
 18a:	0005                	c.nop	1
 18c:	1331                	addi	t1,t1,-20
 18e:	1702                	slli	a4,a4,0x20
 190:	0000                	unimp
 192:	1d10                	addi	a2,sp,688
 194:	3101                	jal	fffffd94 <_BSS_END_+0x3fffea54>
 196:	12011113          	0x12011113
 19a:	5806                	lw	a6,96(sp)
 19c:	570b590b          	0x570b590b
 1a0:	1100000b          	0x1100000b
 1a4:	0005                	c.nop	1
 1a6:	0b3a0e03          	lb	t3,179(s4)
 1aa:	0b390b3b          	0xb390b3b
 1ae:	1349                	addi	t1,t1,-14
 1b0:	1802                	slli	a6,a6,0x20
 1b2:	0000                	unimp
 1b4:	3412                	fld	fs0,288(sp)
 1b6:	0300                	addi	s0,sp,384
 1b8:	3a08                	fld	fa0,48(a2)
 1ba:	390b3b0b          	0x390b3b0b
 1be:	0213490b          	0x213490b
 1c2:	13000017          	auipc	zero,0x13000
 1c6:	1755010b          	0x1755010b
 1ca:	0000                	unimp
 1cc:	1d14                	addi	a3,sp,688
 1ce:	3101                	jal	fffffdce <_BSS_END_+0x3fffea8e>
 1d0:	12011113          	0x12011113
 1d4:	5806                	lw	a6,96(sp)
 1d6:	570b590b          	0x570b590b
 1da:	0013010b          	0x13010b
 1de:	1500                	addi	s0,sp,672
 1e0:	012e                	slli	sp,sp,0xb
 1e2:	0e03193f 0b3b0b3a 	0xb3b0b3a0e03193f
 1ea:	0b39                	addi	s6,s6,14
 1ec:	0b201927          	0xb201927
 1f0:	1301                	addi	t1,t1,-32
 1f2:	0000                	unimp
 1f4:	0516                	slli	a0,a0,0x5
 1f6:	0300                	addi	s0,sp,384
 1f8:	3a08                	fld	fa0,48(a2)
 1fa:	390b3b0b          	0x390b3b0b
 1fe:	0013490b          	0x13490b
 202:	1700                	addi	s0,sp,928
 204:	0005                	c.nop	1
 206:	0b3a0803          	lb	a6,179(s4)
 20a:	0b390b3b          	0xb390b3b
 20e:	1349                	addi	t1,t1,-14
 210:	1702                	slli	a4,a4,0x20
 212:	0000                	unimp
 214:	1d18                	addi	a4,sp,688
 216:	3101                	jal	fffffe16 <_BSS_END_+0x3fffead6>
 218:	55015213          	0x55015213
 21c:	590b5817          	auipc	a6,0x590b5
 220:	000b570b          	0xb570b
 224:	1900                	addi	s0,sp,176
 226:	0026                	c.slli	zero,0x9
 228:	1349                	addi	t1,t1,-14
 22a:	0000                	unimp
 22c:	2e1a                	fld	ft8,384(sp)
 22e:	3f01                	jal	13e <ROM_BASE-0xbffffec2>
 230:	0319                	addi	t1,t1,6
 232:	3a0e                	fld	fs4,224(sp)
 234:	390b3b0b          	0x390b3b0b
 238:	4919270b          	0x4919270b
 23c:	010b2013          	slti	zero,s6,16
 240:	1b000013          	li	zero,432
 244:	012e                	slli	sp,sp,0xb
 246:	1331                	addi	t1,t1,-20
 248:	0111                	addi	sp,sp,4
 24a:	0612                	slli	a2,a2,0x4
 24c:	1840                	addi	s0,sp,52
 24e:	01194297          	auipc	t0,0x1194
 252:	1c000013          	li	zero,448
 256:	012e                	slli	sp,sp,0xb
 258:	1331                	addi	t1,t1,-20
 25a:	0111                	addi	sp,sp,4
 25c:	0612                	slli	a2,a2,0x4
 25e:	1840                	addi	s0,sp,52
 260:	00194297          	auipc	t0,0x194
 264:	1d00                	addi	s0,sp,688
 266:	0005                	c.nop	1
 268:	1331                	addi	t1,t1,-20
 26a:	1802                	slli	a6,a6,0x20
 26c:	0000                	unimp
 26e:	0100                	addi	s0,sp,128
 270:	0111                	addi	sp,sp,4
 272:	0e25                	addi	t3,t3,9
 274:	0e030b13          	addi	s6,t1,224
 278:	01110e1b          	0x1110e1b
 27c:	0612                	slli	a2,a2,0x4
 27e:	1710                	addi	a2,sp,928
 280:	0000                	unimp
 282:	2402                	fld	fs0,0(sp)
 284:	0b00                	addi	s0,sp,400
 286:	030b3e0b          	0x30b3e0b
 28a:	000e                	c.slli	zero,0x3
 28c:	0300                	addi	s0,sp,384
 28e:	0016                	c.slli	zero,0x5
 290:	0b3a0e03          	lb	t3,179(s4)
 294:	0b390b3b          	0xb390b3b
 298:	1349                	addi	t1,t1,-14
 29a:	0000                	unimp
 29c:	2404                	fld	fs1,8(s0)
 29e:	0b00                	addi	s0,sp,400
 2a0:	030b3e0b          	0x30b3e0b
 2a4:	0008                	0x8
 2a6:	0500                	addi	s0,sp,640
 2a8:	0035                	c.nop	13
 2aa:	1349                	addi	t1,t1,-14
 2ac:	0000                	unimp
 2ae:	2e06                	fld	ft8,64(sp)
 2b0:	3f01                	jal	1c0 <ROM_BASE-0xbffffe40>
 2b2:	0319                	addi	t1,t1,6
 2b4:	3a0e                	fld	fs4,224(sp)
 2b6:	390b3b0b          	0x390b3b0b
 2ba:	4919270b          	0x4919270b
 2be:	12011113          	0x12011113
 2c2:	4006                	0x4006
 2c4:	9718                	0x9718
 2c6:	1942                	slli	s2,s2,0x30
 2c8:	1301                	addi	t1,t1,-32
 2ca:	0000                	unimp
 2cc:	03000507          	0x3000507
 2d0:	3a0e                	fld	fs4,224(sp)
 2d2:	390b3b0b          	0x390b3b0b
 2d6:	0213490b          	0x213490b
 2da:	08000017          	auipc	zero,0x8000
 2de:	0005                	c.nop	1
 2e0:	0b3a0803          	lb	a6,179(s4)
 2e4:	0b390b3b          	0xb390b3b
 2e8:	1349                	addi	t1,t1,-14
 2ea:	1702                	slli	a4,a4,0x20
 2ec:	0000                	unimp
 2ee:	3409                	jal	fffffcf0 <_BSS_END_+0x3fffe9b0>
 2f0:	0300                	addi	s0,sp,384
 2f2:	3a0e                	fld	fs4,224(sp)
 2f4:	390b3b0b          	0x390b3b0b
 2f8:	0213490b          	0x213490b
 2fc:	0a000017          	auipc	zero,0xa000
 300:	0034                	addi	a3,sp,8
 302:	0b3a0803          	lb	a6,179(s4)
 306:	0b390b3b          	0xb390b3b
 30a:	1349                	addi	t1,t1,-14
 30c:	1702                	slli	a4,a4,0x20
 30e:	0000                	unimp
 310:	11010b0b          	0x11010b0b
 314:	1201                	addi	tp,tp,-32
 316:	0106                	slli	sp,sp,0x1
 318:	0c000013          	li	zero,192
 31c:	011d                	addi	sp,sp,7
 31e:	1331                	addi	t1,t1,-20
 320:	0152                	slli	sp,sp,0x14
 322:	1755                	addi	a4,a4,-11
 324:	0b58                	addi	a4,sp,404
 326:	0b59                	addi	s6,s6,22
 328:	00000b57          	0xb57
 32c:	050d                	addi	a0,a0,3
 32e:	3100                	fld	fs0,32(a0)
 330:	00170213          	addi	tp,a4,1 # fffe3001 <_BSS_END_+0x3ffe1cc1>
 334:	0e00                	addi	s0,sp,784
 336:	1755010b          	0x1755010b
 33a:	0000                	unimp
 33c:	3100340f          	0x3100340f
 340:	00170213          	addi	tp,a4,1
 344:	1000                	addi	s0,sp,32
 346:	1755010b          	0x1755010b
 34a:	1301                	addi	t1,t1,-32
 34c:	0000                	unimp
 34e:	1d11                	addi	s10,s10,-28
 350:	3101                	jal	ffffff50 <_BSS_END_+0x3fffec10>
 352:	55015213          	0x55015213
 356:	590b5817          	auipc	a6,0x590b5
 35a:	010b570b          	0x10b570b
 35e:	12000013          	li	zero,288
 362:	011d                	addi	sp,sp,7
 364:	1331                	addi	t1,t1,-20
 366:	0111                	addi	sp,sp,4
 368:	0612                	slli	a2,a2,0x4
 36a:	0b58                	addi	a4,sp,404
 36c:	0b59                	addi	s6,s6,22
 36e:	00000b57          	0xb57
 372:	31011d13          	0x31011d13
 376:	12011113          	0x12011113
 37a:	5806                	lw	a6,96(sp)
 37c:	570b590b          	0x570b590b
 380:	0013010b          	0x13010b
 384:	1400                	addi	s0,sp,544
 386:	0b0b000f          	0xb0b000f
 38a:	1349                	addi	t1,t1,-14
 38c:	0000                	unimp
 38e:	8915                	andi	a0,a0,5
 390:	0182                	c.slli64	gp
 392:	1100                	addi	s0,sp,160
 394:	3101                	jal	ffffff94 <_BSS_END_+0x3fffec54>
 396:	16000013          	li	zero,352
 39a:	012e                	slli	sp,sp,0xb
 39c:	0e03193f 0b3b0b3a 	0xb3b0b3a0e03193f
 3a4:	0b39                	addi	s6,s6,14
 3a6:	0111                	addi	sp,sp,4
 3a8:	0612                	slli	a2,a2,0x4
 3aa:	1840                	addi	s0,sp,52
 3ac:	01194297          	auipc	t0,0x1194
 3b0:	17000013          	li	zero,368
 3b4:	8289                	srli	a3,a3,0x2
 3b6:	0001                	nop
 3b8:	0111                	addi	sp,sp,4
 3ba:	4295                	li	t0,5
 3bc:	3119                	jal	ffffffc2 <_BSS_END_+0x3fffec82>
 3be:	18000013          	li	zero,384
 3c2:	012e                	slli	sp,sp,0xb
 3c4:	0e03193f 0b3b0b3a 	0xb3b0b3a0e03193f
 3cc:	0b39                	addi	s6,s6,14
 3ce:	13491927          	0x13491927
 3d2:	0b20                	addi	s0,sp,408
 3d4:	1301                	addi	t1,t1,-32
 3d6:	0000                	unimp
 3d8:	0519                	addi	a0,a0,6
 3da:	0300                	addi	s0,sp,384
 3dc:	3a0e                	fld	fs4,224(sp)
 3de:	390b3b0b          	0x390b3b0b
 3e2:	0013490b          	0x13490b
 3e6:	1a00                	addi	s0,sp,304
 3e8:	012e                	slli	sp,sp,0xb
 3ea:	0e03193f 0b3b0b3a 	0xb3b0b3a0e03193f
 3f2:	0b39                	addi	s6,s6,14
 3f4:	0b201927          	0xb201927
 3f8:	1301                	addi	t1,t1,-32
 3fa:	0000                	unimp
 3fc:	0300341b          	0x300341b
 400:	3a0e                	fld	fs4,224(sp)
 402:	390b3b0b          	0x390b3b0b
 406:	0013490b          	0x13490b
 40a:	1c00                	addi	s0,sp,560
 40c:	012e                	slli	sp,sp,0xb
 40e:	1331                	addi	t1,t1,-20
 410:	0111                	addi	sp,sp,4
 412:	0612                	slli	a2,a2,0x4
 414:	1840                	addi	s0,sp,52
 416:	01194297          	auipc	t0,0x1194
 41a:	1d000013          	li	zero,464
 41e:	0005                	c.nop	1
 420:	1331                	addi	t1,t1,-20
 422:	1802                	slli	a6,a6,0x20
 424:	0000                	unimp
 426:	341e                	fld	fs0,480(sp)
 428:	3100                	fld	fs0,32(a0)
 42a:	00180213          	addi	tp,a6,1 # 590b5357 <ROM_BASE-0x66f4aca9>
 42e:	1f00                	addi	s0,sp,944
 430:	002e                	c.slli	zero,0xb
 432:	193c193f 0e030e6e 	0xe030e6e193c193f
 43a:	0b3a                	slli	s6,s6,0xe
 43c:	0b390b3b          	0xb390b3b
 440:	0000                	unimp
 442:	0100                	addi	s0,sp,128
 444:	0111                	addi	sp,sp,4
 446:	0e25                	addi	t3,t3,9
 448:	0e030b13          	addi	s6,t1,224
 44c:	01110e1b          	0x1110e1b
 450:	0612                	slli	a2,a2,0x4
 452:	1710                	addi	a2,sp,928
 454:	0000                	unimp
 456:	2402                	fld	fs0,0(sp)
 458:	0b00                	addi	s0,sp,400
 45a:	030b3e0b          	0x30b3e0b
 45e:	000e                	c.slli	zero,0x3
 460:	0300                	addi	s0,sp,384
 462:	0016                	c.slli	zero,0x5
 464:	0b3a0e03          	lb	t3,179(s4)
 468:	0b390b3b          	0xb390b3b
 46c:	1349                	addi	t1,t1,-14
 46e:	0000                	unimp
 470:	2404                	fld	fs1,8(s0)
 472:	0b00                	addi	s0,sp,400
 474:	030b3e0b          	0x30b3e0b
 478:	0008                	0x8
 47a:	0500                	addi	s0,sp,640
 47c:	0035                	c.nop	13
 47e:	1349                	addi	t1,t1,-14
 480:	0000                	unimp
 482:	2e06                	fld	ft8,64(sp)
 484:	3f01                	jal	394 <ROM_BASE-0xbffffc6c>
 486:	0319                	addi	t1,t1,6
 488:	3a0e                	fld	fs4,224(sp)
 48a:	390b3b0b          	0x390b3b0b
 48e:	4919270b          	0x4919270b
 492:	12011113          	0x12011113
 496:	4006                	0x4006
 498:	9718                	0x9718
 49a:	1942                	slli	s2,s2,0x30
 49c:	1301                	addi	t1,t1,-32
 49e:	0000                	unimp
 4a0:	03000507          	0x3000507
 4a4:	3a08                	fld	fa0,48(a2)
 4a6:	390b3b0b          	0x390b3b0b
 4aa:	0213490b          	0x213490b
 4ae:	08000017          	auipc	zero,0x8000
 4b2:	0005                	c.nop	1
 4b4:	0b3a0e03          	lb	t3,179(s4)
 4b8:	0b390b3b          	0xb390b3b
 4bc:	1349                	addi	t1,t1,-14
 4be:	1702                	slli	a4,a4,0x20
 4c0:	0000                	unimp
 4c2:	3409                	jal	fffffec4 <_BSS_END_+0x3fffeb84>
 4c4:	0300                	addi	s0,sp,384
 4c6:	3a08                	fld	fa0,48(a2)
 4c8:	390b3b0b          	0x390b3b0b
 4cc:	0213490b          	0x213490b
 4d0:	0a000017          	auipc	zero,0xa000
 4d4:	0034                	addi	a3,sp,8
 4d6:	0b3a0e03          	lb	t3,179(s4)
 4da:	0b390b3b          	0xb390b3b
 4de:	1349                	addi	t1,t1,-14
 4e0:	1702                	slli	a4,a4,0x20
 4e2:	0000                	unimp
 4e4:	0300340b          	0x300340b
 4e8:	3a08                	fld	fa0,48(a2)
 4ea:	390b3b0b          	0x390b3b0b
 4ee:	0213490b          	0x213490b
 4f2:	0018                	0x18
 4f4:	0c00                	addi	s0,sp,528
 4f6:	0034                	addi	a3,sp,8
 4f8:	0b3a0803          	lb	a6,179(s4)
 4fc:	0b390b3b          	0xb390b3b
 500:	1349                	addi	t1,t1,-14
 502:	0b1c                	addi	a5,sp,400
 504:	0000                	unimp
 506:	0b0d                	addi	s6,s6,3
 508:	1101                	addi	sp,sp,-32
 50a:	1201                	addi	tp,tp,-32
 50c:	0106                	slli	sp,sp,0x1
 50e:	0e000013          	li	zero,224
 512:	011d                	addi	sp,sp,7
 514:	1331                	addi	t1,t1,-20
 516:	0152                	slli	sp,sp,0x14
 518:	1755                	addi	a4,a4,-11
 51a:	0b58                	addi	a4,sp,404
 51c:	0b59                	addi	s6,s6,22
 51e:	00000b57          	0xb57
 522:	0182890f          	0x182890f
 526:	1101                	addi	sp,sp,-32
 528:	3101                	jal	128 <ROM_BASE-0xbffffed8>
 52a:	10000013          	li	zero,256
 52e:	828a                	mv	t0,sp
 530:	0001                	nop
 532:	1802                	slli	a6,a6,0x20
 534:	4291                	li	t0,4
 536:	0018                	0x18
 538:	1100                	addi	s0,sp,160
 53a:	1755010b          	0x1755010b
 53e:	1301                	addi	t1,t1,-32
 540:	0000                	unimp
 542:	0512                	slli	a0,a0,0x4
 544:	3100                	fld	fs0,32(a0)
 546:	00170213          	addi	tp,a4,1
 54a:	1300                	addi	s0,sp,416
 54c:	8289                	srli	a3,a3,0x2
 54e:	0001                	nop
 550:	0111                	addi	sp,sp,4
 552:	1331                	addi	t1,t1,-20
 554:	0000                	unimp
 556:	8914                	0x8914
 558:	0182                	c.slli64	gp
 55a:	1101                	addi	sp,sp,-32
 55c:	3101                	jal	15c <ROM_BASE-0xbffffea4>
 55e:	00130113          	addi	sp,t1,1
 562:	1500                	addi	s0,sp,672
 564:	011d                	addi	sp,sp,7
 566:	1331                	addi	t1,t1,-20
 568:	0111                	addi	sp,sp,4
 56a:	0612                	slli	a2,a2,0x4
 56c:	0b58                	addi	a4,sp,404
 56e:	0b59                	addi	s6,s6,22
 570:	13010b57          	0x13010b57
 574:	0000                	unimp
 576:	1d16                	slli	s10,s10,0x25
 578:	3101                	jal	178 <ROM_BASE-0xbffffe88>
 57a:	55015213          	0x55015213
 57e:	590b5817          	auipc	a6,0x590b5
 582:	010b570b          	0x10b570b
 586:	17000013          	li	zero,368
 58a:	0b0b000f          	0xb0b000f
 58e:	0000                	unimp
 590:	0f18                	addi	a4,sp,912
 592:	0b00                	addi	s0,sp,400
 594:	0013490b          	0x13490b
 598:	1900                	addi	s0,sp,176
 59a:	0101                	addi	sp,sp,0
 59c:	1349                	addi	t1,t1,-14
 59e:	1301                	addi	t1,t1,-32
 5a0:	0000                	unimp
 5a2:	211a                	fld	ft2,384(sp)
 5a4:	4900                	lw	s0,16(a0)
 5a6:	000b2f13          	slti	t5,s6,0
 5aa:	1b00                	addi	s0,sp,432
 5ac:	012e                	slli	sp,sp,0xb
 5ae:	0e03193f 0b3b0b3a 	0xb3b0b3a0e03193f
 5b6:	0b39                	addi	s6,s6,14
 5b8:	13491927          	0x13491927
 5bc:	0b20                	addi	s0,sp,408
 5be:	1301                	addi	t1,t1,-32
 5c0:	0000                	unimp
 5c2:	051c                	addi	a5,sp,640
 5c4:	0300                	addi	s0,sp,384
 5c6:	3a08                	fld	fa0,48(a2)
 5c8:	390b3b0b          	0x390b3b0b
 5cc:	0013490b          	0x13490b
 5d0:	1d00                	addi	s0,sp,688
 5d2:	0005                	c.nop	1
 5d4:	0b3a0e03          	lb	t3,179(s4)
 5d8:	0b390b3b          	0xb390b3b
 5dc:	1349                	addi	t1,t1,-14
 5de:	0000                	unimp
 5e0:	341e                	fld	fs0,480(sp)
 5e2:	0300                	addi	s0,sp,384
 5e4:	3a0e                	fld	fs4,224(sp)
 5e6:	390b3b0b          	0x390b3b0b
 5ea:	0013490b          	0x13490b
 5ee:	1f00                	addi	s0,sp,944
 5f0:	012e                	slli	sp,sp,0xb
 5f2:	0e03193f 0b3b0b3a 	0xb3b0b3a0e03193f
 5fa:	0b39                	addi	s6,s6,14
 5fc:	1349                	addi	t1,t1,-14
 5fe:	0111                	addi	sp,sp,4
 600:	0612                	slli	a2,a2,0x4
 602:	1840                	addi	s0,sp,52
 604:	01194297          	auipc	t0,0x1194
 608:	20000013          	li	zero,512
 60c:	0034                	addi	a3,sp,8
 60e:	1331                	addi	t1,t1,-20
 610:	1702                	slli	a4,a4,0x20
 612:	0000                	unimp
 614:	2e21                	jal	92c <ROM_BASE-0xbffff6d4>
 616:	3f01                	jal	526 <ROM_BASE-0xbffffada>
 618:	0319                	addi	t1,t1,6
 61a:	3a0e                	fld	fs4,224(sp)
 61c:	390b3b0b          	0x390b3b0b
 620:	2013490b          	0x2013490b
 624:	0013010b          	0x13010b
 628:	2200                	fld	fs0,0(a2)
 62a:	0034                	addi	a3,sp,8
 62c:	0b3a0803          	lb	a6,179(s4)
 630:	0b390b3b          	0xb390b3b
 634:	1349                	addi	t1,t1,-14
 636:	0000                	unimp
 638:	3f012e23          	sw	a6,1020(sp) # 1001141c <ROM_BASE-0xaffeebe4>
 63c:	0319                	addi	t1,t1,6
 63e:	3a0e                	fld	fs4,224(sp)
 640:	390b3b0b          	0x390b3b0b
 644:	2019270b          	0x2019270b
 648:	0013010b          	0x13010b
 64c:	2400                	fld	fs0,8(s0)
 64e:	0026                	c.slli	zero,0x9
 650:	1349                	addi	t1,t1,-14
 652:	0000                	unimp
 654:	2e25                	jal	98c <ROM_BASE-0xbffff674>
 656:	3f00                	fld	fs0,56(a4)
 658:	0319                	addi	t1,t1,6
 65a:	3a0e                	fld	fs4,224(sp)
 65c:	390b3b0b          	0x390b3b0b
 660:	2013490b          	0x2013490b
 664:	2600000b          	0x2600000b
 668:	012e                	slli	sp,sp,0xb
 66a:	1331                	addi	t1,t1,-20
 66c:	0111                	addi	sp,sp,4
 66e:	0612                	slli	a2,a2,0x4
 670:	1840                	addi	s0,sp,52
 672:	01194297          	auipc	t0,0x1194
 676:	27000013          	li	zero,624
 67a:	8289                	srli	a3,a3,0x2
 67c:	0101                	addi	sp,sp,0
 67e:	0111                	addi	sp,sp,4
 680:	4295                	li	t0,5
 682:	3119                	jal	288 <ROM_BASE-0xbffffd78>
 684:	28000013          	li	zero,640
 688:	8289                	srli	a3,a3,0x2
 68a:	0001                	nop
 68c:	0111                	addi	sp,sp,4
 68e:	4295                	li	t0,5
 690:	3119                	jal	296 <ROM_BASE-0xbffffd6a>
 692:	29000013          	li	zero,656
 696:	002e                	c.slli	zero,0xb
 698:	193c193f 0e030e6e 	0xe030e6e193c193f
 6a0:	0b3a                	slli	s6,s6,0xe
 6a2:	0b390b3b          	0xb390b3b
 6a6:	0000                	unimp
 6a8:	0100                	addi	s0,sp,128
 6aa:	0111                	addi	sp,sp,4
 6ac:	0e25                	addi	t3,t3,9
 6ae:	0e030b13          	addi	s6,t1,224
 6b2:	01110e1b          	0x1110e1b
 6b6:	0612                	slli	a2,a2,0x4
 6b8:	1710                	addi	a2,sp,928
 6ba:	0000                	unimp
 6bc:	2402                	fld	fs0,0(sp)
 6be:	0b00                	addi	s0,sp,400
 6c0:	030b3e0b          	0x30b3e0b
 6c4:	000e                	c.slli	zero,0x3
 6c6:	0300                	addi	s0,sp,384
 6c8:	0016                	c.slli	zero,0x5
 6ca:	0b3a0e03          	lb	t3,179(s4)
 6ce:	0b390b3b          	0xb390b3b
 6d2:	1349                	addi	t1,t1,-14
 6d4:	0000                	unimp
 6d6:	2404                	fld	fs1,8(s0)
 6d8:	0b00                	addi	s0,sp,400
 6da:	030b3e0b          	0x30b3e0b
 6de:	0008                	0x8
 6e0:	0500                	addi	s0,sp,640
 6e2:	0e030113          	addi	sp,t1,224
 6e6:	0b3a0b0b          	0xb3a0b0b
 6ea:	0b390b3b          	0xb390b3b
 6ee:	1301                	addi	t1,t1,-32
 6f0:	0000                	unimp
 6f2:	0d06                	slli	s10,s10,0x1
 6f4:	0300                	addi	s0,sp,384
 6f6:	3a0e                	fld	fs4,224(sp)
 6f8:	390b3b0b          	0x390b3b0b
 6fc:	3813490b          	0x3813490b
 700:	0700000b          	0x700000b
 704:	0101                	addi	sp,sp,0
 706:	1349                	addi	t1,t1,-14
 708:	1301                	addi	t1,t1,-32
 70a:	0000                	unimp
 70c:	2108                	fld	fa0,0(a0)
 70e:	4900                	lw	s0,16(a0)
 710:	000b2f13          	slti	t5,s6,0
 714:	0900                	addi	s0,sp,144
 716:	012e                	slli	sp,sp,0xb
 718:	0e03193f 0b3b0b3a 	0xb3b0b3a0e03193f
 720:	0b39                	addi	s6,s6,14
 722:	13491927          	0x13491927
 726:	0111                	addi	sp,sp,4
 728:	0612                	slli	a2,a2,0x4
 72a:	1840                	addi	s0,sp,52
 72c:	01194297          	auipc	t0,0x1194
 730:	0a000013          	li	zero,160
 734:	0005                	c.nop	1
 736:	0b3a0e03          	lb	t3,179(s4)
 73a:	0b390b3b          	0xb390b3b
 73e:	1349                	addi	t1,t1,-14
 740:	1702                	slli	a4,a4,0x20
 742:	0000                	unimp
 744:	0300340b          	0x300340b
 748:	3a08                	fld	fa0,48(a2)
 74a:	390b3b0b          	0x390b3b0b
 74e:	0213490b          	0x213490b
 752:	0c000017          	auipc	zero,0xc000
 756:	0034                	addi	a3,sp,8
 758:	0b3a0e03          	lb	t3,179(s4)
 75c:	0b390b3b          	0xb390b3b
 760:	1349                	addi	t1,t1,-14
 762:	1702                	slli	a4,a4,0x20
 764:	0000                	unimp
 766:	0b0d                	addi	s6,s6,3
 768:	1101                	addi	sp,sp,-32
 76a:	1201                	addi	tp,tp,-32
 76c:	0106                	slli	sp,sp,0x1
 76e:	0e000013          	li	zero,224
 772:	1755010b          	0x1755010b
 776:	0000                	unimp
 778:	0182890f          	0x182890f
 77c:	1100                	addi	s0,sp,160
 77e:	3101                	jal	37e <ROM_BASE-0xbffffc82>
 780:	10000013          	li	zero,256
 784:	1755010b          	0x1755010b
 788:	1301                	addi	t1,t1,-32
 78a:	0000                	unimp
 78c:	8911                	andi	a0,a0,4
 78e:	0182                	c.slli64	gp
 790:	1101                	addi	sp,sp,-32
 792:	3101                	jal	392 <ROM_BASE-0xbffffc6e>
 794:	00130113          	addi	sp,t1,1
 798:	1200                	addi	s0,sp,288
 79a:	828a                	mv	t0,sp
 79c:	0001                	nop
 79e:	1802                	slli	a6,a6,0x20
 7a0:	4291                	li	t0,4
 7a2:	0018                	0x18
 7a4:	1300                	addi	s0,sp,416
 7a6:	0034                	addi	a3,sp,8
 7a8:	1349                	addi	t1,t1,-14
 7aa:	1934                	addi	a3,sp,184
 7ac:	1702                	slli	a4,a4,0x20
 7ae:	0000                	unimp
 7b0:	0f14                	addi	a3,sp,912
 7b2:	0b00                	addi	s0,sp,400
 7b4:	0013490b          	0x13490b
 7b8:	1500                	addi	s0,sp,672
 7ba:	0021                	c.nop	8
 7bc:	1349                	addi	t1,t1,-14
 7be:	0000132f          	0x132f
 7c2:	2e16                	fld	ft8,320(sp)
 7c4:	3f00                	fld	fs0,56(a4)
 7c6:	3c19                	jal	1dc <ROM_BASE-0xbffffe24>
 7c8:	6e19                	lui	t3,0x6
 7ca:	030e                	slli	t1,t1,0x3
 7cc:	3a0e                	fld	fs4,224(sp)
 7ce:	390b3b0b          	0x390b3b0b
 7d2:	0000000b          	0xb

Disassembly of section .debug_aranges:

00000000 <.debug_aranges>:
   0:	001c                	0x1c
   2:	0000                	unimp
   4:	0002                	c.slli64	zero
   6:	0000                	unimp
   8:	0000                	unimp
   a:	0004                	0x4
   c:	0000                	unimp
   e:	0000                	unimp
  10:	0000                	unimp
  12:	c000                	sw	s0,0(s0)
  14:	0020                	addi	s0,sp,8
	...
  1e:	0000                	unimp
  20:	001c                	0x1c
  22:	0000                	unimp
  24:	0002                	c.slli64	zero
  26:	0026                	c.slli	zero,0x9
  28:	0000                	unimp
  2a:	0004                	0x4
  2c:	0000                	unimp
  2e:	0000                	unimp
  30:	0fdc                	addi	a5,sp,980
  32:	c000                	sw	s0,0(s0)
  34:	0040                	addi	s0,sp,4
	...
  3e:	0000                	unimp
  40:	001c                	0x1c
  42:	0000                	unimp
  44:	0002                	c.slli64	zero
  46:	00000133          	add	sp,zero,zero
  4a:	0004                	0x4
  4c:	0000                	unimp
  4e:	0000                	unimp
  50:	0020                	addi	s0,sp,8
  52:	c000                	sw	s0,0(s0)
  54:	01c8                	addi	a0,sp,196
	...
  5e:	0000                	unimp
  60:	001c                	0x1c
  62:	0000                	unimp
  64:	0002                	c.slli64	zero
  66:	055f 0000 0004      	0x40000055f
  6c:	0000                	unimp
  6e:	0000                	unimp
  70:	01e8                	addi	a0,sp,204
  72:	c000                	sw	s0,0(s0)
  74:	029c                	addi	a5,sp,320
	...
  7e:	0000                	unimp
  80:	001c                	0x1c
  82:	0000                	unimp
  84:	0002                	c.slli64	zero
  86:	0c6e                	slli	s8,s8,0x1b
  88:	0000                	unimp
  8a:	0004                	0x4
  8c:	0000                	unimp
  8e:	0000                	unimp
  90:	0484                	addi	s1,sp,576
  92:	c000                	sw	s0,0(s0)
  94:	07c8                	addi	a0,sp,964
	...
  9e:	0000                	unimp
  a0:	001c                	0x1c
  a2:	0000                	unimp
  a4:	0002                	c.slli64	zero
  a6:	1921                	addi	s2,s2,-24
  a8:	0000                	unimp
  aa:	0004                	0x4
  ac:	0000                	unimp
  ae:	0000                	unimp
  b0:	0c4c                	addi	a1,sp,532
  b2:	c000                	sw	s0,0(s0)
  b4:	0390                	addi	a2,sp,448
	...

Disassembly of section .debug_str:

00000000 <.debug_str>:
   0:	72617473          	csrrci	s0,0x726,2
   4:	7574                	flw	fa3,108(a0)
   6:	2e70                	fld	fa2,216(a2)
   8:	682f0053          	0x682f0053
   c:	2f656d6f          	jal	s10,56302 <ROM_BASE-0xbffa9cfe>
  10:	687a                	flw	fa6,156(sp)
  12:	7365442f          	0x7365442f
  16:	706f746b          	0x706f746b
  1a:	72655a2f          	0x72655a2f
  1e:	726f636f          	jal	t1,f6744 <ROM_BASE-0xbff098bc>
  22:	5f65                	li	t5,-7
  24:	6f62                	flw	ft10,24(sp)
  26:	6f72746f          	jal	s0,27f1c <ROM_BASE-0xbffd80e4>
  2a:	006d                	c.nop	27
  2c:	20554e47          	fmsub.s	ft8,fa0,ft5,ft4,rmm
  30:	5341                	li	t1,-16
  32:	3220                	fld	fs0,96(a2)
  34:	332e                	fld	ft6,232(sp)
  36:	2e36                	fld	ft8,328(sp)
  38:	0031                	c.nop	12
  3a:	20554e47          	fmsub.s	ft8,fa0,ft5,ft4,rmm
  3e:	20373143          	fmadd.s	ft2,fa4,ft3,ft4,rup
  42:	3031                	jal	fffff84e <_BSS_END_+0x3fffe50e>
  44:	322e                	fld	ft4,232(sp)
  46:	302e                	fld	ft0,232(sp)
  48:	2d20                	fld	fs0,88(a0)
  4a:	616d                	addi	sp,sp,240
  4c:	6372                	flw	ft6,28(sp)
  4e:	3d68                	fld	fa0,248(a0)
  50:	7672                	flw	fa2,60(sp)
  52:	6d693233          	0x6d693233
  56:	2061                	jal	de <ROM_BASE-0xbfffff22>
  58:	6d2d                	lui	s10,0xb
  5a:	6261                	lui	tp,0x18
  5c:	3d69                	jal	fffffef6 <_BSS_END_+0x3fffebb6>
  5e:	6c69                	lui	s8,0x1a
  60:	3370                	fld	fa2,224(a4)
  62:	2032                	fld	ft0,264(sp)
  64:	6d2d                	lui	s10,0xb
  66:	646f6d63          	bltu	t5,t1,6c0 <ROM_BASE-0xbffff940>
  6a:	6c65                	lui	s8,0x19
  6c:	6d3d                	lui	s10,0xf
  6e:	6465                	lui	s0,0x19
  70:	6e61                	lui	t3,0x18
  72:	2079                	jal	100 <ROM_BASE-0xbfffff00>
  74:	6d2d                	lui	s10,0xb
  76:	7865                	lui	a6,0xffff9
  78:	6c70                	flw	fa2,92(s0)
  7a:	6369                	lui	t1,0x1a
  7c:	7469                	lui	s0,0xffffa
  7e:	722d                	lui	tp,0xfffeb
  80:	6c65                	lui	s8,0x19
  82:	2073636f          	jal	t1,36a88 <ROM_BASE-0xbffc9578>
  86:	6d2d                	lui	s10,0xb
  88:	7574                	flw	fa3,108(a0)
  8a:	656e                	flw	fa0,216(sp)
  8c:	723d                	lui	tp,0xfffef
  8e:	656b636f          	jal	t1,b66e4 <ROM_BASE-0xbff4991c>
  92:	2074                	fld	fa3,192(s0)
  94:	6d2d                	lui	s10,0xb
  96:	7261                	lui	tp,0xffff8
  98:	723d6863          	bltu	s10,gp,7c8 <ROM_BASE-0xbffff838>
  9c:	3376                	fld	ft6,376(sp)
  9e:	6932                	flw	fs2,12(sp)
  a0:	616d                	addi	sp,sp,240
  a2:	2d20                	fld	fs0,88(a0)
  a4:	62646767          	0x62646767
  a8:	2d20                	fld	fs0,88(a0)
  aa:	2d20324f          	0x2d20324f
  ae:	6e66                	flw	ft8,88(sp)
  b0:	75622d6f          	jal	s10,22806 <ROM_BASE-0xbffdd7fa>
  b4:	6c69                	lui	s8,0x1a
  b6:	6974                	flw	fa3,84(a0)
  b8:	006e                	c.slli	zero,0x1b
  ba:	5f5f 6975 746e      	0x746e69755f5f
  c0:	5f38                	lw	a4,120(a4)
  c2:	0074                	addi	a3,sp,12
  c4:	6e69                	lui	t3,0x1a
  c6:	7469                	lui	s0,0xffffa
  c8:	755f 7261 0074      	0x747261755f
  ce:	7270                	flw	fa2,100(a2)
  d0:	6e69                	lui	t3,0x1a
  d2:	5f74                	lw	a3,124(a4)
  d4:	6175                	addi	sp,sp,368
  d6:	7472                	flw	fs0,60(sp)
  d8:	7500                	flw	fs0,40(a0)
  da:	736e                	flw	ft6,248(sp)
  dc:	6769                	lui	a4,0x1a
  de:	656e                	flw	fa0,216(sp)
  e0:	2064                	fld	fs1,192(s0)
  e2:	72616863          	bltu	sp,t1,812 <ROM_BASE-0xbffff7ee>
  e6:	7300                	flw	fs0,32(a4)
  e8:	6f68                	flw	fa0,92(a4)
  ea:	7472                	flw	fs0,60(sp)
  ec:	7520                	flw	fs0,104(a0)
  ee:	736e                	flw	ft6,248(sp)
  f0:	6769                	lui	a4,0x1a
  f2:	656e                	flw	fa0,216(sp)
  f4:	2064                	fld	fs1,192(s0)
  f6:	6e69                	lui	t3,0x1a
  f8:	0074                	addi	a3,sp,12
  fa:	616d                	addi	sp,sp,240
  fc:	6e69                	lui	t3,0x1a
  fe:	6700                	flw	fs0,8(a4)
 100:	7470                	flw	fa2,108(s0)
 102:	665f 6e69 5f64      	0x5f646e69665f
 108:	6f62                	flw	ft10,24(sp)
 10a:	705f746f          	jal	s0,f800e <ROM_BASE-0xbff07ff2>
 10e:	7261                	lui	tp,0xffff8
 110:	6974                	flw	fa3,84(a0)
 112:	6974                	flw	fa3,84(a0)
 114:	6c006e6f          	jal	t3,67d4 <ROM_BASE-0xbfff982c>
 118:	20676e6f          	jal	t3,7631e <ROM_BASE-0xbff89ce2>
 11c:	6f6c                	flw	fa1,92(a4)
 11e:	676e                	flw	fa4,216(sp)
 120:	7520                	flw	fs0,104(a0)
 122:	736e                	flw	ft6,248(sp)
 124:	6769                	lui	a4,0x1a
 126:	656e                	flw	fa0,216(sp)
 128:	2064                	fld	fs1,192(s0)
 12a:	6e69                	lui	t3,0x1a
 12c:	0074                	addi	a3,sp,12
 12e:	6f6c                	flw	fa1,92(a4)
 130:	676e                	flw	fa4,216(sp)
 132:	6c20                	flw	fs0,88(s0)
 134:	20676e6f          	jal	t3,7633a <ROM_BASE-0xbff89cc6>
 138:	6e69                	lui	t3,0x1a
 13a:	0074                	addi	a3,sp,12
 13c:	2f637273          	csrrci	tp,0x2f6,6
 140:	616d                	addi	sp,sp,240
 142:	6e69                	lui	t3,0x1a
 144:	632e                	flw	ft6,200(sp)
 146:	7300                	flw	fs0,32(a4)
 148:	6f68                	flw	fa0,92(a4)
 14a:	7472                	flw	fs0,60(sp)
 14c:	6920                	flw	fs0,80(a0)
 14e:	746e                	flw	fs0,248(sp)
 150:	7000                	flw	fs0,32(s0)
 152:	6972                	flw	fs2,28(sp)
 154:	746e                	flw	fs0,248(sp)
 156:	755f 7261 5f74      	0x5f747261755f
 15c:	6e69                	lui	t3,0x1a
 15e:	0074                	addi	a3,sp,12
 160:	2f637273          	csrrci	tp,0x2f6,6
 164:	6175                	addi	sp,sp,368
 166:	7472                	flw	fs0,60(sp)
 168:	632e                	flw	ft6,200(sp)
 16a:	6200                	flw	fs0,0(a2)
 16c:	6e69                	lui	t3,0x1a
 16e:	745f 5f6f 6568      	0x65685f6f745f
 174:	5f78                	lw	a4,124(a4)
 176:	6174                	flw	fa3,68(a0)
 178:	6c62                	flw	fs8,24(sp)
 17a:	0065                	c.nop	25
 17c:	5f6d                	li	t5,-5
 17e:	6175                	addi	sp,sp,368
 180:	7472                	flw	fs0,60(sp)
 182:	6200                	flw	fs0,0(a2)
 184:	6e69                	lui	t3,0x1a
 186:	745f 5f6f 6568      	0x65685f6f745f
 18c:	0078                	addi	a4,sp,12
 18e:	5f5f 6975 746e      	0x746e69755f5f
 194:	745f3233          	0x745f3233
 198:	6200                	flw	fs0,0(a2)
 19a:	7561                	lui	a0,0xffff8
 19c:	5f64                	lw	s1,124(a4)
 19e:	6172                	flw	ft2,28(sp)
 1a0:	6574                	flw	fa3,76(a0)
 1a2:	6200                	flw	fs0,0(a2)
 1a4:	7361                	lui	t1,0xffff8
 1a6:	5f65                	li	t5,-7
 1a8:	6461                	lui	s0,0x18
 1aa:	7264                	flw	fs1,100(a2)
 1ac:	7000                	flw	fs0,32(s0)
 1ae:	6972                	flw	fs2,28(sp)
 1b0:	746e                	flw	fs0,248(sp)
 1b2:	755f 7261 5f74      	0x5f747261755f
 1b8:	7962                	flw	fs2,56(sp)
 1ba:	6574                	flw	fa3,76(a0)
 1bc:	7000                	flw	fs0,32(s0)
 1be:	6972                	flw	fs2,28(sp)
 1c0:	746e                	flw	fs0,248(sp)
 1c2:	755f 7261 5f74      	0x5f747261755f
 1c8:	6461                	lui	s0,0x18
 1ca:	7264                	flw	fs1,100(a2)
 1cc:	5f00                	lw	s0,56(a4)
 1ce:	755f 6e69 3674      	0x36746e69755f
 1d4:	5f34                	lw	a3,120(a4)
 1d6:	0074                	addi	a3,sp,12
 1d8:	69726573          	csrrsi	a0,0x697,4
 1dc:	6c61                	lui	s8,0x18
 1de:	705f 7475 6863      	0x68637475705f
 1e4:	7261                	lui	tp,0xffff8
 1e6:	7200                	flw	fs0,32(a2)
 1e8:	6165                	addi	sp,sp,112
 1ea:	5f64                	lw	s1,124(a4)
 1ec:	6572                	flw	fa0,28(sp)
 1ee:	5f5f0067          	jr	1525(t5)
 1f2:	6975                	lui	s2,0x1d
 1f4:	746e                	flw	fs0,248(sp)
 1f6:	7470                	flw	fa2,108(s0)
 1f8:	5f72                	lw	t5,60(sp)
 1fa:	0074                	addi	a3,sp,12
 1fc:	6f6c                	flw	fa1,92(a4)
 1fe:	64615f63          	bge	sp,t1,85c <ROM_BASE-0xbffff7a4>
 202:	7264                	flw	fs1,100(a2)
 204:	7300                	flw	fs0,32(a4)
 206:	6970                	flw	fa2,84(a0)
 208:	745f 7278 0078      	0x787278745f
 20e:	5f697073          	csrci	0x5f6,18
 212:	74697277          	0x74697277
 216:	5f65                	li	t5,-7
 218:	7962                	flw	fs2,56(sp)
 21a:	6574                	flw	fa3,76(a0)
 21c:	65720073          	0x65720073
 220:	746c7573          	csrrci	a0,0x746,24
 224:	7700                	flw	fs0,40(a4)
 226:	6972                	flw	fs2,28(sp)
 228:	6574                	flw	fa3,76(a0)
 22a:	725f 6765 6e00      	0x6e006765725f
 230:	695f706f          	j	f80c4 <ROM_BASE-0xbff07f3c>
 234:	7300                	flw	fs0,32(a4)
 236:	6372                	flw	ft6,28(sp)
 238:	6970732f          	0x6970732f
 23c:	632e                	flw	ft6,200(sp)
 23e:	7600                	flw	fs0,40(a2)
 240:	6c61                	lui	s8,0x18
 242:	6575                	lui	a0,0x1d
 244:	7300                	flw	fs0,32(a4)
 246:	6970                	flw	fa2,84(a0)
 248:	695f 696e 0074      	0x74696e695f
 24e:	6572                	flw	fa0,28(sp)
 250:	616d                	addi	sp,sp,240
 252:	6e69                	lui	t3,0x1a
 254:	6564                	flw	fs1,76(a0)
 256:	0072                	c.slli	zero,0x1c
 258:	5f637263          	bgeu	t1,s6,83c <ROM_BASE-0xbffff7c4>
 25c:	7865                	lui	a6,0xffff9
 25e:	0070                	addi	a2,sp,12
 260:	31637263          	bgeu	t1,s6,564 <ROM_BASE-0xbffffa9c>
 264:	0036                	c.slli	zero,0xd
 266:	645f6473          	csrrsi	s0,0x645,30
 26a:	6d75                	lui	s10,0x1d
 26c:	796d                	lui	s2,0xffffb
 26e:	5f00                	lw	s0,56(a4)
 270:	755f 6e69 3174      	0x31746e69755f
 276:	5f36                	lw	t5,108(sp)
 278:	0074                	addi	a3,sp,12
 27a:	635f6473          	csrrsi	s0,0x635,30
 27e:	0079706f          	j	97a84 <ROM_BASE-0xbff6857c>
 282:	635f6473          	csrrsi	s0,0x635,30
 286:	646d                	lui	s0,0x1b
 288:	6900                	flw	fs0,16(a0)
 28a:	696e                	flw	fs2,216(sp)
 28c:	5f74                	lw	a3,124(a4)
 28e:	73006473          	csrrsi	s0,0x730,0
 292:	5f64                	lw	s1,124(a4)
 294:	6361                	lui	t1,0x18
 296:	646d                	lui	s0,0x1b
 298:	3134                	fld	fa3,96(a0)
 29a:	6300                	flw	fs0,0(a4)
 29c:	746e756f          	jal	a0,e79e2 <ROM_BASE-0xbff1861e>
 2a0:	7265                	lui	tp,0xffff9
 2a2:	7300                	flw	fs0,32(a4)
 2a4:	6372                	flw	ft6,28(sp)
 2a6:	6c5f 6162 7300      	0x730061626c5f
 2ac:	5f64                	lw	s1,124(a4)
 2ae:	35646d63          	bltu	s0,s6,608 <ROM_BASE-0xbffff9f8>
 2b2:	0035                	c.nop	13
 2b4:	6164                	flw	fs1,68(a0)
 2b6:	6174                	flw	fa3,68(a0)
 2b8:	7300                	flw	fs0,32(a4)
 2ba:	6372                	flw	ft6,28(sp)
 2bc:	2e64732f          	0x2e64732f
 2c0:	72630063          	beq	t1,t1,9e0 <ROM_BASE-0xbffff620>
 2c4:	72003763          	0x72003763
 2c8:	7365                	lui	t1,0xffff9
 2ca:	6f70                	flw	fa2,92(a4)
 2cc:	736e                	flw	ft6,248(sp)
 2ce:	0065                	c.nop	25
 2d0:	7962                	flw	fs2,56(sp)
 2d2:	6574                	flw	fa3,76(a0)
 2d4:	65705f73          	csrrwi	t5,0x657,0
 2d8:	5f72                	lw	t5,60(sp)
 2da:	7274                	flw	fa3,100(a2)
 2dc:	6e61                	lui	t3,0x18
 2de:	72656673          	csrrsi	a2,0x726,10
 2e2:	7000                	flw	fs0,32(s0)
 2e4:	6572                	flw	fa0,28(sp)
 2e6:	0076                	c.slli	zero,0x1d
 2e8:	7270                	flw	fa2,100(a2)
 2ea:	6e69                	lui	t3,0x1a
 2ec:	5f74                	lw	a3,124(a4)
 2ee:	74617473          	csrrci	s0,0x746,2
 2f2:	7375                	lui	t1,0xffffd
 2f4:	7300                	flw	fs0,32(a4)
 2f6:	5f64                	lw	s1,124(a4)
 2f8:	30646d63          	bltu	s0,t1,612 <ROM_BASE-0xbffff9ee>
 2fc:	7300                	flw	fs0,32(a4)
 2fe:	7a69                	lui	s4,0xffffa
 300:	5f65                	li	t5,-7
 302:	6e69                	lui	t3,0x1a
 304:	6564                	flw	fs1,76(a0)
 306:	0078                	addi	a4,sp,12
 308:	635f6473          	csrrsi	s0,0x635,30
 30c:	646d                	lui	s0,0x1b
 30e:	0038                	addi	a4,sp,8
 310:	6c62                	flw	fs8,24(sp)
 312:	5f6b636f          	jal	t1,b6908 <ROM_BASE-0xbff496f8>
 316:	657a6973          	csrrsi	s2,0x657,20
 31a:	6100                	flw	fs0,0(a0)
 31c:	7474                	flw	fa3,108(s0)
 31e:	6972                	flw	fs2,28(sp)
 320:	7562                	flw	fa0,56(sp)
 322:	6574                	flw	fa3,76(a0)
 324:	65640073          	0x65640073
 328:	63007473          	csrrci	s0,0x630,0
 32c:	6372                	flw	ft6,28(sp)
 32e:	705f 7261 6974      	0x69747261705f
 334:	6974                	flw	fa3,84(a0)
 336:	655f6e6f          	jal	t3,f718a <ROM_BASE-0xbff08e76>
 33a:	746e                	flw	fs0,248(sp)
 33c:	7972                	flw	fs2,60(sp)
 33e:	7000                	flw	fs0,32(s0)
 340:	7261                	lui	tp,0xffff8
 342:	6974                	flw	fa3,84(a0)
 344:	6974                	flw	fa3,84(a0)
 346:	655f6e6f          	jal	t3,f719a <ROM_BASE-0xbff08e66>
 34a:	746e                	flw	fs0,248(sp)
 34c:	6972                	flw	fs2,28(sp)
 34e:	7365                	lui	t1,0xffff9
 350:	6c5f 6162 7000      	0x700061626c5f
 356:	7261                	lui	tp,0xffff8
 358:	5f74                	lw	a3,124(a4)
 35a:	6e65                	lui	t3,0x19
 35c:	7274                	flw	fa3,100(a2)
 35e:	0079                	c.nop	30
 360:	657a6973          	csrrsi	s2,0x657,20
 364:	745f 7000 7261      	0x72617000745f
 36a:	6974                	flw	fa3,84(a0)
 36c:	6974                	flw	fa3,84(a0)
 36e:	655f6e6f          	jal	t3,f71c2 <ROM_BASE-0xbff08e3e>
 372:	746e                	flw	fs0,248(sp)
 374:	6972                	flw	fs2,28(sp)
 376:	7365                	lui	t1,0xffff9
 378:	745f 7000 7261      	0x72617000745f
 37e:	6974                	flw	fa3,84(a0)
 380:	6974                	flw	fa3,84(a0)
 382:	675f6e6f          	jal	t3,f71f6 <ROM_BASE-0xbff08e0a>
 386:	6975                	lui	s2,0x1d
 388:	0064                	addi	s1,sp,12
 38a:	2f637273          	csrrci	tp,0x2f6,6
 38e:	2e747067          	0x2e747067
 392:	626c0063          	beq	s8,t1,9b2 <ROM_BASE-0xbffff64e>
 396:	3261                	jal	fffffd1e <_BSS_END_+0x3fffe9de>
 398:	625f 6675 6200      	0x62006675625f
 39e:	00746f6f          	jal	t5,46ba4 <ROM_BASE-0xbffb945c>
 3a2:	6572                	flw	fa0,28(sp)
 3a4:	6976                	flw	fs2,92(sp)
 3a6:	6e6f6973          	csrrsi	s2,0x6e6,30
 3aa:	6600                	flw	fs0,8(a2)
 3ac:	7269                	lui	tp,0xffffa
 3ae:	755f7473          	csrrci	s0,0x755,30
 3b2:	6c626173          	csrrsi	sp,0x6c6,4
 3b6:	5f65                	li	t5,-7
 3b8:	626c                	flw	fa1,68(a2)
 3ba:	0061                	c.nop	24
 3bc:	616e                	flw	ft2,216(sp)
 3be:	656d                	lui	a0,0x1b
 3c0:	6c00                	flw	fs0,24(s0)
 3c2:	20676e6f          	jal	t3,765c8 <ROM_BASE-0xbff89a38>
 3c6:	6f64                	flw	fs1,92(a4)
 3c8:	6275                	lui	tp,0x1d
 3ca:	656c                	flw	fa1,76(a0)
 3cc:	6800                	flw	fs0,16(s0)
 3ce:	6165                	addi	sp,sp,112
 3d0:	6564                	flw	fs1,76(a0)
 3d2:	5f72                	lw	t5,60(sp)
 3d4:	657a6973          	csrrsi	s2,0x657,20
 3d8:	6c00                	flw	fs0,24(s0)
 3da:	7361                	lui	t1,0xffff8
 3dc:	5f74                	lw	a3,124(a4)
 3de:	7375                	lui	t1,0xffffd
 3e0:	6261                	lui	tp,0x18
 3e2:	656c                	flw	fa1,76(a0)
 3e4:	6c5f 6162 6c00      	0x6c0061626c5f
 3ea:	6162                	flw	ft2,24(sp)
 3ec:	0031                	c.nop	12
 3ee:	626c                	flw	fa1,68(a2)
 3f0:	3161                	jal	78 <ROM_BASE-0xbfffff88>
 3f2:	625f 6675 6700      	0x67006675625f
 3f8:	7470                	flw	fa2,108(s0)
 3fa:	705f 6874 745f      	0x745f6874705f
 400:	6300                	flw	fs0,0(a4)
 402:	7275                	lui	tp,0xffffd
 404:	6572                	flw	fa0,28(sp)
 406:	746e                	flw	fs0,248(sp)
 408:	6c5f 6162 7000      	0x700061626c5f
 40e:	7261                	lui	tp,0xffff8
 410:	6974                	flw	fa3,84(a0)
 412:	6974                	flw	fa3,84(a0)
 414:	745f6e6f          	jal	t3,f7358 <ROM_BASE-0xbff08ca8>
 418:	7079                	c.lui	zero,0xffffe
 41a:	5f65                	li	t5,-7
 41c:	64697567          	0x64697567
 420:	7300                	flw	fs0,32(a4)
 422:	7a69                	lui	s4,0xffffa
 424:	5f65                	li	t5,-7
 426:	6170                	flw	fa2,68(a0)
 428:	7472                	flw	fs0,60(sp)
 42a:	7469                	lui	s0,0xffffa
 42c:	6f69                	lui	t5,0x1a
 42e:	5f6e                	lw	t5,248(sp)
 430:	6e65                	lui	t3,0x19
 432:	7274                	flw	fa3,100(a2)
 434:	0079                	c.nop	30
 436:	726e                	flw	ft4,248(sp)
 438:	705f 7261 6974      	0x69747261705f
 43e:	6974                	flw	fa3,84(a0)
 440:	655f6e6f          	jal	t3,f7294 <ROM_BASE-0xbff08d6c>
 444:	746e                	flw	fs0,248(sp)
 446:	6972                	flw	fs2,28(sp)
 448:	7365                	lui	t1,0xffff9
 44a:	6600                	flw	fs0,8(a2)
 44c:	7269                	lui	tp,0xffffa
 44e:	6c5f7473          	csrrci	s0,0x6c5,30
 452:	6162                	flw	ft2,24(sp)
 454:	6200                	flw	fs0,0(a2)
 456:	6361                	lui	t1,0x18
 458:	5f70756b          	0x5f70756b
 45c:	626c                	flw	fa1,68(a2)
 45e:	0061                	c.nop	24
 460:	6e676973          	csrrsi	s2,0x6e6,14
 464:	7461                	lui	s0,0xffff8
 466:	7275                	lui	tp,0xffffd
 468:	0065                	c.nop	25
 46a:	5f637263          	bgeu	t1,s6,a4e <ROM_BASE-0xbffff5b2>
 46e:	6568                	flw	fa0,76(a0)
 470:	6461                	lui	s0,0x18
 472:	7265                	lui	tp,0xffff9
 474:	6700                	flw	fs0,8(a4)
 476:	7470                	flw	fa2,108(s0)
 478:	705f 6874 6400      	0x64006874705f
 47e:	7369                	lui	t1,0xffffa
 480:	75675f6b          	0x75675f6b
 484:	6469                	lui	s0,0x1a
 486:	7200                	flw	fs0,32(a2)
 488:	7365                	lui	t1,0xffff9
 48a:	7265                	lui	tp,0xffff9
 48c:	6576                	flw	fa0,92(sp)
 48e:	0064                	addi	s1,sp,12
 490:	616c                	flw	fa1,68(a0)
 492:	6c5f7473          	csrrci	s0,0x6c5,30
 496:	6162                	flw	ft2,24(sp)
	...

Disassembly of section .debug_ranges:

00000000 <.debug_ranges>:
   0:	0fdc                	addi	a5,sp,980
   2:	c000                	sw	s0,0(s0)
   4:	101c                	addi	a5,sp,32
   6:	c000                	sw	s0,0(s0)
	...
  10:	003c                	addi	a5,sp,8
  12:	0000                	unimp
  14:	0044                	addi	s1,sp,4
  16:	0000                	unimp
  18:	0048                	addi	a0,sp,4
  1a:	0000                	unimp
  1c:	0058                	addi	a4,sp,4
	...
  26:	0000                	unimp
  28:	0090                	addi	a2,sp,64
  2a:	0000                	unimp
  2c:	00a4                	addi	s1,sp,72
  2e:	0000                	unimp
  30:	00a8                	addi	a0,sp,72
  32:	0000                	unimp
  34:	00e8                	addi	a0,sp,76
	...
  3e:	0000                	unimp
  40:	0090                	addi	a2,sp,64
  42:	0000                	unimp
  44:	00a4                	addi	s1,sp,72
  46:	0000                	unimp
  48:	00c8                	addi	a0,sp,68
  4a:	0000                	unimp
  4c:	00d8                	addi	a4,sp,68
	...
  56:	0000                	unimp
  58:	00f4                	addi	a3,sp,76
  5a:	0000                	unimp
  5c:	0110                	addi	a2,sp,128
  5e:	0000                	unimp
  60:	0114                	addi	a3,sp,128
  62:	0000                	unimp
  64:	015c                	addi	a5,sp,132
  66:	0000                	unimp
  68:	0168                	addi	a0,sp,140
  6a:	0000                	unimp
  6c:	017c                	addi	a5,sp,140
	...
  76:	0000                	unimp
  78:	00f4                	addi	a3,sp,76
  7a:	0000                	unimp
  7c:	0108                	addi	a0,sp,128
  7e:	0000                	unimp
  80:	013c                	addi	a5,sp,136
  82:	0000                	unimp
  84:	014c                	addi	a1,sp,132
	...
  8e:	0000                	unimp
  90:	017c                	addi	a5,sp,140
  92:	0000                	unimp
  94:	0198                	addi	a4,sp,192
  96:	0000                	unimp
  98:	019c                	addi	a5,sp,192
  9a:	0000                	unimp
  9c:	01a0                	addi	s0,sp,200
	...
  a6:	0000                	unimp
  a8:	0198                	addi	a4,sp,192
  aa:	0000                	unimp
  ac:	019c                	addi	a5,sp,192
  ae:	0000                	unimp
  b0:	01a0                	addi	s0,sp,200
  b2:	0000                	unimp
  b4:	01b4                	addi	a3,sp,200
	...
  be:	0000                	unimp
  c0:	002c                	addi	a1,sp,8
  c2:	0000                	unimp
  c4:	0038                	addi	a4,sp,8
  c6:	0000                	unimp
  c8:	0038                	addi	a4,sp,8
  ca:	0000                	unimp
  cc:	003c                	addi	a5,sp,8
	...
  d6:	0000                	unimp
  d8:	0038                	addi	a4,sp,8
  da:	0000                	unimp
  dc:	0038                	addi	a4,sp,8
  de:	0000                	unimp
  e0:	003c                	addi	a5,sp,8
  e2:	0000                	unimp
  e4:	0048                	addi	a0,sp,4
	...
  ee:	0000                	unimp
  f0:	00d0                	addi	a2,sp,68
  f2:	0000                	unimp
  f4:	00d0                	addi	a2,sp,68
  f6:	0000                	unimp
  f8:	00d4                	addi	a3,sp,68
  fa:	0000                	unimp
  fc:	00d8                	addi	a4,sp,68
  fe:	0000                	unimp
 100:	00e4                	addi	s1,sp,76
 102:	0000                	unimp
 104:	00ec                	addi	a1,sp,76
	...
 10e:	0000                	unimp
 110:	00ec                	addi	a1,sp,76
 112:	0000                	unimp
 114:	00f0                	addi	a2,sp,76
 116:	0000                	unimp
 118:	00f0                	addi	a2,sp,76
 11a:	0000                	unimp
 11c:	00f8                	addi	a4,sp,76
	...
 126:	0000                	unimp
 128:	00f0                	addi	a2,sp,76
 12a:	0000                	unimp
 12c:	00f0                	addi	a2,sp,76
 12e:	0000                	unimp
 130:	00f8                	addi	a4,sp,76
 132:	0000                	unimp
 134:	0104                	addi	s1,sp,128
	...
 13e:	0000                	unimp
 140:	0110                	addi	a2,sp,128
 142:	0000                	unimp
 144:	0114                	addi	a3,sp,128
 146:	0000                	unimp
 148:	0114                	addi	a3,sp,128
 14a:	0000                	unimp
 14c:	011c                	addi	a5,sp,128
	...
 156:	0000                	unimp
 158:	0134                	addi	a3,sp,136
 15a:	0000                	unimp
 15c:	0134                	addi	a3,sp,136
 15e:	0000                	unimp
 160:	013c                	addi	a5,sp,136
 162:	0000                	unimp
 164:	0148                	addi	a0,sp,132
	...
 16e:	0000                	unimp
 170:	01b4                	addi	a3,sp,200
 172:	0000                	unimp
 174:	01b8                	addi	a4,sp,200
 176:	0000                	unimp
 178:	01bc                	addi	a5,sp,200
 17a:	0000                	unimp
 17c:	01c4                	addi	s1,sp,196
 17e:	0000                	unimp
 180:	01d8                	addi	a4,sp,196
 182:	0000                	unimp
 184:	01e0                	addi	s0,sp,204
	...
 18e:	0000                	unimp
 190:	01f8                	addi	a4,sp,204
 192:	0000                	unimp
 194:	01fc                	addi	a5,sp,204
 196:	0000                	unimp
 198:	01fc                	addi	a5,sp,204
 19a:	0000                	unimp
 19c:	0200                	addi	s0,sp,256
	...
 1a6:	0000                	unimp
 1a8:	0208                	addi	a0,sp,256
 1aa:	0000                	unimp
 1ac:	0210                	addi	a2,sp,256
 1ae:	0000                	unimp
 1b0:	0214                	addi	a3,sp,256
 1b2:	0000                	unimp
 1b4:	0278                	addi	a4,sp,268
	...
 1be:	0000                	unimp
 1c0:	0214                	addi	a3,sp,256
 1c2:	0000                	unimp
 1c4:	0218                	addi	a4,sp,256
 1c6:	0000                	unimp
 1c8:	0250                	addi	a2,sp,260
 1ca:	0000                	unimp
 1cc:	0250                	addi	a2,sp,260
 1ce:	0000                	unimp
 1d0:	0250                	addi	a2,sp,260
 1d2:	0000                	unimp
 1d4:	0254                	addi	a3,sp,260
	...
 1de:	0000                	unimp
 1e0:	0008                	0x8
 1e2:	0000                	unimp
 1e4:	0008                	0x8
 1e6:	0000                	unimp
 1e8:	0014                	0x14
 1ea:	0000                	unimp
 1ec:	0018                	0x18
 1ee:	0000                	unimp
 1f0:	002c                	addi	a1,sp,8
 1f2:	0000                	unimp
 1f4:	0030                	addi	a2,sp,8
	...
 1fe:	0000                	unimp
 200:	0128                	addi	a0,sp,136
 202:	0000                	unimp
 204:	0130                	addi	a2,sp,136
 206:	0000                	unimp
 208:	0130                	addi	a2,sp,136
 20a:	0000                	unimp
 20c:	0134                	addi	a3,sp,136
 20e:	0000                	unimp
 210:	0134                	addi	a3,sp,136
 212:	0000                	unimp
 214:	0138                	addi	a4,sp,136
 216:	0000                	unimp
 218:	0148                	addi	a0,sp,132
 21a:	0000                	unimp
 21c:	014c                	addi	a1,sp,132
 21e:	0000                	unimp
 220:	014c                	addi	a1,sp,132
 222:	0000                	unimp
 224:	0150                	addi	a2,sp,132
	...
 22e:	0000                	unimp
 230:	0200                	addi	s0,sp,256
 232:	0000                	unimp
 234:	0204                	addi	s1,sp,256
 236:	0000                	unimp
 238:	0204                	addi	s1,sp,256
 23a:	0000                	unimp
 23c:	0208                	addi	a0,sp,256
	...
 246:	0000                	unimp
 248:	021c                	addi	a5,sp,256
 24a:	0000                	unimp
 24c:	0220                	addi	s0,sp,264
 24e:	0000                	unimp
 250:	0220                	addi	s0,sp,264
 252:	0000                	unimp
 254:	0228                	addi	a0,sp,264
	...
 25e:	0000                	unimp
 260:	0228                	addi	a0,sp,264
 262:	0000                	unimp
 264:	022c                	addi	a1,sp,264
 266:	0000                	unimp
 268:	022c                	addi	a1,sp,264
 26a:	0000                	unimp
 26c:	0230                	addi	a2,sp,264
	...
 276:	0000                	unimp
 278:	02a4                	addi	s1,sp,328
 27a:	0000                	unimp
 27c:	02a8                	addi	a0,sp,328
 27e:	0000                	unimp
 280:	02a8                	addi	a0,sp,328
 282:	0000                	unimp
 284:	02ac                	addi	a1,sp,328
	...
 28e:	0000                	unimp
 290:	0324                	addi	s1,sp,392
 292:	0000                	unimp
 294:	0328                	addi	a0,sp,392
 296:	0000                	unimp
 298:	0328                	addi	a0,sp,392
 29a:	0000                	unimp
 29c:	032c                	addi	a1,sp,392
	...
 2a6:	0000                	unimp
 2a8:	0378                	addi	a4,sp,396
 2aa:	0000                	unimp
 2ac:	0380                	addi	s0,sp,448
 2ae:	0000                	unimp
 2b0:	0380                	addi	s0,sp,448
 2b2:	0000                	unimp
 2b4:	03b0                	addi	a2,sp,456
	...
 2be:	0000                	unimp
 2c0:	03f8                	addi	a4,sp,460
 2c2:	0000                	unimp
 2c4:	03f8                	addi	a4,sp,460
 2c6:	0000                	unimp
 2c8:	03fc                	addi	a5,sp,460
 2ca:	0000                	unimp
 2cc:	040c                	addi	a1,sp,512
	...
 2d6:	0000                	unimp
 2d8:	03fc                	addi	a5,sp,460
 2da:	0000                	unimp
 2dc:	03fc                	addi	a5,sp,460
 2de:	0000                	unimp
 2e0:	0400                	addi	s0,sp,512
 2e2:	0000                	unimp
 2e4:	0408                	addi	a0,sp,512
	...
 2ee:	0000                	unimp
 2f0:	0420                	addi	s0,sp,520
 2f2:	0000                	unimp
 2f4:	0428                	addi	a0,sp,520
 2f6:	0000                	unimp
 2f8:	0428                	addi	a0,sp,520
 2fa:	0000                	unimp
 2fc:	042c                	addi	a1,sp,520
 2fe:	0000                	unimp
 300:	042c                	addi	a1,sp,520
 302:	0000                	unimp
 304:	0430                	addi	a2,sp,520
 306:	0000                	unimp
 308:	0440                	addi	s0,sp,516
 30a:	0000                	unimp
 30c:	0444                	addi	s1,sp,516
 30e:	0000                	unimp
 310:	0444                	addi	s1,sp,516
 312:	0000                	unimp
 314:	0448                	addi	a0,sp,516
	...
 31e:	0000                	unimp
 320:	05d4                	addi	a3,sp,708
 322:	0000                	unimp
 324:	06f4                	addi	a3,sp,844
 326:	0000                	unimp
 328:	0704                	addi	s1,sp,896
 32a:	0000                	unimp
 32c:	0740                	addi	s0,sp,900
	...
 336:	0000                	unimp
 338:	05d4                	addi	a3,sp,708
 33a:	0000                	unimp
 33c:	05d8                	addi	a4,sp,708
 33e:	0000                	unimp
 340:	05e0                	addi	s0,sp,716
 342:	0000                	unimp
 344:	05e4                	addi	s1,sp,716
 346:	0000                	unimp
 348:	0608                	addi	a0,sp,768
 34a:	0000                	unimp
 34c:	06a8                	addi	a0,sp,840
 34e:	0000                	unimp
 350:	06d8                	addi	a4,sp,836
 352:	0000                	unimp
 354:	06dc                	addi	a5,sp,836
	...
 35e:	0000                	unimp
 360:	05d4                	addi	a3,sp,708
 362:	0000                	unimp
 364:	05d8                	addi	a4,sp,708
 366:	0000                	unimp
 368:	05e0                	addi	s0,sp,716
 36a:	0000                	unimp
 36c:	05e4                	addi	s1,sp,716
 36e:	0000                	unimp
 370:	064c                	addi	a1,sp,772
 372:	0000                	unimp
 374:	06a4                	addi	s1,sp,840
	...
 37e:	0000                	unimp
 380:	05d4                	addi	a3,sp,708
 382:	0000                	unimp
 384:	05d8                	addi	a4,sp,708
 386:	0000                	unimp
 388:	05e0                	addi	s0,sp,716
 38a:	0000                	unimp
 38c:	05e4                	addi	s1,sp,716
 38e:	0000                	unimp
 390:	0650                	addi	a2,sp,772
 392:	0000                	unimp
 394:	0658                	addi	a4,sp,772
 396:	0000                	unimp
 398:	065c                	addi	a5,sp,772
 39a:	0000                	unimp
 39c:	0698                	addi	a4,sp,832
 39e:	0000                	unimp
 3a0:	069c                	addi	a5,sp,832
 3a2:	0000                	unimp
 3a4:	06a0                	addi	s0,sp,840
	...
 3ae:	0000                	unimp
 3b0:	06b0                	addi	a2,sp,840
 3b2:	0000                	unimp
 3b4:	06b8                	addi	a4,sp,840
 3b6:	0000                	unimp
 3b8:	06dc                	addi	a5,sp,836
 3ba:	0000                	unimp
 3bc:	06dc                	addi	a5,sp,836
	...
 3c6:	0000                	unimp
 3c8:	06c0                	addi	s0,sp,836
 3ca:	0000                	unimp
 3cc:	06c4                	addi	s1,sp,836
 3ce:	0000                	unimp
 3d0:	06c8                	addi	a0,sp,836
 3d2:	0000                	unimp
 3d4:	06cc                	addi	a1,sp,836
 3d6:	0000                	unimp
 3d8:	06dc                	addi	a5,sp,836
 3da:	0000                	unimp
 3dc:	06dc                	addi	a5,sp,836
	...
 3e6:	0000                	unimp
 3e8:	07a4                	addi	s1,sp,968
 3ea:	0000                	unimp
 3ec:	07a4                	addi	s1,sp,968
 3ee:	0000                	unimp
 3f0:	07a8                	addi	a0,sp,968
 3f2:	0000                	unimp
 3f4:	07b0                	addi	a2,sp,968
	...
 3fe:	0000                	unimp
 400:	0188                	addi	a0,sp,192
 402:	0000                	unimp
 404:	024c                	addi	a1,sp,260
 406:	0000                	unimp
 408:	0250                	addi	a2,sp,260
 40a:	0000                	unimp
 40c:	0254                	addi	a3,sp,260
	...
 416:	0000                	unimp
 418:	01c8                	addi	a0,sp,196
 41a:	0000                	unimp
 41c:	01c8                	addi	a0,sp,196
 41e:	0000                	unimp
 420:	01cc                	addi	a1,sp,196
 422:	0000                	unimp
 424:	01dc                	addi	a5,sp,196
	...

Disassembly of section .debug_frame:

00000000 <.debug_frame>:
   0:	000c                	0xc
   2:	0000                	unimp
   4:	ffff                	0xffff
   6:	ffff                	0xffff
   8:	7c010003          	lb	zero,1984(sp)
   c:	0d01                	addi	s10,s10,0
   e:	0002                	c.slli64	zero
  10:	0018                	0x18
  12:	0000                	unimp
  14:	0000                	unimp
  16:	0000                	unimp
  18:	0fdc                	addi	a5,sp,980
  1a:	c000                	sw	s0,0(s0)
  1c:	0040                	addi	s0,sp,4
  1e:	0000                	unimp
  20:	0e48                	addi	a0,sp,788
  22:	4c10                	lw	a2,24(s0)
  24:	0181                	addi	gp,gp,0
  26:	c160                	sw	s0,68(a0)
  28:	0e48                	addi	a0,sp,788
  2a:	0000                	unimp
  2c:	000c                	0xc
  2e:	0000                	unimp
  30:	ffff                	0xffff
  32:	ffff                	0xffff
  34:	7c010003          	lb	zero,1984(sp)
  38:	0d01                	addi	s10,s10,0
  3a:	0002                	c.slli64	zero
  3c:	000c                	0xc
  3e:	0000                	unimp
  40:	002c                	addi	a1,sp,8
  42:	0000                	unimp
  44:	0020                	addi	s0,sp,8
  46:	c000                	sw	s0,0(s0)
  48:	0014                	0x14
  4a:	0000                	unimp
  4c:	000c                	0xc
  4e:	0000                	unimp
  50:	002c                	addi	a1,sp,8
  52:	0000                	unimp
  54:	0034                	addi	a3,sp,8
  56:	c000                	sw	s0,0(s0)
  58:	0020                	addi	s0,sp,8
  5a:	0000                	unimp
  5c:	000c                	0xc
  5e:	0000                	unimp
  60:	002c                	addi	a1,sp,8
  62:	0000                	unimp
  64:	0054                	addi	a3,sp,4
  66:	c000                	sw	s0,0(s0)
  68:	0030                	addi	a2,sp,8
  6a:	0000                	unimp
  6c:	000c                	0xc
  6e:	0000                	unimp
  70:	002c                	addi	a1,sp,8
  72:	0000                	unimp
  74:	0084                	addi	s1,sp,64
  76:	c000                	sw	s0,0(s0)
  78:	002c                	addi	a1,sp,8
  7a:	0000                	unimp
  7c:	000c                	0xc
  7e:	0000                	unimp
  80:	002c                	addi	a1,sp,8
  82:	0000                	unimp
  84:	00b0                	addi	a2,sp,72
  86:	c000                	sw	s0,0(s0)
  88:	0064                	addi	s1,sp,12
  8a:	0000                	unimp
  8c:	000c                	0xc
  8e:	0000                	unimp
  90:	002c                	addi	a1,sp,8
  92:	0000                	unimp
  94:	0114                	addi	a3,sp,128
  96:	c000                	sw	s0,0(s0)
  98:	0088                	addi	a0,sp,64
  9a:	0000                	unimp
  9c:	000c                	0xc
  9e:	0000                	unimp
  a0:	002c                	addi	a1,sp,8
  a2:	0000                	unimp
  a4:	019c                	addi	a5,sp,192
  a6:	c000                	sw	s0,0(s0)
  a8:	004c                	addi	a1,sp,4
  aa:	0000                	unimp
  ac:	000c                	0xc
  ae:	0000                	unimp
  b0:	ffff                	0xffff
  b2:	ffff                	0xffff
  b4:	7c010003          	lb	zero,1984(sp)
  b8:	0d01                	addi	s10,s10,0
  ba:	0002                	c.slli64	zero
  bc:	000c                	0xc
  be:	0000                	unimp
  c0:	00ac                	addi	a1,sp,72
  c2:	0000                	unimp
  c4:	01e8                	addi	a0,sp,204
  c6:	c000                	sw	s0,0(s0)
  c8:	0008                	0x8
  ca:	0000                	unimp
  cc:	000c                	0xc
  ce:	0000                	unimp
  d0:	00ac                	addi	a1,sp,72
  d2:	0000                	unimp
  d4:	01f0                	addi	a2,sp,204
  d6:	c000                	sw	s0,0(s0)
  d8:	0008                	0x8
  da:	0000                	unimp
  dc:	0020                	addi	s0,sp,8
  de:	0000                	unimp
  e0:	00ac                	addi	a1,sp,72
  e2:	0000                	unimp
  e4:	01f8                	addi	a4,sp,204
  e6:	c000                	sw	s0,0(s0)
  e8:	00c0                	addi	s0,sp,68
  ea:	0000                	unimp
  ec:	0e48                	addi	a0,sp,788
  ee:	5010                	lw	a2,32(s0)
  f0:	0181                	addi	gp,gp,0
  f2:	0288                	addi	a0,sp,320
  f4:	0389                	addi	t2,t2,2
  f6:	9002                	ebreak
  f8:	44c8                	lw	a0,12(s1)
  fa:	44c1                	li	s1,16
  fc:	4cc9                	li	s9,18
  fe:	000e                	c.slli	zero,0x3
 100:	0024                	addi	s1,sp,8
 102:	0000                	unimp
 104:	00ac                	addi	a1,sp,72
 106:	0000                	unimp
 108:	02b8                	addi	a4,sp,328
 10a:	c000                	sw	s0,0(s0)
 10c:	00b8                	addi	a4,sp,72
 10e:	0000                	unimp
 110:	0e44                	addi	s1,sp,788
 112:	5010                	lw	a2,32(s0)
 114:	0181                	addi	gp,gp,0
 116:	0288                	addi	a0,sp,320
 118:	0389                	addi	t2,t2,2
 11a:	5402                	lw	s0,32(sp)
 11c:	c10a                	sw	sp,128(sp)
 11e:	c844                	sw	s1,20(s0)
 120:	c95c                	sw	a5,20(a0)
 122:	0e44                	addi	s1,sp,788
 124:	4400                	lw	s0,8(s0)
 126:	000c000b          	0xc000b
 12a:	0000                	unimp
 12c:	00ac                	addi	a1,sp,72
 12e:	0000                	unimp
 130:	0370                	addi	a2,sp,396
 132:	c000                	sw	s0,0(s0)
 134:	0114                	addi	a3,sp,128
 136:	0000                	unimp
 138:	000c                	0xc
 13a:	0000                	unimp
 13c:	ffff                	0xffff
 13e:	ffff                	0xffff
 140:	7c010003          	lb	zero,1984(sp)
 144:	0d01                	addi	s10,s10,0
 146:	0002                	c.slli64	zero
 148:	000c                	0xc
 14a:	0000                	unimp
 14c:	0138                	addi	a4,sp,136
 14e:	0000                	unimp
 150:	0484                	addi	s1,sp,576
 152:	c000                	sw	s0,0(s0)
 154:	0008                	0x8
 156:	0000                	unimp
 158:	0028                	addi	a0,sp,8
 15a:	0000                	unimp
 15c:	0138                	addi	a4,sp,136
 15e:	0000                	unimp
 160:	048c                	addi	a1,sp,576
 162:	c000                	sw	s0,0(s0)
 164:	009c                	addi	a5,sp,64
 166:	0000                	unimp
 168:	0e44                	addi	s1,sp,788
 16a:	4410                	lw	a2,8(s0)
 16c:	0492                	slli	s1,s1,0x4
 16e:	8154                	0x8154
 170:	8801                	andi	s0,s0,0
 172:	8902                	jr	s2
 174:	c16c0203          	lb	tp,-1002(s8) # 17c16 <ROM_BASE-0xbffe83ea>
 178:	c844                	sw	s1,20(s0)
 17a:	c944                	sw	s1,20(a0)
 17c:	d244                	sw	s1,36(a2)
 17e:	0e44                	addi	s1,sp,788
 180:	0000                	unimp
 182:	0000                	unimp
 184:	0020                	addi	s0,sp,8
 186:	0000                	unimp
 188:	0138                	addi	a4,sp,136
 18a:	0000                	unimp
 18c:	0528                	addi	a0,sp,648
 18e:	c000                	sw	s0,0(s0)
 190:	005c                	addi	a5,sp,4
 192:	0000                	unimp
 194:	0e44                	addi	s1,sp,788
 196:	4410                	lw	a2,8(s0)
 198:	0389                	addi	t2,t2,2
 19a:	8154                	0x8154
 19c:	8801                	andi	s0,s0,0
 19e:	6802                	flw	fa6,0(sp)
 1a0:	44c8                	lw	a0,12(s1)
 1a2:	44c1                	li	s1,16
 1a4:	4cc9                	li	s9,18
 1a6:	000e                	c.slli	zero,0x3
 1a8:	0034                	addi	a3,sp,8
 1aa:	0000                	unimp
 1ac:	0138                	addi	a4,sp,136
 1ae:	0000                	unimp
 1b0:	0584                	addi	s1,sp,704
 1b2:	c000                	sw	s0,0(s0)
 1b4:	00d8                	addi	a4,sp,68
 1b6:	0000                	unimp
 1b8:	0e44                	addi	s1,sp,788
 1ba:	5c10                	lw	a2,56(s0)
 1bc:	0181                	addi	gp,gp,0
 1be:	0288                	addi	a0,sp,320
 1c0:	0389                	addi	t2,t2,2
 1c2:	0492                	slli	s1,s1,0x4
 1c4:	8402                	jr	s0
 1c6:	c10a                	sw	sp,128(sp)
 1c8:	c844                	sw	s1,20(s0)
 1ca:	c944                	sw	s1,20(a0)
 1cc:	d244                	sw	s1,36(a2)
 1ce:	0e48                	addi	a0,sp,788
 1d0:	4400                	lw	s0,8(s0)
 1d2:	44c1440b          	0x44c1440b
 1d6:	44c8                	lw	a0,12(s1)
 1d8:	44c9                	li	s1,18
 1da:	48d2                	lw	a7,20(sp)
 1dc:	000e                	c.slli	zero,0x3
 1de:	0000                	unimp
 1e0:	0034                	addi	a3,sp,8
 1e2:	0000                	unimp
 1e4:	0138                	addi	a4,sp,136
 1e6:	0000                	unimp
 1e8:	065c                	addi	a5,sp,772
 1ea:	c000                	sw	s0,0(s0)
 1ec:	00ac                	addi	a1,sp,72
 1ee:	0000                	unimp
 1f0:	0e44                	addi	s1,sp,788
 1f2:	5c10                	lw	a2,56(s0)
 1f4:	0181                	addi	gp,gp,0
 1f6:	0288                	addi	a0,sp,320
 1f8:	0389                	addi	t2,t2,2
 1fa:	0492                	slli	s1,s1,0x4
 1fc:	5002                	0x5002
 1fe:	c10a                	sw	sp,128(sp)
 200:	c844                	sw	s1,20(s0)
 202:	c944                	sw	s1,20(a0)
 204:	d244                	sw	s1,36(a2)
 206:	0e44                	addi	s1,sp,788
 208:	4400                	lw	s0,8(s0)
 20a:	44c14c0b          	0x44c14c0b
 20e:	48c8                	lw	a0,20(s1)
 210:	44c9                	li	s1,18
 212:	48d2                	lw	a7,20(sp)
 214:	000e                	c.slli	zero,0x3
 216:	0000                	unimp
 218:	001c                	0x1c
 21a:	0000                	unimp
 21c:	0138                	addi	a4,sp,136
 21e:	0000                	unimp
 220:	0708                	addi	a0,sp,896
 222:	c000                	sw	s0,0(s0)
 224:	0078                	addi	a4,sp,12
 226:	0000                	unimp
 228:	0e44                	addi	s1,sp,788
 22a:	5410                	lw	a2,40(s0)
 22c:	0181                	addi	gp,gp,0
 22e:	0288                	addi	a0,sp,320
 230:	4c02                	lw	s8,0(sp)
 232:	48c1                	li	a7,16
 234:	48c8                	lw	a0,20(s1)
 236:	000e                	c.slli	zero,0x3
 238:	0020                	addi	s0,sp,8
 23a:	0000                	unimp
 23c:	0138                	addi	a4,sp,136
 23e:	0000                	unimp
 240:	0780                	addi	s0,sp,960
 242:	c000                	sw	s0,0(s0)
 244:	00d8                	addi	a4,sp,68
 246:	0000                	unimp
 248:	0e44                	addi	s1,sp,788
 24a:	4c10                	lw	a2,24(s0)
 24c:	0389                	addi	t2,t2,2
 24e:	0181                	addi	gp,gp,0
 250:	0288                	addi	a0,sp,320
 252:	b402                	fsd	ft0,40(sp)
 254:	48c1                	li	a7,16
 256:	44c8                	lw	a0,12(s1)
 258:	44c9                	li	s1,18
 25a:	000e                	c.slli	zero,0x3
 25c:	0038                	addi	a4,sp,8
 25e:	0000                	unimp
 260:	0138                	addi	a4,sp,136
 262:	0000                	unimp
 264:	0858                	addi	a4,sp,20
 266:	c000                	sw	s0,0(s0)
 268:	0120                	addi	s0,sp,136
 26a:	0000                	unimp
 26c:	0e44                	addi	s1,sp,788
 26e:	5010                	lw	a2,32(s0)
 270:	0181                	addi	gp,gp,0
 272:	0288                	addi	a0,sp,320
 274:	0389                	addi	t2,t2,2
 276:	0492                	slli	s1,s1,0x4
 278:	0a00cc03          	lbu	s8,160(ra)
 27c:	44c1                	li	s1,16
 27e:	44c8                	lw	a0,12(s1)
 280:	44c9                	li	s1,18
 282:	44d2                	lw	s1,20(sp)
 284:	000e                	c.slli	zero,0x3
 286:	0b44                	addi	s1,sp,404
 288:	0a44                	addi	s1,sp,276
 28a:	44c1                	li	s1,16
 28c:	44c8                	lw	a0,12(s1)
 28e:	44c9                	li	s1,18
 290:	48d2                	lw	a7,20(sp)
 292:	000e                	c.slli	zero,0x3
 294:	0b44                	addi	s1,sp,404
 296:	0000                	unimp
 298:	000c                	0xc
 29a:	0000                	unimp
 29c:	0138                	addi	a4,sp,136
 29e:	0000                	unimp
 2a0:	0978                	addi	a4,sp,156
 2a2:	c000                	sw	s0,0(s0)
 2a4:	0024                	addi	s1,sp,8
 2a6:	0000                	unimp
 2a8:	000c                	0xc
 2aa:	0000                	unimp
 2ac:	0138                	addi	a4,sp,136
 2ae:	0000                	unimp
 2b0:	099c                	addi	a5,sp,208
 2b2:	c000                	sw	s0,0(s0)
 2b4:	0054                	addi	a3,sp,4
 2b6:	0000                	unimp
 2b8:	004c                	addi	a1,sp,4
 2ba:	0000                	unimp
 2bc:	0138                	addi	a4,sp,136
 2be:	0000                	unimp
 2c0:	09f0                	addi	a2,sp,220
 2c2:	c000                	sw	s0,0(s0)
 2c4:	025c                	addi	a5,sp,260
 2c6:	0000                	unimp
 2c8:	0e44                	addi	s1,sp,788
 2ca:	01b0                	addi	a2,sp,200
 2cc:	9370                	0x9370
 2ce:	9805                	andi	s0,s0,-31
 2d0:	810a                	mv	sp,sp
 2d2:	8801                	andi	s0,s0,0
 2d4:	8902                	jr	s2
 2d6:	94049203          	lh	tp,-1728(s1) # 316 <ROM_BASE-0xbffffcea>
 2da:	9506                	add	a0,a0,ra
 2dc:	97089607          	0x97089607
 2e0:	9909                	andi	a0,a0,-30
 2e2:	030c9a0b          	0x30c9a0b
 2e6:	01c8                	addi	a0,sp,196
 2e8:	c10a                	sw	sp,128(sp)
 2ea:	c848                	sw	a0,20(s0)
 2ec:	c944                	sw	s1,20(a0)
 2ee:	d244                	sw	s1,36(a2)
 2f0:	d344                	sw	s1,36(a4)
 2f2:	d444                	sw	s1,44(s0)
 2f4:	d544                	sw	s1,44(a0)
 2f6:	d644                	sw	s1,44(a2)
 2f8:	d744                	sw	s1,44(a4)
 2fa:	d844                	sw	s1,52(s0)
 2fc:	d944                	sw	s1,52(a0)
 2fe:	da44                	sw	s1,52(a2)
 300:	0e44                	addi	s1,sp,788
 302:	4400                	lw	s0,8(s0)
 304:	0000000b          	0xb
 308:	000c                	0xc
 30a:	0000                	unimp
 30c:	ffff                	0xffff
 30e:	ffff                	0xffff
 310:	7c010003          	lb	zero,1984(sp)
 314:	0d01                	addi	s10,s10,0
 316:	0002                	c.slli64	zero
 318:	0048                	addi	a0,sp,4
 31a:	0000                	unimp
 31c:	0308                	addi	a0,sp,384
 31e:	0000                	unimp
 320:	0c4c                	addi	a1,sp,532
 322:	c000                	sw	s0,0(s0)
 324:	0390                	addi	a2,sp,448
 326:	0000                	unimp
 328:	0e44                	addi	s1,sp,788
 32a:	6830                	flw	fa2,80(s0)
 32c:	0288                	addi	a0,sp,320
 32e:	01810997          	auipc	s3,0x1810
 332:	0389                	addi	t2,t2,2
 334:	0492                	slli	s1,s1,0x4
 336:	06940593          	addi	a1,s0,105 # 1a069 <ROM_BASE-0xbffe5f97>
 33a:	0795                	addi	a5,a5,5
 33c:	0896                	slli	a7,a7,0x5
 33e:	0a98                	addi	a4,sp,336
 340:	0c44                	addi	s1,sp,532
 342:	0008                	0x8
 344:	0a027003          	0xa027003
 348:	020c                	addi	a1,sp,256
 34a:	4430                	lw	a2,72(s0)
 34c:	48c1                	li	a7,16
 34e:	44c8                	lw	a0,12(s1)
 350:	44c9                	li	s1,18
 352:	44d2                	lw	s1,20(sp)
 354:	44d444d3          	0x44d444d3
 358:	44d5                	li	s1,21
 35a:	44d6                	lw	s1,84(sp)
 35c:	44d844d7          	0x44d844d7
 360:	000e                	c.slli	zero,0x3
 362:	0b44                	addi	s1,sp,404

Disassembly of section .debug_loc:

00000000 <.debug_loc>:
       0:	017c                	addi	a5,sp,140
       2:	0000                	unimp
       4:	018c                	addi	a1,sp,192
       6:	0000                	unimp
       8:	0001                	nop
       a:	8c5a                	mv	s8,s6
       c:	0001                	nop
       e:	c800                	sw	s0,16(s0)
      10:	0001                	nop
      12:	0400                	addi	s0,sp,512
      14:	f300                	fsw	fs0,32(a4)
      16:	5a01                	li	s4,-32
      18:	009f 0000 0000      	0x9f
      1e:	0000                	unimp
      20:	7c00                	flw	fs0,56(s0)
      22:	0001                	nop
      24:	a000                	fsd	fs0,0(s0)
      26:	0001                	nop
      28:	0600                	addi	s0,sp,768
      2a:	f200                	fsw	fs0,32(a2)
      2c:	0000024b          	fnmsub.s	ft4,ft0,ft0,ft0,rne
	...
      38:	7c00                	flw	fs0,56(s0)
      3a:	0001                	nop
      3c:	8c00                	0x8c00
      3e:	0001                	nop
      40:	0100                	addi	s0,sp,128
      42:	5a00                	lw	s0,48(a2)
      44:	018c                	addi	a1,sp,192
      46:	0000                	unimp
      48:	01a0                	addi	s0,sp,200
      4a:	0000                	unimp
      4c:	0004                	0x4
      4e:	9f5a01f3          	0x9f5a01f3
	...
      5a:	01a0                	addi	s0,sp,200
      5c:	0000                	unimp
      5e:	01b4                	addi	a3,sp,200
      60:	0000                	unimp
      62:	0001                	nop
      64:	005c                	addi	a5,sp,4
      66:	0000                	unimp
      68:	0000                	unimp
      6a:	0000                	unimp
      6c:	b400                	fsd	fs0,40(s0)
      6e:	0001                	nop
      70:	c400                	sw	s0,8(s0)
      72:	0001                	nop
      74:	0100                	addi	s0,sp,128
      76:	5d00                	lw	s0,56(a0)
	...
      80:	00f4                	addi	a3,sp,76
      82:	0000                	unimp
      84:	0114                	addi	a3,sp,128
      86:	0000                	unimp
      88:	0002                	c.slli64	zero
      8a:	00009f37          	lui	t5,0x9
      8e:	0000                	unimp
      90:	0000                	unimp
      92:	0000                	unimp
      94:	0124                	addi	s1,sp,136
      96:	0000                	unimp
      98:	0128                	addi	a0,sp,136
      9a:	0000                	unimp
      9c:	0001                	nop
      9e:	285d                	jal	154 <ROM_BASE-0xbffffeac>
      a0:	0001                	nop
      a2:	2c00                	fld	fs0,24(s0)
      a4:	0001                	nop
      a6:	0100                	addi	s0,sp,128
      a8:	5f00                	lw	s0,56(a4)
	...
      b2:	0138                	addi	a4,sp,136
      b4:	0000                	unimp
      b6:	013c                	addi	a5,sp,136
      b8:	0000                	unimp
      ba:	0005                	c.nop	1
      bc:	93610193          	addi	gp,sp,-1738
      c0:	3c01                	jal	fffffad0 <_BSS_END_+0x3fffe790>
      c2:	0001                	nop
      c4:	6800                	flw	fs0,16(s0)
      c6:	0001                	nop
      c8:	0600                	addi	s0,sp,768
      ca:	5d00                	lw	s0,56(a0)
      cc:	93610193          	addi	gp,sp,-1738
      d0:	0001                	nop
      d2:	0000                	unimp
      d4:	0000                	unimp
      d6:	0000                	unimp
      d8:	3c00                	fld	fs0,56(s0)
      da:	0001                	nop
      dc:	4c00                	lw	s0,24(s0)
      de:	0001                	nop
      e0:	0100                	addi	s0,sp,128
      e2:	5d00                	lw	s0,56(a0)
	...
      ec:	0124                	addi	s1,sp,136
      ee:	0000                	unimp
      f0:	013c                	addi	a5,sp,136
      f2:	0000                	unimp
      f4:	0006                	c.slli	zero,0x1
      f6:	1af2                	slli	s5,s5,0x3c
      f8:	00000003          	lb	zero,0(zero) # 0 <ROM_BASE-0xc0000000>
	...
     104:	014c                	addi	a1,sp,132
     106:	0000                	unimp
     108:	015c                	addi	a5,sp,132
     10a:	0000                	unimp
     10c:	0001                	nop
     10e:	0061                	c.nop	24
     110:	0000                	unimp
     112:	0000                	unimp
     114:	0000                	unimp
     116:	9000                	0x9000
     118:	0000                	unimp
     11a:	a800                	fsd	fs0,16(s0)
     11c:	0000                	unimp
     11e:	0200                	addi	s0,sp,256
     120:	3300                	fld	fs0,32(a4)
     122:	009f 0000 0000      	0x9f
     128:	0000                	unimp
     12a:	b000                	fsd	fs0,32(s0)
     12c:	0000                	unimp
     12e:	b400                	fsd	fs0,40(s0)
     130:	0000                	unimp
     132:	0100                	addi	s0,sp,128
     134:	5d00                	lw	s0,56(a0)
     136:	00b4                	addi	a3,sp,72
     138:	0000                	unimp
     13a:	00b8                	addi	a4,sp,72
     13c:	0000                	unimp
     13e:	0001                	nop
     140:	b85f 0000 ec00      	0xec000000b85f
     146:	0000                	unimp
     148:	0900                	addi	s0,sp,144
     14a:	7a00                	flw	fs0,48(a2)
     14c:	7c00                	flw	fs0,56(s0)
     14e:	0800                	addi	s0,sp,16
     150:	1aff                	0x1aff
     152:	9f25                	0x9f25
	...
     15c:	00c4                	addi	s1,sp,68
     15e:	0000                	unimp
     160:	00c8                	addi	a0,sp,68
     162:	0000                	unimp
     164:	0005                	c.nop	1
     166:	93600193          	li	gp,-1738
     16a:	c801                	beqz	s0,17a <ROM_BASE-0xbffffe86>
     16c:	0000                	unimp
     16e:	f400                	fsw	fs0,40(s0)
     170:	0000                	unimp
     172:	0600                	addi	s0,sp,768
     174:	5d00                	lw	s0,56(a0)
     176:	93600193          	li	gp,-1738
     17a:	0001                	nop
     17c:	0000                	unimp
     17e:	0000                	unimp
     180:	0000                	unimp
     182:	c800                	sw	s0,16(s0)
     184:	0000                	unimp
     186:	d800                	sw	s0,48(s0)
     188:	0000                	unimp
     18a:	0100                	addi	s0,sp,128
     18c:	5d00                	lw	s0,56(a0)
	...
     196:	00b0                	addi	a2,sp,72
     198:	0000                	unimp
     19a:	00c8                	addi	a0,sp,68
     19c:	0000                	unimp
     19e:	0006                	c.slli	zero,0x1
     1a0:	d2f2                	sw	t3,100(sp)
     1a2:	00000003          	lb	zero,0(zero) # 0 <ROM_BASE-0xc0000000>
	...
     1ae:	00b0                	addi	a2,sp,72
     1b0:	0000                	unimp
     1b2:	00b4                	addi	a3,sp,72
     1b4:	0000                	unimp
     1b6:	0001                	nop
     1b8:	b45d                	j	fffffc5e <_BSS_END_+0x3fffe91e>
     1ba:	0000                	unimp
     1bc:	b800                	fsd	fs0,48(s0)
     1be:	0000                	unimp
     1c0:	0100                	addi	s0,sp,128
     1c2:	5f00                	lw	s0,56(a4)
     1c4:	00b8                	addi	a4,sp,72
     1c6:	0000                	unimp
     1c8:	00c8                	addi	a0,sp,68
     1ca:	0000                	unimp
     1cc:	0009                	c.nop	2
     1ce:	007a                	c.slli	zero,0x1e
     1d0:	007c                	addi	a5,sp,12
     1d2:	ff08                	fsw	fa0,56(a4)
     1d4:	251a                	fld	fa0,384(sp)
     1d6:	009f 0000 0000      	0x9f
     1dc:	0000                	unimp
     1de:	d800                	sw	s0,48(s0)
     1e0:	0000                	unimp
     1e2:	e800                	fsw	fs0,16(s0)
     1e4:	0000                	unimp
     1e6:	0100                	addi	s0,sp,128
     1e8:	6000                	flw	fs0,0(s0)
	...
     1f2:	0034                	addi	a3,sp,8
     1f4:	0000                	unimp
     1f6:	0048                	addi	a0,sp,4
     1f8:	0000                	unimp
     1fa:	0001                	nop
     1fc:	485a                	lw	a6,148(sp)
     1fe:	0000                	unimp
     200:	6400                	flw	fs0,8(s0)
     202:	0000                	unimp
     204:	0100                	addi	s0,sp,128
     206:	5a00                	lw	s0,48(a2)
	...
     210:	0048                	addi	a0,sp,4
     212:	0000                	unimp
     214:	0058                	addi	a4,sp,4
     216:	0000                	unimp
     218:	0001                	nop
     21a:	005d                	c.nop	23
	...
     224:	0000                	unimp
     226:	0800                	addi	s0,sp,16
     228:	0000                	unimp
     22a:	0200                	addi	s0,sp,256
     22c:	3000                	fld	fs0,32(s0)
     22e:	089f 0000 1400      	0x14000000089f
     234:	0000                	unimp
     236:	0200                	addi	s0,sp,256
     238:	3300                	fld	fs0,32(a4)
     23a:	009f 0000 0000      	0x9f
     240:	0000                	unimp
     242:	1400                	addi	s0,sp,544
     244:	0000                	unimp
     246:	3000                	fld	fs0,32(s0)
     248:	0000                	unimp
     24a:	0100                	addi	s0,sp,128
     24c:	5a00                	lw	s0,48(a2)
     24e:	0030                	addi	a2,sp,8
     250:	0000                	unimp
     252:	0034                	addi	a3,sp,8
     254:	0000                	unimp
     256:	0004                	0x4
     258:	9f5a01f3          	0x9f5a01f3
	...
     264:	0064                	addi	s1,sp,12
     266:	0000                	unimp
     268:	007c                	addi	a5,sp,12
     26a:	0000                	unimp
     26c:	0001                	nop
     26e:	7c5a                	flw	fs8,180(sp)
     270:	0000                	unimp
     272:	9000                	0x9000
     274:	0000                	unimp
     276:	0400                	addi	s0,sp,512
     278:	f300                	fsw	fs0,32(a4)
     27a:	5a01                	li	s4,-32
     27c:	009f 0000 0000      	0x9f
     282:	0000                	unimp
     284:	8800                	0x8800
     286:	0001                	nop
     288:	9800                	0x9800
     28a:	0001                	nop
     28c:	0100                	addi	s0,sp,128
     28e:	5a00                	lw	s0,48(a2)
     290:	0198                	addi	a4,sp,192
     292:	0000                	unimp
     294:	01b8                	addi	a4,sp,200
     296:	0000                	unimp
     298:	0001                	nop
     29a:	b85e                	fsd	fs7,48(sp)
     29c:	0001                	nop
     29e:	9400                	0x9400
     2a0:	0002                	c.slli64	zero
     2a2:	0400                	addi	s0,sp,512
     2a4:	f300                	fsw	fs0,32(a4)
     2a6:	5a01                	li	s4,-32
     2a8:	949f 0002 9c00      	0x9c000002949f
     2ae:	0002                	c.slli64	zero
     2b0:	0100                	addi	s0,sp,128
     2b2:	5e00                	lw	s0,56(a2)
	...
     2bc:	0188                	addi	a0,sp,192
     2be:	0000                	unimp
     2c0:	01b4                	addi	a3,sp,200
     2c2:	0000                	unimp
     2c4:	0001                	nop
     2c6:	0001b45b          	0x1b45b
     2ca:	9400                	0x9400
     2cc:	0002                	c.slli64	zero
     2ce:	0100                	addi	s0,sp,128
     2d0:	6000                	flw	fs0,0(s0)
     2d2:	0294                	addi	a3,sp,320
     2d4:	0000                	unimp
     2d6:	029c                	addi	a5,sp,320
     2d8:	0000                	unimp
     2da:	0001                	nop
     2dc:	0000005b          	0x5b
     2e0:	0000                	unimp
     2e2:	0000                	unimp
     2e4:	8800                	0x8800
     2e6:	0001                	nop
     2e8:	b800                	fsd	fs0,48(s0)
     2ea:	0001                	nop
     2ec:	0100                	addi	s0,sp,128
     2ee:	5c00                	lw	s0,56(s0)
     2f0:	01b8                	addi	a4,sp,200
     2f2:	0000                	unimp
     2f4:	0274                	addi	a3,sp,268
     2f6:	0000                	unimp
     2f8:	0001                	nop
     2fa:	745a                	flw	fs0,180(sp)
     2fc:	0002                	c.slli64	zero
     2fe:	7800                	flw	fs0,48(s0)
     300:	0002                	c.slli64	zero
     302:	0400                	addi	s0,sp,512
     304:	f300                	fsw	fs0,32(a4)
     306:	5c01                	li	s8,-32
     308:	789f 0002 9000      	0x90000002789f
     30e:	0002                	c.slli64	zero
     310:	0100                	addi	s0,sp,128
     312:	5a00                	lw	s0,48(a2)
     314:	0290                	addi	a2,sp,320
     316:	0000                	unimp
     318:	0294                	addi	a3,sp,320
     31a:	0000                	unimp
     31c:	0004                	0x4
     31e:	9f5c01f3          	0x9f5c01f3
     322:	0294                	addi	a3,sp,320
     324:	0000                	unimp
     326:	0298                	addi	a4,sp,320
     328:	0000                	unimp
     32a:	0001                	nop
     32c:	985a                	add	a6,a6,s6
     32e:	0002                	c.slli64	zero
     330:	9c00                	0x9c00
     332:	0002                	c.slli64	zero
     334:	0100                	addi	s0,sp,128
     336:	5c00                	lw	s0,56(s0)
	...
     340:	0188                	addi	a0,sp,192
     342:	0000                	unimp
     344:	01a8                	addi	a0,sp,200
     346:	0000                	unimp
     348:	0001                	nop
     34a:	a85d                	j	400 <ROM_BASE-0xbffffc00>
     34c:	0001                	nop
     34e:	9400                	0x9400
     350:	0002                	c.slli64	zero
     352:	0100                	addi	s0,sp,128
     354:	6100                	flw	fs0,0(a0)
     356:	0294                	addi	a3,sp,320
     358:	0000                	unimp
     35a:	029c                	addi	a5,sp,320
     35c:	0000                	unimp
     35e:	0001                	nop
     360:	005d                	c.nop	23
	...
     36a:	0002                	c.slli64	zero
     36c:	0400                	addi	s0,sp,512
     36e:	0002                	c.slli64	zero
     370:	0100                	addi	s0,sp,128
     372:	5f00                	lw	s0,56(a4)
     374:	0254                	addi	a3,sp,260
     376:	0000                	unimp
     378:	025c                	addi	a5,sp,260
     37a:	0000                	unimp
     37c:	0001                	nop
     37e:	005e                	c.slli	zero,0x17
     380:	0000                	unimp
     382:	0000                	unimp
     384:	0000                	unimp
     386:	8800                	0x8800
     388:	0001                	nop
     38a:	2400                	fld	fs0,8(s0)
     38c:	0002                	c.slli64	zero
     38e:	0200                	addi	s0,sp,256
     390:	3000                	fld	fs0,32(s0)
     392:	249f 0002 3400      	0x34000002249f
     398:	0002                	c.slli64	zero
     39a:	0100                	addi	s0,sp,128
     39c:	5d00                	lw	s0,56(a0)
     39e:	0234                	addi	a3,sp,264
     3a0:	0000                	unimp
     3a2:	0248                	addi	a0,sp,260
     3a4:	0000                	unimp
     3a6:	0002                	c.slli64	zero
     3a8:	9f30                	0x9f30
     3aa:	0248                	addi	a0,sp,260
     3ac:	0000                	unimp
     3ae:	0278                	addi	a4,sp,268
     3b0:	0000                	unimp
     3b2:	0001                	nop
     3b4:	945d                	srai	s0,s0,0x37
     3b6:	0002                	c.slli64	zero
     3b8:	9c00                	0x9c00
     3ba:	0002                	c.slli64	zero
     3bc:	0200                	addi	s0,sp,256
     3be:	3000                	fld	fs0,32(s0)
     3c0:	009f 0000 0000      	0x9f
     3c6:	0000                	unimp
     3c8:	ac00                	fsd	fs0,24(s0)
     3ca:	0001                	nop
     3cc:	b800                	fsd	fs0,48(s0)
     3ce:	0001                	nop
     3d0:	0200                	addi	s0,sp,256
     3d2:	3000                	fld	fs0,32(s0)
     3d4:	b89f 0001 d000      	0xd0000001b89f
     3da:	0001                	nop
     3dc:	0700                	addi	s0,sp,896
     3de:	7e00                	flw	fs0,56(a2)
     3e0:	f300                	fsw	fs0,32(a4)
     3e2:	5a01                	li	s4,-32
     3e4:	9f1c                	0x9f1c
     3e6:	01d0                	addi	a2,sp,196
     3e8:	0000                	unimp
     3ea:	01d4                	addi	a3,sp,196
     3ec:	0000                	unimp
     3ee:	0009                	c.nop	2
     3f0:	007e                	c.slli	zero,0x1f
     3f2:	1c5a01f3          	0x1c5a01f3
     3f6:	d49f0123          	sb	s1,-702(t5) # 8d42 <ROM_BASE-0xbfff72be>
     3fa:	0001                	nop
     3fc:	d800                	sw	s0,48(s0)
     3fe:	0001                	nop
     400:	0700                	addi	s0,sp,896
     402:	7e00                	flw	fs0,56(a2)
     404:	f300                	fsw	fs0,32(a4)
     406:	5a01                	li	s4,-32
     408:	9f1c                	0x9f1c
	...
     412:	01c4                	addi	s1,sp,196
     414:	0000                	unimp
     416:	01c8                	addi	a0,sp,196
     418:	0000                	unimp
     41a:	0006                	c.slli	zero,0x1
     41c:	6408                	flw	fa0,8(s0)
     41e:	007f                	0x7f
     420:	9f1c                	0x9f1c
     422:	01c8                	addi	a0,sp,196
     424:	0000                	unimp
     426:	01cc                	addi	a1,sp,196
     428:	0000                	unimp
     42a:	0006                	c.slli	zero,0x1
     42c:	6508                	flw	fa0,8(a0)
     42e:	007f                	0x7f
     430:	9f1c                	0x9f1c
     432:	01cc                	addi	a1,sp,196
     434:	0000                	unimp
     436:	01d8                	addi	a4,sp,196
     438:	0000                	unimp
     43a:	0006                	c.slli	zero,0x1
     43c:	6408                	flw	fa0,8(s0)
     43e:	007f                	0x7f
     440:	9f1c                	0x9f1c
	...
     44a:	01bc                	addi	a5,sp,200
     44c:	0000                	unimp
     44e:	01c4                	addi	s1,sp,196
     450:	0000                	unimp
     452:	0001                	nop
     454:	005d                	c.nop	23
     456:	0000                	unimp
     458:	0000                	unimp
     45a:	0000                	unimp
     45c:	bc00                	fsd	fs0,56(s0)
     45e:	0001                	nop
     460:	c400                	sw	s0,8(s0)
     462:	0001                	nop
     464:	0600                	addi	s0,sp,768
     466:	0c00                	addi	s0,sp,528
     468:	0068                	addi	a0,sp,12
     46a:	2000                	fld	fs0,0(s0)
     46c:	009f 0000 0000      	0x9f
     472:	0000                	unimp
     474:	e000                	fsw	fs0,0(s0)
     476:	0001                	nop
     478:	e400                	fsw	fs0,8(s0)
     47a:	0001                	nop
     47c:	0700                	addi	s0,sp,896
     47e:	0a00                	addi	s0,sp,272
     480:	0bb8                	addi	a4,sp,472
     482:	007f                	0x7f
     484:	9f1c                	0x9f1c
     486:	01e4                	addi	s1,sp,204
     488:	0000                	unimp
     48a:	01e8                	addi	a0,sp,204
     48c:	0000                	unimp
     48e:	b90a0007          	0xb90a0007
     492:	1c007f0b          	0x1c007f0b
     496:	e89f 0001 f400      	0xf4000001e89f
     49c:	0001                	nop
     49e:	0700                	addi	s0,sp,896
     4a0:	0a00                	addi	s0,sp,272
     4a2:	0bb8                	addi	a4,sp,472
     4a4:	007f                	0x7f
     4a6:	9f1c                	0x9f1c
	...
     4b0:	0208                	addi	a0,sp,256
     4b2:	0000                	unimp
     4b4:	0224                	addi	s1,sp,264
     4b6:	0000                	unimp
     4b8:	0002                	c.slli64	zero
     4ba:	9f30                	0x9f30
     4bc:	0224                	addi	s1,sp,264
     4be:	0000                	unimp
     4c0:	0240                	addi	s0,sp,260
     4c2:	0000                	unimp
     4c4:	0001                	nop
     4c6:	405c                	lw	a5,4(s0)
     4c8:	0002                	c.slli64	zero
     4ca:	4400                	lw	s0,8(s0)
     4cc:	0002                	c.slli64	zero
     4ce:	0300                	addi	s0,sp,384
     4d0:	7c00                	flw	fs0,56(s0)
     4d2:	9f7f                	0x9f7f
     4d4:	0244                	addi	s1,sp,260
     4d6:	0000                	unimp
     4d8:	0278                	addi	a4,sp,268
     4da:	0000                	unimp
     4dc:	0001                	nop
     4de:	005c                	addi	a5,sp,4
     4e0:	0000                	unimp
     4e2:	0000                	unimp
     4e4:	0000                	unimp
     4e6:	5000                	lw	s0,32(s0)
     4e8:	0002                	c.slli64	zero
     4ea:	5400                	lw	s0,40(s0)
     4ec:	0002                	c.slli64	zero
     4ee:	0600                	addi	s0,sp,768
     4f0:	0c00                	addi	s0,sp,528
     4f2:	0064                	addi	s1,sp,12
     4f4:	2000                	fld	fs0,0(s0)
     4f6:	009f 0000 0000      	0x9f
     4fc:	0000                	unimp
     4fe:	3400                	fld	fs0,40(s0)
     500:	0002                	c.slli64	zero
     502:	3800                	fld	fs0,48(s0)
     504:	0002                	c.slli64	zero
     506:	0600                	addi	s0,sp,768
     508:	0c00                	addi	s0,sp,528
     50a:	006c                	addi	a1,sp,12
     50c:	2000                	fld	fs0,0(s0)
     50e:	009f 0000 0000      	0x9f
     514:	0000                	unimp
     516:	a000                	fsd	fs0,0(s0)
     518:	0001                	nop
     51a:	ac00                	fsd	fs0,24(s0)
     51c:	0001                	nop
     51e:	0300                	addi	s0,sp,384
     520:	0900                	addi	s0,sp,144
     522:	9ffe                	add	t6,t6,t6
	...
     52c:	01a0                	addi	s0,sp,200
     52e:	0000                	unimp
     530:	01ac                	addi	a1,sp,200
     532:	0000                	unimp
     534:	0006                	c.slli	zero,0x1
     536:	700c                	flw	fa1,32(s0)
     538:	0000                	unimp
     53a:	9f20                	0x9f20
	...
     544:	01ec                	addi	a1,sp,204
     546:	0000                	unimp
     548:	01fc                	addi	a5,sp,204
     54a:	0000                	unimp
     54c:	0004                	0x4
     54e:	060a                	slli	a2,a2,0x2
     550:	9f01                	0x9f01
	...
     55a:	01ec                	addi	a1,sp,204
     55c:	0000                	unimp
     55e:	01fc                	addi	a5,sp,204
     560:	0000                	unimp
     562:	0006                	c.slli	zero,0x1
     564:	600c                	flw	fa1,0(s0)
     566:	0000                	unimp
     568:	9f20                	0x9f20
	...
     572:	01fc                	addi	a5,sp,204
     574:	0000                	unimp
     576:	0200                	addi	s0,sp,256
     578:	0000                	unimp
     57a:	0006                	c.slli	zero,0x1
     57c:	640c                	flw	fa1,8(s0)
     57e:	0000                	unimp
     580:	9f20                	0x9f20
	...
     58a:	0278                	addi	a4,sp,268
     58c:	0000                	unimp
     58e:	0284                	addi	s1,sp,320
     590:	0000                	unimp
     592:	ff090003          	lb	zero,-16(s2) # 1cff0 <ROM_BASE-0xbffe3010>
     596:	009f 0000 0000      	0x9f
     59c:	0000                	unimp
     59e:	7800                	flw	fs0,48(s0)
     5a0:	0002                	c.slli64	zero
     5a2:	8400                	0x8400
     5a4:	0002                	c.slli64	zero
     5a6:	0600                	addi	s0,sp,768
     5a8:	0c00                	addi	s0,sp,528
     5aa:	0070                	addi	a2,sp,12
     5ac:	2000                	fld	fs0,0(s0)
     5ae:	009f 0000 0000      	0x9f
     5b4:	0000                	unimp
     5b6:	8400                	0x8400
     5b8:	0002                	c.slli64	zero
     5ba:	8c00                	0x8c00
     5bc:	0002                	c.slli64	zero
     5be:	0200                	addi	s0,sp,256
     5c0:	3600                	fld	fs0,40(a2)
     5c2:	009f 0000 0000      	0x9f
     5c8:	0000                	unimp
     5ca:	8400                	0x8400
     5cc:	0002                	c.slli64	zero
     5ce:	8c00                	0x8c00
     5d0:	0002                	c.slli64	zero
     5d2:	0600                	addi	s0,sp,768
     5d4:	0c00                	addi	s0,sp,528
     5d6:	0060                	addi	s0,sp,12
     5d8:	2000                	fld	fs0,0(s0)
     5da:	009f 0000 0000      	0x9f
     5e0:	0000                	unimp
     5e2:	d000                	sw	s0,32(s0)
     5e4:	0000                	unimp
     5e6:	3400                	fld	fs0,40(s0)
     5e8:	0001                	nop
     5ea:	0100                	addi	s0,sp,128
     5ec:	5a00                	lw	s0,48(a2)
     5ee:	0134                	addi	a3,sp,136
     5f0:	0000                	unimp
     5f2:	0160                	addi	s0,sp,140
     5f4:	0000                	unimp
     5f6:	0004                	0x4
     5f8:	9f5a01f3          	0x9f5a01f3
     5fc:	0160                	addi	s0,sp,140
     5fe:	0000                	unimp
     600:	0164                	addi	s1,sp,140
     602:	0000                	unimp
     604:	0001                	nop
     606:	645a                	flw	fs0,148(sp)
     608:	0001                	nop
     60a:	8800                	0x8800
     60c:	0001                	nop
     60e:	0400                	addi	s0,sp,512
     610:	f300                	fsw	fs0,32(a4)
     612:	5a01                	li	s4,-32
     614:	009f 0000 0000      	0x9f
     61a:	0000                	unimp
     61c:	2800                	fld	fs0,16(s0)
     61e:	0001                	nop
     620:	5800                	lw	s0,48(s0)
     622:	0001                	nop
     624:	0100                	addi	s0,sp,128
     626:	5900                	lw	s0,48(a0)
     628:	0160                	addi	s0,sp,140
     62a:	0000                	unimp
     62c:	0188                	addi	a0,sp,192
     62e:	0000                	unimp
     630:	0001                	nop
     632:	0059                	c.nop	22
     634:	0000                	unimp
     636:	0000                	unimp
     638:	0000                	unimp
     63a:	f000                	fsw	fs0,32(s0)
     63c:	0000                	unimp
     63e:	f800                	fsw	fs0,48(s0)
     640:	0000                	unimp
     642:	0200                	addi	s0,sp,256
     644:	3000                	fld	fs0,32(s0)
     646:	f89f 0000 fc00      	0xfc000000f89f
     64c:	0000                	unimp
     64e:	0700                	addi	s0,sp,896
     650:	0a00                	addi	s0,sp,272
     652:	0bb8                	addi	a4,sp,472
     654:	007f                	0x7f
     656:	9f1c                	0x9f1c
     658:	00fc                	addi	a5,sp,76
     65a:	0000                	unimp
     65c:	0100                	addi	s0,sp,128
     65e:	0000                	unimp
     660:	b90a0007          	0xb90a0007
     664:	1c007f0b          	0x1c007f0b
     668:	009f 0001 0c00      	0xc000001009f
     66e:	0001                	nop
     670:	0700                	addi	s0,sp,896
     672:	0a00                	addi	s0,sp,272
     674:	0bb8                	addi	a4,sp,472
     676:	007f                	0x7f
     678:	9f1c                	0x9f1c
	...
     682:	00d0                	addi	a2,sp,68
     684:	0000                	unimp
     686:	00ec                	addi	a1,sp,76
     688:	0000                	unimp
     68a:	fe090003          	lb	zero,-32(s2)
     68e:	009f 0000 0000      	0x9f
     694:	0000                	unimp
     696:	d000                	sw	s0,32(s0)
     698:	0000                	unimp
     69a:	ec00                	fsw	fs0,24(s0)
     69c:	0000                	unimp
     69e:	0600                	addi	s0,sp,768
     6a0:	0c00                	addi	s0,sp,528
     6a2:	0070                	addi	a2,sp,12
     6a4:	2000                	fld	fs0,0(s0)
     6a6:	009f 0000 0000      	0x9f
     6ac:	0000                	unimp
     6ae:	ec00                	fsw	fs0,24(s0)
     6b0:	0000                	unimp
     6b2:	f000                	fsw	fs0,32(s0)
     6b4:	0000                	unimp
     6b6:	0100                	addi	s0,sp,128
     6b8:	5a00                	lw	s0,48(a2)
	...
     6c2:	00ec                	addi	a1,sp,76
     6c4:	0000                	unimp
     6c6:	00f0                	addi	a2,sp,76
     6c8:	0000                	unimp
     6ca:	0006                	c.slli	zero,0x1
     6cc:	680c                	flw	fa1,16(s0)
     6ce:	0000                	unimp
     6d0:	9f20                	0x9f20
	...
     6da:	0104                	addi	s1,sp,128
     6dc:	0000                	unimp
     6de:	0114                	addi	a3,sp,128
     6e0:	0000                	unimp
     6e2:	0004                	0x4
     6e4:	060a                	slli	a2,a2,0x2
     6e6:	9f01                	0x9f01
	...
     6f0:	0104                	addi	s1,sp,128
     6f2:	0000                	unimp
     6f4:	0114                	addi	a3,sp,128
     6f6:	0000                	unimp
     6f8:	0006                	c.slli	zero,0x1
     6fa:	600c                	flw	fa1,0(s0)
     6fc:	0000                	unimp
     6fe:	9f20                	0x9f20
	...
     708:	0114                	addi	a3,sp,128
     70a:	0000                	unimp
     70c:	0118                	addi	a4,sp,128
     70e:	0000                	unimp
     710:	0006                	c.slli	zero,0x1
     712:	640c                	flw	fa1,8(s0)
     714:	0000                	unimp
     716:	9f20                	0x9f20
	...
     720:	0124                	addi	s1,sp,136
     722:	0000                	unimp
     724:	0128                	addi	a0,sp,136
     726:	0000                	unimp
     728:	0006                	c.slli	zero,0x1
     72a:	6c0c                	flw	fa1,24(s0)
     72c:	0000                	unimp
     72e:	9f20                	0x9f20
	...
     738:	0128                	addi	a0,sp,136
     73a:	0000                	unimp
     73c:	012c                	addi	a1,sp,136
     73e:	0000                	unimp
     740:	0006                	c.slli	zero,0x1
     742:	640c                	flw	fa1,8(s0)
     744:	0000                	unimp
     746:	9f20                	0x9f20
	...
     750:	0134                	addi	a3,sp,136
     752:	0000                	unimp
     754:	0148                	addi	a0,sp,132
     756:	0000                	unimp
     758:	ff090003          	lb	zero,-16(s2)
     75c:	009f 0000 0000      	0x9f
     762:	0000                	unimp
     764:	3400                	fld	fs0,40(s0)
     766:	0001                	nop
     768:	4800                	lw	s0,16(s0)
     76a:	0001                	nop
     76c:	0600                	addi	s0,sp,768
     76e:	0c00                	addi	s0,sp,528
     770:	0070                	addi	a2,sp,12
     772:	2000                	fld	fs0,0(s0)
     774:	009f 0000 0000      	0x9f
     77a:	0000                	unimp
     77c:	4800                	lw	s0,16(s0)
     77e:	0001                	nop
     780:	5000                	lw	s0,32(s0)
     782:	0001                	nop
     784:	0200                	addi	s0,sp,256
     786:	3600                	fld	fs0,40(a2)
     788:	009f 0000 0000      	0x9f
     78e:	0000                	unimp
     790:	4800                	lw	s0,16(s0)
     792:	0001                	nop
     794:	5000                	lw	s0,32(s0)
     796:	0001                	nop
     798:	0600                	addi	s0,sp,768
     79a:	0c00                	addi	s0,sp,528
     79c:	0060                	addi	s0,sp,12
     79e:	2000                	fld	fs0,0(s0)
     7a0:	009f 0000 0000      	0x9f
     7a6:	0000                	unimp
     7a8:	6c00                	flw	fs0,24(s0)
     7aa:	0001                	nop
     7ac:	7000                	flw	fs0,32(s0)
     7ae:	0001                	nop
     7b0:	0600                	addi	s0,sp,768
     7b2:	0c00                	addi	s0,sp,528
     7b4:	0064                	addi	s1,sp,12
     7b6:	2000                	fld	fs0,0(s0)
     7b8:	009f 0000 0000      	0x9f
     7be:	0000                	unimp
     7c0:	5800                	lw	s0,48(s0)
     7c2:	0000                	unimp
     7c4:	c000                	sw	s0,0(s0)
     7c6:	0000                	unimp
     7c8:	0100                	addi	s0,sp,128
     7ca:	5900                	lw	s0,48(a0)
	...
     7d4:	0038                	addi	a4,sp,8
     7d6:	0000                	unimp
     7d8:	003c                	addi	a5,sp,8
     7da:	0000                	unimp
     7dc:	0002                	c.slli64	zero
     7de:	9f30                	0x9f30
     7e0:	003c                	addi	a5,sp,8
     7e2:	0000                	unimp
     7e4:	0040                	addi	s0,sp,4
     7e6:	0000                	unimp
     7e8:	0005                	c.nop	1
     7ea:	7f3a                	flw	ft10,172(sp)
     7ec:	1c00                	addi	s0,sp,560
     7ee:	409f 0000 4400      	0x44000000409f
     7f4:	0000                	unimp
     7f6:	0500                	addi	s0,sp,640
     7f8:	3b00                	fld	fs0,48(a4)
     7fa:	007f                	0x7f
     7fc:	9f1c                	0x9f1c
     7fe:	0044                	addi	s1,sp,4
     800:	0000                	unimp
     802:	0050                	addi	a2,sp,4
     804:	0000                	unimp
     806:	0005                	c.nop	1
     808:	7f3a                	flw	ft10,172(sp)
     80a:	1c00                	addi	s0,sp,560
     80c:	009f 0000 0000      	0x9f
     812:	0000                	unimp
     814:	2c00                	fld	fs0,24(s0)
     816:	0000                	unimp
     818:	3800                	fld	fs0,48(s0)
     81a:	0000                	unimp
     81c:	0200                	addi	s0,sp,256
     81e:	3a00                	fld	fs0,48(a2)
     820:	009f 0000 0000      	0x9f
     826:	0000                	unimp
     828:	2c00                	fld	fs0,24(s0)
     82a:	0000                	unimp
     82c:	3800                	fld	fs0,48(s0)
     82e:	0000                	unimp
     830:	0600                	addi	s0,sp,768
     832:	0c00                	addi	s0,sp,528
     834:	0040                	addi	s0,sp,4
     836:	2000                	fld	fs0,0(s0)
     838:	009f 0000 0000      	0x9f
     83e:	0000                	unimp
     840:	4800                	lw	s0,16(s0)
     842:	0000                	unimp
     844:	5400                	lw	s0,40(s0)
     846:	0000                	unimp
     848:	0400                	addi	s0,sp,512
     84a:	0a00                	addi	s0,sp,272
     84c:	0104                	addi	s1,sp,128
     84e:	009f 0000 0000      	0x9f
     854:	0000                	unimp
     856:	4800                	lw	s0,16(s0)
     858:	0000                	unimp
     85a:	5400                	lw	s0,40(s0)
     85c:	0000                	unimp
     85e:	0600                	addi	s0,sp,768
     860:	0c00                	addi	s0,sp,528
     862:	0060                	addi	s0,sp,12
     864:	2000                	fld	fs0,0(s0)
     866:	009f 0000 0000      	0x9f
     86c:	0000                	unimp
     86e:	5400                	lw	s0,40(s0)
     870:	0000                	unimp
     872:	5800                	lw	s0,48(s0)
     874:	0000                	unimp
     876:	0600                	addi	s0,sp,768
     878:	0c00                	addi	s0,sp,528
     87a:	0064                	addi	s1,sp,12
     87c:	2000                	fld	fs0,0(s0)
     87e:	009f 0000 0000      	0x9f
     884:	0000                	unimp
     886:	7c00                	flw	fs0,56(s0)
     888:	0000                	unimp
     88a:	8400                	0x8400
     88c:	0000                	unimp
     88e:	0400                	addi	s0,sp,512
     890:	0a00                	addi	s0,sp,272
     892:	0166                	slli	sp,sp,0x19
     894:	009f 0000 0000      	0x9f
     89a:	0000                	unimp
     89c:	7c00                	flw	fs0,56(s0)
     89e:	0000                	unimp
     8a0:	8400                	0x8400
     8a2:	0000                	unimp
     8a4:	0600                	addi	s0,sp,768
     8a6:	0c00                	addi	s0,sp,528
     8a8:	0060                	addi	s0,sp,12
     8aa:	2000                	fld	fs0,0(s0)
     8ac:	009f 0000 0000      	0x9f
     8b2:	0000                	unimp
     8b4:	8400                	0x8400
     8b6:	0000                	unimp
     8b8:	8800                	0x8800
     8ba:	0000                	unimp
     8bc:	0600                	addi	s0,sp,768
     8be:	0c00                	addi	s0,sp,528
     8c0:	0064                	addi	s1,sp,12
     8c2:	2000                	fld	fs0,0(s0)
     8c4:	009f 0000 0000      	0x9f
     8ca:	0000                	unimp
     8cc:	ac00                	fsd	fs0,24(s0)
     8ce:	0000                	unimp
     8d0:	b400                	fsd	fs0,40(s0)
     8d2:	0000                	unimp
     8d4:	0200                	addi	s0,sp,256
     8d6:	3600                	fld	fs0,40(a2)
     8d8:	009f 0000 0000      	0x9f
     8de:	0000                	unimp
     8e0:	ac00                	fsd	fs0,24(s0)
     8e2:	0000                	unimp
     8e4:	b400                	fsd	fs0,40(s0)
     8e6:	0000                	unimp
     8e8:	0600                	addi	s0,sp,768
     8ea:	0c00                	addi	s0,sp,528
     8ec:	0060                	addi	s0,sp,12
     8ee:	2000                	fld	fs0,0(s0)
     8f0:	009f 0000 0000      	0x9f
     8f6:	0000                	unimp
     8f8:	0800                	addi	s0,sp,16
     8fa:	0000                	unimp
     8fc:	0c00                	addi	s0,sp,528
     8fe:	0000                	unimp
     900:	0100                	addi	s0,sp,128
     902:	5a00                	lw	s0,48(a2)
     904:	000c                	0xc
     906:	0000                	unimp
     908:	0010                	0x10
     90a:	0000                	unimp
     90c:	0004                	0x4
     90e:	9f5a01f3          	0x9f5a01f3
	...
     91a:	056c                	addi	a1,sp,652
     91c:	0000                	unimp
     91e:	05c8                	addi	a0,sp,708
     920:	0000                	unimp
     922:	0001                	nop
     924:	c85a                	sw	s6,16(sp)
     926:	0005                	c.nop	1
     928:	ec00                	fsw	fs0,24(s0)
     92a:	0005                	c.nop	1
     92c:	0100                	addi	s0,sp,128
     92e:	6800                	flw	fs0,16(s0)
     930:	05ec                	addi	a1,sp,716
     932:	0000                	unimp
     934:	07a0                	addi	s0,sp,968
     936:	0000                	unimp
     938:	0004                	0x4
     93a:	9f5a01f3          	0x9f5a01f3
     93e:	07a0                	addi	s0,sp,968
     940:	0000                	unimp
     942:	07c8                	addi	a0,sp,964
     944:	0000                	unimp
     946:	0001                	nop
     948:	0068                	addi	a0,sp,12
     94a:	0000                	unimp
     94c:	0000                	unimp
     94e:	0000                	unimp
     950:	6c00                	flw	fs0,24(s0)
     952:	0005                	c.nop	1
     954:	cb00                	sw	s0,16(a4)
     956:	0005                	c.nop	1
     958:	0100                	addi	s0,sp,128
     95a:	5b00                	lw	s0,48(a4)
     95c:	000005cb          	fnmsub.s	fa1,ft0,ft0,ft0,rne
     960:	07c8                	addi	a0,sp,964
     962:	0000                	unimp
     964:	0004                	0x4
     966:	9f5b01f3          	0x9f5b01f3
	...
     972:	056c                	addi	a1,sp,652
     974:	0000                	unimp
     976:	05c4                	addi	s1,sp,708
     978:	0000                	unimp
     97a:	0001                	nop
     97c:	c45c                	sw	a5,12(s0)
     97e:	0005                	c.nop	1
     980:	7c00                	flw	fs0,56(s0)
     982:	01000007          	0x1000007
     986:	6300                	flw	fs0,0(a4)
     988:	077c                	addi	a5,sp,908
     98a:	0000                	unimp
     98c:	07a0                	addi	s0,sp,968
     98e:	0000                	unimp
     990:	0004                	0x4
     992:	9f5c01f3          	0x9f5c01f3
     996:	07a0                	addi	s0,sp,968
     998:	0000                	unimp
     99a:	07c8                	addi	a0,sp,964
     99c:	0000                	unimp
     99e:	0001                	nop
     9a0:	00000063          	beqz	zero,9a0 <ROM_BASE-0xbffff660>
     9a4:	0000                	unimp
     9a6:	0000                	unimp
     9a8:	6c00                	flw	fs0,24(s0)
     9aa:	0005                	c.nop	1
     9ac:	c800                	sw	s0,16(s0)
     9ae:	0005                	c.nop	1
     9b0:	0100                	addi	s0,sp,128
     9b2:	5a00                	lw	s0,48(a2)
     9b4:	05c8                	addi	a0,sp,708
     9b6:	0000                	unimp
     9b8:	05ec                	addi	a1,sp,716
     9ba:	0000                	unimp
     9bc:	0001                	nop
     9be:	0868                	addi	a0,sp,28
     9c0:	0006                	c.slli	zero,0x1
     9c2:	6400                	flw	fs0,8(s0)
     9c4:	01000007          	0x1000007
     9c8:	5900                	lw	s0,48(a0)
     9ca:	07a0                	addi	s0,sp,968
     9cc:	0000                	unimp
     9ce:	07c8                	addi	a0,sp,964
     9d0:	0000                	unimp
     9d2:	0001                	nop
     9d4:	0068                	addi	a0,sp,12
     9d6:	0000                	unimp
     9d8:	0000                	unimp
     9da:	0000                	unimp
     9dc:	a800                	fsd	fs0,16(s0)
     9de:	0005                	c.nop	1
     9e0:	c400                	sw	s0,8(s0)
     9e2:	0005                	c.nop	1
     9e4:	0100                	addi	s0,sp,128
     9e6:	5c00                	lw	s0,56(s0)
     9e8:	05c4                	addi	s1,sp,708
     9ea:	0000                	unimp
     9ec:	05ec                	addi	a1,sp,716
     9ee:	0000                	unimp
     9f0:	0001                	nop
     9f2:	0005ec63          	bltu	a1,zero,a0a <ROM_BASE-0xbffff5f6>
     9f6:	8400                	0x8400
     9f8:	01000007          	0x1000007
     9fc:	6500                	flw	fs0,8(a0)
     9fe:	07a0                	addi	s0,sp,968
     a00:	0000                	unimp
     a02:	07c8                	addi	a0,sp,964
     a04:	0000                	unimp
     a06:	0001                	nop
     a08:	00000063          	beqz	zero,a08 <ROM_BASE-0xbffff5f8>
     a0c:	0000                	unimp
     a0e:	0000                	unimp
     a10:	a800                	fsd	fs0,16(s0)
     a12:	0005                	c.nop	1
     a14:	3c00                	fld	fs0,56(s0)
     a16:	02000007          	0x2000007
     a1a:	3000                	fld	fs0,32(s0)
     a1c:	3c9f 0007 4000      	0x400000073c9f
     a22:	03000007          	0x3000007
     a26:	0900                	addi	s0,sp,144
     a28:	9ffe                	add	t6,t6,t6
     a2a:	0740                	addi	s0,sp,900
     a2c:	0000                	unimp
     a2e:	0764                	addi	s1,sp,908
     a30:	0000                	unimp
     a32:	0001                	nop
     a34:	a058                	fsd	fa4,128(s0)
     a36:	c8000007          	0xc8000007
     a3a:	02000007          	0x2000007
     a3e:	3000                	fld	fs0,32(s0)
     a40:	009f 0000 0000      	0x9f
     a46:	0000                	unimp
     a48:	a800                	fsd	fs0,16(s0)
     a4a:	0005                	c.nop	1
     a4c:	b400                	fsd	fs0,40(s0)
     a4e:	0005                	c.nop	1
     a50:	0200                	addi	s0,sp,256
     a52:	3000                	fld	fs0,32(s0)
     a54:	b49f 0005 b800      	0xb8000005b49f
     a5a:	0005                	c.nop	1
     a5c:	0900                	addi	s0,sp,144
     a5e:	7f00                	flw	fs0,56(a4)
     a60:	9100                	0x9100
     a62:	1c00                	addi	s0,sp,560
     a64:	9f01b023          	0x9f01b023
     a68:	05b8                	addi	a4,sp,712
     a6a:	0000                	unimp
     a6c:	05bc                	addi	a5,sp,712
     a6e:	0000                	unimp
     a70:	0009                	c.nop	2
     a72:	007f                	0x7f
     a74:	0091                	addi	ra,ra,4
     a76:	231c                	fld	fa5,0(a4)
     a78:	01b1                	addi	gp,gp,12
     a7a:	bc9f 0005 cb00      	0xcb000005bc9f
     a80:	0005                	c.nop	1
     a82:	0900                	addi	s0,sp,144
     a84:	7f00                	flw	fs0,56(a4)
     a86:	9100                	0x9100
     a88:	1c00                	addi	s0,sp,560
     a8a:	9f01b023          	0x9f01b023
	...
     a96:	07a4                	addi	s1,sp,968
     a98:	0000                	unimp
     a9a:	07a8                	addi	a0,sp,968
     a9c:	0000                	unimp
     a9e:	0005                	c.nop	1
     aa0:	7838                	flw	fa4,112(s0)
     aa2:	1c00                	addi	s0,sp,560
     aa4:	a89f 0007 b000      	0xb0000007a89f
     aaa:	05000007          	0x5000007
     aae:	3700                	fld	fs0,40(a4)
     ab0:	0078                	addi	a4,sp,12
     ab2:	9f1c                	0x9f1c
	...
     abc:	0608                	addi	a0,sp,768
     abe:	0000                	unimp
     ac0:	0658                	addi	a4,sp,772
     ac2:	0000                	unimp
     ac4:	0001                	nop
     ac6:	a058                	fsd	fa4,128(s0)
     ac8:	0006                	c.slli	zero,0x1
     aca:	0000                	unimp
     acc:	01000007          	0x1000007
     ad0:	5800                	lw	s0,48(s0)
     ad2:	0704                	addi	s1,sp,896
     ad4:	0000                	unimp
     ad6:	0740                	addi	s0,sp,900
     ad8:	0000                	unimp
     ada:	0001                	nop
     adc:	0058                	addi	a4,sp,4
     ade:	0000                	unimp
     ae0:	0000                	unimp
     ae2:	0000                	unimp
     ae4:	dc00                	sw	s0,56(s0)
     ae6:	0006                	c.slli	zero,0x1
     ae8:	f400                	fsw	fs0,40(s0)
     aea:	0006                	c.slli	zero,0x1
     aec:	0900                	addi	s0,sp,144
     aee:	7a00                	flw	fs0,48(a2)
     af0:	0800                	addi	s0,sp,16
     af2:	1aff                	0x1aff
     af4:	0082                	c.slli64	ra
     af6:	9f21                	0x9f21
     af8:	0704                	addi	s1,sp,896
     afa:	0000                	unimp
     afc:	0708                	addi	a0,sp,896
     afe:	0000                	unimp
     b00:	0009                	c.nop	2
     b02:	007a                	c.slli	zero,0x1e
     b04:	ff08                	fsw	fa0,56(a4)
     b06:	821a                	mv	tp,t1
     b08:	2100                	fld	fs0,0(a0)
     b0a:	309f 0007 4000      	0x40000007309f
     b10:	09000007          	0x9000007
     b14:	7a00                	flw	fs0,48(a2)
     b16:	0800                	addi	s0,sp,16
     b18:	1aff                	0x1aff
     b1a:	0082                	c.slli64	ra
     b1c:	9f21                	0x9f21
	...
     b26:	0608                	addi	a0,sp,768
     b28:	0000                	unimp
     b2a:	06b0                	addi	a2,sp,840
     b2c:	0000                	unimp
     b2e:	0006                	c.slli	zero,0x1
     b30:	0082                	c.slli64	ra
     b32:	0079                	c.nop	30
     b34:	9f1c                	0x9f1c
     b36:	06b0                	addi	a2,sp,840
     b38:	0000                	unimp
     b3a:	0764                	addi	s1,sp,908
     b3c:	0000                	unimp
     b3e:	0004                	0x4
     b40:	000a                	c.slli	zero,0x2
     b42:	9f02                	jalr	t5
	...
     b4c:	0608                	addi	a0,sp,768
     b4e:	0000                	unimp
     b50:	0764                	addi	s1,sp,908
     b52:	0000                	unimp
     b54:	40080003          	lb	zero,1024(a6) # ffff9400 <_BSS_END_+0x3fff80c0>
     b58:	009f 0000 0000      	0x9f
     b5e:	0000                	unimp
     b60:	4c00                	lw	s0,24(s0)
     b62:	0006                	c.slli	zero,0x1
     b64:	9c00                	0x9c00
     b66:	0006                	c.slli	zero,0x1
     b68:	0600                	addi	s0,sp,768
     b6a:	8a00                	0x8a00
     b6c:	7900                	flw	fs0,48(a0)
     b6e:	1c00                	addi	s0,sp,560
     b70:	9c9f 0006 a000      	0xa00000069c9f
     b76:	0006                	c.slli	zero,0x1
     b78:	0700                	addi	s0,sp,896
     b7a:	7900                	flw	fs0,48(a0)
     b7c:	2000                	fld	fs0,0(s0)
     b7e:	008a                	slli	ra,ra,0x2
     b80:	9f22                	add	t5,t5,s0
	...
     b8a:	065c                	addi	a5,sp,772
     b8c:	0000                	unimp
     b8e:	0668                	addi	a0,sp,780
     b90:	0000                	unimp
     b92:	0001                	nop
     b94:	005f 0000 0000      	0x5f
     b9a:	0000                	unimp
     b9c:	6c00                	flw	fs0,24(s0)
     b9e:	0006                	c.slli	zero,0x1
     ba0:	7800                	flw	fs0,48(s0)
     ba2:	0006                	c.slli	zero,0x1
     ba4:	0100                	addi	s0,sp,128
     ba6:	5f00                	lw	s0,56(a4)
     ba8:	0678                	addi	a4,sp,780
     baa:	0000                	unimp
     bac:	0694                	addi	a3,sp,832
     bae:	0000                	unimp
     bb0:	0001                	nop
     bb2:	0058                	addi	a4,sp,4
     bb4:	0000                	unimp
     bb6:	0000                	unimp
     bb8:	0000                	unimp
     bba:	f800                	fsw	fs0,48(s0)
     bbc:	fc000003          	lb	zero,-64(zero) # ffffffc0 <_BSS_END_+0x3fffec80>
     bc0:	02000003          	lb	zero,32(zero) # 20 <ROM_BASE-0xbfffffe0>
     bc4:	3000                	fld	fs0,32(s0)
     bc6:	fc9f 0003 0000      	0x3fc9f
     bcc:	0004                	0x4
     bce:	0500                	addi	s0,sp,640
     bd0:	3a00                	fld	fs0,48(a2)
     bd2:	0078                	addi	a4,sp,12
     bd4:	9f1c                	0x9f1c
     bd6:	0400                	addi	s0,sp,512
     bd8:	0000                	unimp
     bda:	0408                	addi	a0,sp,512
     bdc:	0000                	unimp
     bde:	0005                	c.nop	1
     be0:	7839                	lui	a6,0xfffee
     be2:	1c00                	addi	s0,sp,560
     be4:	009f 0000 0000      	0x9f
     bea:	0000                	unimp
     bec:	0c00                	addi	s0,sp,528
     bee:	0004                	0x4
     bf0:	2c00                	fld	fs0,24(s0)
     bf2:	0004                	0x4
     bf4:	0400                	addi	s0,sp,512
     bf6:	0a00                	addi	s0,sp,272
     bf8:	2710                	fld	fa2,8(a4)
     bfa:	2c9f 0004 3800      	0x380000042c9f
     c00:	0004                	0x4
     c02:	0400                	addi	s0,sp,512
     c04:	0a00                	addi	s0,sp,272
     c06:	389f270f          	0x389f270f
     c0a:	0004                	0x4
     c0c:	4800                	lw	s0,16(s0)
     c0e:	0004                	0x4
     c10:	0300                	addi	s0,sp,384
     c12:	7900                	flw	fs0,48(a0)
     c14:	9f01                	0x9f01
     c16:	044c                	addi	a1,sp,516
     c18:	0000                	unimp
     c1a:	045c                	addi	a5,sp,516
     c1c:	0000                	unimp
     c1e:	0001                	nop
     c20:	5c59                	li	s8,-10
     c22:	0004                	0x4
     c24:	9800                	0x9800
     c26:	0004                	0x4
     c28:	0300                	addi	s0,sp,384
     c2a:	7900                	flw	fs0,48(a0)
     c2c:	9f01                	0x9f01
	...
     c36:	040c                	addi	a1,sp,512
     c38:	0000                	unimp
     c3a:	0428                	addi	a0,sp,520
     c3c:	0000                	unimp
     c3e:	ff090003          	lb	zero,-16(s2)
     c42:	289f 0004 4000      	0x40000004289f
     c48:	0004                	0x4
     c4a:	0100                	addi	s0,sp,128
     c4c:	5800                	lw	s0,48(s0)
     c4e:	0444                	addi	s1,sp,516
     c50:	0000                	unimp
     c52:	0498                	addi	a4,sp,576
     c54:	0000                	unimp
     c56:	0001                	nop
     c58:	c858                	sw	a4,20(s0)
     c5a:	0004                	0x4
     c5c:	d000                	sw	s0,32(s0)
     c5e:	0004                	0x4
     c60:	0100                	addi	s0,sp,128
     c62:	5800                	lw	s0,48(s0)
	...
     c6c:	0460                	addi	s0,sp,524
     c6e:	0000                	unimp
     c70:	0498                	addi	a4,sp,576
     c72:	0000                	unimp
     c74:	0002                	c.slli64	zero
     c76:	9f31                	0x9f31
	...
     c80:	0460                	addi	s0,sp,524
     c82:	0000                	unimp
     c84:	0498                	addi	a4,sp,576
     c86:	0000                	unimp
     c88:	0006                	c.slli	zero,0x1
     c8a:	00109c03          	lh	s8,1(ra)
     c8e:	9fc0                	0x9fc0
	...
     c98:	0380                	addi	s0,sp,448
     c9a:	0000                	unimp
     c9c:	03c8                	addi	a0,sp,452
     c9e:	0000                	unimp
     ca0:	0001                	nop
     ca2:	0058                	addi	a4,sp,4
     ca4:	0000                	unimp
     ca6:	0000                	unimp
     ca8:	0000                	unimp
     caa:	2800                	fld	fs0,16(s0)
     cac:	64000003          	lb	zero,1600(zero) # 640 <ROM_BASE-0xbffff9c0>
     cb0:	01000003          	lb	zero,16(zero) # 10 <ROM_BASE-0xbffffff0>
     cb4:	5800                	lw	s0,48(s0)
	...
     cbe:	032c                	addi	a1,sp,392
     cc0:	0000                	unimp
     cc2:	0364                	addi	s1,sp,396
     cc4:	0000                	unimp
     cc6:	0001                	nop
     cc8:	0058                	addi	a4,sp,4
     cca:	0000                	unimp
     ccc:	0000                	unimp
     cce:	0000                	unimp
     cd0:	2c00                	fld	fs0,24(s0)
     cd2:	64000003          	lb	zero,1600(zero) # 640 <ROM_BASE-0xbffff9c0>
     cd6:	06000003          	lb	zero,96(zero) # 60 <ROM_BASE-0xbfffffa0>
     cda:	0300                	addi	s0,sp,384
     cdc:	10a4                	addi	s1,sp,104
     cde:	c000                	sw	s0,0(s0)
     ce0:	009f 0000 0000      	0x9f
     ce6:	0000                	unimp
     ce8:	8000                	0x8000
     cea:	b0000003          	lb	zero,-1280(zero) # fffffb00 <_BSS_END_+0x3fffe7c0>
     cee:	01000003          	lb	zero,16(zero) # 10 <ROM_BASE-0xbffffff0>
     cf2:	5800                	lw	s0,48(s0)
	...
     cfc:	0380                	addi	s0,sp,448
     cfe:	0000                	unimp
     d00:	03b0                	addi	a2,sp,456
     d02:	0000                	unimp
     d04:	0006                	c.slli	zero,0x1
     d06:	0010ac03          	lw	s8,1(ra)
     d0a:	9fc0                	0x9fc0
	...
     d14:	0204                	addi	s1,sp,256
     d16:	0000                	unimp
     d18:	024c                	addi	a1,sp,260
     d1a:	0000                	unimp
     d1c:	0001                	nop
     d1e:	5c58                	lw	a4,60(s0)
     d20:	0002                	c.slli64	zero
     d22:	6c00                	flw	fs0,24(s0)
     d24:	0002                	c.slli64	zero
     d26:	0100                	addi	s0,sp,128
     d28:	5800                	lw	s0,48(s0)
	...
     d32:	0220                	addi	s0,sp,264
     d34:	0000                	unimp
     d36:	0250                	addi	a2,sp,260
     d38:	0000                	unimp
     d3a:	0001                	nop
     d3c:	5c59                	li	s8,-10
     d3e:	0002                	c.slli64	zero
     d40:	7400                	flw	fs0,40(s0)
     d42:	0002                	c.slli64	zero
     d44:	0100                	addi	s0,sp,128
     d46:	5900                	lw	s0,48(a0)
	...
     d50:	022c                	addi	a1,sp,264
     d52:	0000                	unimp
     d54:	0254                	addi	a3,sp,260
     d56:	0000                	unimp
     d58:	0001                	nop
     d5a:	5c62                	lw	s8,56(sp)
     d5c:	0002                	c.slli64	zero
     d5e:	7800                	flw	fs0,48(s0)
     d60:	0002                	c.slli64	zero
     d62:	0100                	addi	s0,sp,128
     d64:	6200                	flw	fs0,0(a2)
	...
     d6e:	0008                	0x8
     d70:	0000                	unimp
     d72:	0018                	0x18
     d74:	0000                	unimp
     d76:	0001                	nop
     d78:	185a                	slli	a6,a6,0x36
     d7a:	0000                	unimp
     d7c:	a400                	fsd	fs0,8(s0)
     d7e:	0000                	unimp
     d80:	0400                	addi	s0,sp,512
     d82:	f300                	fsw	fs0,32(a4)
     d84:	5a01                	li	s4,-32
     d86:	009f 0000 0000      	0x9f
     d8c:	0000                	unimp
     d8e:	0800                	addi	s0,sp,16
     d90:	0000                	unimp
     d92:	2f00                	fld	fs0,24(a4)
     d94:	0000                	unimp
     d96:	0100                	addi	s0,sp,128
     d98:	5b00                	lw	s0,48(a4)
     d9a:	0000002f          	0x2f
     d9e:	006c                	addi	a1,sp,12
     da0:	0000                	unimp
     da2:	0001                	nop
     da4:	6c58                	flw	fa4,28(s0)
     da6:	0000                	unimp
     da8:	a400                	fsd	fs0,8(s0)
     daa:	0000                	unimp
     dac:	0400                	addi	s0,sp,512
     dae:	f300                	fsw	fs0,32(a4)
     db0:	5b01                	li	s6,-32
     db2:	009f 0000 0000      	0x9f
     db8:	0000                	unimp
     dba:	0800                	addi	s0,sp,16
     dbc:	0000                	unimp
     dbe:	2f00                	fld	fs0,24(a4)
     dc0:	0000                	unimp
     dc2:	0100                	addi	s0,sp,128
     dc4:	5c00                	lw	s0,56(s0)
     dc6:	0000002f          	0x2f
     dca:	00a4                	addi	s1,sp,72
     dcc:	0000                	unimp
     dce:	0004                	0x4
     dd0:	9f5c01f3          	0x9f5c01f3
	...
     ddc:	0068                	addi	a0,sp,12
     dde:	0000                	unimp
     de0:	0070                	addi	a2,sp,12
     de2:	0000                	unimp
     de4:	64080003          	lb	zero,1600(a6) # fffee640 <_BSS_END_+0x3ffed300>
     de8:	709f 0000 7c00      	0x7c000000709f
     dee:	0000                	unimp
     df0:	0100                	addi	s0,sp,128
     df2:	5800                	lw	s0,48(s0)
     df4:	007c                	addi	a5,sp,12
     df6:	0000                	unimp
     df8:	0088                	addi	a0,sp,64
     dfa:	0000                	unimp
     dfc:	7f780003          	lb	zero,2039(a6)
     e00:	889f 0000 9400      	0x94000000889f
     e06:	0000                	unimp
     e08:	0100                	addi	s0,sp,128
     e0a:	5800                	lw	s0,48(s0)
	...
     e14:	0070                	addi	a2,sp,12
     e16:	0000                	unimp
     e18:	0074                	addi	a3,sp,12
     e1a:	0000                	unimp
     e1c:	0001                	nop
     e1e:	7c5a                	flw	fs8,180(sp)
     e20:	0000                	unimp
     e22:	a400                	fsd	fs0,8(s0)
     e24:	0000                	unimp
     e26:	0100                	addi	s0,sp,128
     e28:	5a00                	lw	s0,48(a2)
	...
     e32:	00a4                	addi	s1,sp,72
     e34:	0000                	unimp
     e36:	00b4                	addi	a3,sp,72
     e38:	0000                	unimp
     e3a:	0001                	nop
     e3c:	b45a                	fsd	fs6,40(sp)
     e3e:	0000                	unimp
     e40:	f000                	fsw	fs0,32(s0)
     e42:	0000                	unimp
     e44:	0100                	addi	s0,sp,128
     e46:	5900                	lw	s0,48(a0)
     e48:	00f0                	addi	a2,sp,76
     e4a:	0000                	unimp
     e4c:	0100                	addi	s0,sp,128
     e4e:	0000                	unimp
     e50:	0004                	0x4
     e52:	9f5a01f3          	0x9f5a01f3
	...
     e5e:	00a4                	addi	s1,sp,72
     e60:	0000                	unimp
     e62:	000000c7          	fmsub.s	ft1,ft0,ft0,ft0,rne
     e66:	0001                	nop
     e68:	0000c75b          	0xc75b
     e6c:	0000                	unimp
     e6e:	0001                	nop
     e70:	0400                	addi	s0,sp,512
     e72:	f300                	fsw	fs0,32(a4)
     e74:	5b01                	li	s6,-32
     e76:	009f 0000 0000      	0x9f
     e7c:	0000                	unimp
     e7e:	0000                	unimp
     e80:	0001                	nop
     e82:	3400                	fld	fs0,40(s0)
     e84:	0001                	nop
     e86:	0400                	addi	s0,sp,512
     e88:	0a00                	addi	s0,sp,272
     e8a:	2710                	fld	fa2,8(a4)
     e8c:	349f 0001 4000      	0x40000001349f
     e92:	0001                	nop
     e94:	0400                	addi	s0,sp,512
     e96:	0a00                	addi	s0,sp,272
     e98:	409f270f          	0x409f270f
     e9c:	0001                	nop
     e9e:	5000                	lw	s0,32(s0)
     ea0:	0001                	nop
     ea2:	0300                	addi	s0,sp,384
     ea4:	7900                	flw	fs0,48(a0)
     ea6:	9f01                	0x9f01
     ea8:	0154                	addi	a3,sp,132
     eaa:	0000                	unimp
     eac:	0164                	addi	s1,sp,140
     eae:	0000                	unimp
     eb0:	0001                	nop
     eb2:	6459                	lui	s0,0x16
     eb4:	0001                	nop
     eb6:	ac00                	fsd	fs0,24(s0)
     eb8:	0001                	nop
     eba:	0300                	addi	s0,sp,384
     ebc:	7900                	flw	fs0,48(a0)
     ebe:	9f01                	0x9f01
	...
     ec8:	0100                	addi	s0,sp,128
     eca:	0000                	unimp
     ecc:	0130                	addi	a2,sp,136
     ece:	0000                	unimp
     ed0:	ff090003          	lb	zero,-16(s2)
     ed4:	309f 0001 4800      	0x48000001309f
     eda:	0001                	nop
     edc:	0100                	addi	s0,sp,128
     ede:	5800                	lw	s0,48(s0)
     ee0:	014c                	addi	a1,sp,132
     ee2:	0000                	unimp
     ee4:	01a8                	addi	a0,sp,200
     ee6:	0000                	unimp
     ee8:	0001                	nop
     eea:	bc58                	fsd	fa4,184(s0)
     eec:	0001                	nop
     eee:	c400                	sw	s0,8(s0)
     ef0:	0001                	nop
     ef2:	0100                	addi	s0,sp,128
     ef4:	5800                	lw	s0,48(s0)
	...
     efe:	0168                	addi	a0,sp,140
     f00:	0000                	unimp
     f02:	01bc                	addi	a5,sp,200
     f04:	0000                	unimp
     f06:	0002                	c.slli64	zero
     f08:	9f31                	0x9f31
	...
     f12:	0168                	addi	a0,sp,140
     f14:	0000                	unimp
     f16:	01bc                	addi	a5,sp,200
     f18:	0000                	unimp
     f1a:	0006                	c.slli	zero,0x1
     f1c:	00109c03          	lh	s8,1(ra)
     f20:	9fc0                	0x9fc0
	...
     f2a:	02a8                	addi	a0,sp,328
     f2c:	0000                	unimp
     f2e:	02f0                	addi	a2,sp,332
     f30:	0000                	unimp
     f32:	0001                	nop
     f34:	0058                	addi	a4,sp,4
     f36:	0000                	unimp
     f38:	0000                	unimp
     f3a:	0000                	unimp
     f3c:	ac00                	fsd	fs0,24(s0)
     f3e:	0002                	c.slli64	zero
     f40:	e400                	fsw	fs0,8(s0)
     f42:	0002                	c.slli64	zero
     f44:	0100                	addi	s0,sp,128
     f46:	5800                	lw	s0,48(s0)
	...
     f50:	02ac                	addi	a1,sp,328
     f52:	0000                	unimp
     f54:	02e4                	addi	s1,sp,332
     f56:	0000                	unimp
     f58:	0006                	c.slli	zero,0x1
     f5a:	0010a403          	lw	s0,1(ra)
     f5e:	9fc0                	0x9fc0
	...
     f68:	04f4                	addi	a3,sp,588
     f6a:	0000                	unimp
     f6c:	0500                	addi	s0,sp,640
     f6e:	0000                	unimp
     f70:	0001                	nop
     f72:	005a                	c.slli	zero,0x16
     f74:	0005                	c.nop	1
     f76:	1800                	addi	s0,sp,48
     f78:	0005                	c.nop	1
     f7a:	0400                	addi	s0,sp,512
     f7c:	f300                	fsw	fs0,32(a4)
     f7e:	5a01                	li	s4,-32
     f80:	009f 0000 0000      	0x9f
     f86:	0000                	unimp
     f88:	f400                	fsw	fs0,40(s0)
     f8a:	0004                	0x4
     f8c:	f800                	fsw	fs0,48(s0)
     f8e:	0004                	0x4
     f90:	0100                	addi	s0,sp,128
     f92:	5b00                	lw	s0,48(a4)
     f94:	04f8                	addi	a4,sp,588
     f96:	0000                	unimp
     f98:	0518                	addi	a4,sp,640
     f9a:	0000                	unimp
     f9c:	0004                	0x4
     f9e:	9f5b01f3          	0x9f5b01f3
	...
     faa:	04f8                	addi	a4,sp,588
     fac:	0000                	unimp
     fae:	0508                	addi	a0,sp,640
     fb0:	0000                	unimp
     fb2:	0001                	nop
     fb4:	0005085b          	0x5085b
     fb8:	1400                	addi	s0,sp,544
     fba:	0005                	c.nop	1
     fbc:	0100                	addi	s0,sp,128
     fbe:	5a00                	lw	s0,48(a2)
	...
     fc8:	0518                	addi	a4,sp,640
     fca:	0000                	unimp
     fcc:	0520                	addi	s0,sp,648
     fce:	0000                	unimp
     fd0:	0001                	nop
     fd2:	205a                	fld	ft0,400(sp)
     fd4:	0005                	c.nop	1
     fd6:	2c00                	fld	fs0,24(s0)
     fd8:	0005                	c.nop	1
     fda:	0400                	addi	s0,sp,512
     fdc:	f300                	fsw	fs0,32(a4)
     fde:	5a01                	li	s4,-32
     fe0:	2c9f 0005 3000      	0x300000052c9f
     fe6:	0005                	c.nop	1
     fe8:	0100                	addi	s0,sp,128
     fea:	5a00                	lw	s0,48(a2)
     fec:	0530                	addi	a2,sp,648
     fee:	0000                	unimp
     ff0:	053c                	addi	a5,sp,648
     ff2:	0000                	unimp
     ff4:	0001                	nop
     ff6:	00053c5b          	0x53c5b
     ffa:	6400                	flw	fs0,8(s0)
     ffc:	0005                	c.nop	1
     ffe:	0100                	addi	s0,sp,128
    1000:	5a00                	lw	s0,48(a2)
	...
    100a:	0518                	addi	a4,sp,640
    100c:	0000                	unimp
    100e:	0530                	addi	a2,sp,648
    1010:	0000                	unimp
    1012:	0001                	nop
    1014:	0005305b          	0x5305b
    1018:	6c00                	flw	fs0,24(s0)
    101a:	0005                	c.nop	1
    101c:	0400                	addi	s0,sp,512
    101e:	f300                	fsw	fs0,32(a4)
    1020:	5b01                	li	s6,-32
    1022:	009f 0000 0000      	0x9f
    1028:	0000                	unimp
    102a:	0000                	unimp
    102c:	0000                	unimp
    102e:	3700                	fld	fs0,40(a4)
    1030:	0000                	unimp
    1032:	0100                	addi	s0,sp,128
    1034:	5a00                	lw	s0,48(a2)
    1036:	00000037          	lui	zero,0x0
    103a:	02c8                	addi	a0,sp,324
    103c:	0000                	unimp
    103e:	0001                	nop
    1040:	0002c867          	0x2c867
    1044:	d400                	sw	s0,40(s0)
    1046:	0002                	c.slli64	zero
    1048:	0400                	addi	s0,sp,512
    104a:	f300                	fsw	fs0,32(a4)
    104c:	5a01                	li	s4,-32
    104e:	d49f 0002 9000      	0x90000002d49f
    1054:	01000003          	lb	zero,16(zero) # 10 <ROM_BASE-0xbffffff0>
    1058:	6700                	flw	fs0,8(a4)
	...
    1066:	00000037          	lui	zero,0x0
    106a:	0001                	nop
    106c:	0000375b          	0x375b
    1070:	9000                	0x9000
    1072:	04000003          	lb	zero,64(zero) # 40 <ROM_BASE-0xbfffffc0>
    1076:	f300                	fsw	fs0,32(a4)
    1078:	5b01                	li	s6,-32
    107a:	009f 0000 0000      	0x9f
    1080:	0000                	unimp
    1082:	3800                	fld	fs0,48(s0)
    1084:	0000                	unimp
    1086:	4000                	lw	s0,0(s0)
    1088:	0000                	unimp
    108a:	0100                	addi	s0,sp,128
    108c:	5a00                	lw	s0,48(a2)
    108e:	02d4                	addi	a3,sp,324
    1090:	0000                	unimp
    1092:	02d8                	addi	a4,sp,324
    1094:	0000                	unimp
    1096:	0001                	nop
    1098:	005a                	c.slli	zero,0x16
    109a:	0000                	unimp
    109c:	0000                	unimp
    109e:	0000                	unimp
    10a0:	4800                	lw	s0,16(s0)
    10a2:	0000                	unimp
    10a4:	9c00                	0x9c00
    10a6:	0002                	c.slli64	zero
    10a8:	0400                	addi	s0,sp,512
    10aa:	0a00                	addi	s0,sp,272
    10ac:	0200                	addi	s0,sp,256
    10ae:	e89f 0002 9000      	0x90000002e89f
    10b4:	04000003          	lb	zero,64(zero) # 40 <ROM_BASE-0xbfffffc0>
    10b8:	0a00                	addi	s0,sp,272
    10ba:	0200                	addi	s0,sp,256
    10bc:	009f 0000 0000      	0x9f
    10c2:	0000                	unimp
    10c4:	6000                	flw	fs0,0(s0)
    10c6:	0000                	unimp
    10c8:	6000                	flw	fs0,0(s0)
    10ca:	0001                	nop
    10cc:	0200                	addi	s0,sp,256
    10ce:	7200                	flw	fs0,32(a2)
    10d0:	6000                	flw	fs0,0(s0)
    10d2:	0001                	nop
    10d4:	7c00                	flw	fs0,56(s0)
    10d6:	0001                	nop
    10d8:	0200                	addi	s0,sp,256
    10da:	8200                	0x8200
    10dc:	2000                	fld	fs0,0(s0)
    10de:	58000003          	lb	zero,1408(zero) # 580 <ROM_BASE-0xbffffa80>
    10e2:	02000003          	lb	zero,32(zero) # 20 <ROM_BASE-0xbfffffe0>
    10e6:	8200                	0x8200
    10e8:	5800                	lw	s0,48(s0)
    10ea:	90000003          	lb	zero,-1792(zero) # fffff900 <_BSS_END_+0x3fffe5c0>
    10ee:	02000003          	lb	zero,32(zero) # 20 <ROM_BASE-0xbfffffe0>
    10f2:	7200                	flw	fs0,32(a2)
	...
    10fc:	6400                	flw	fs0,8(s0)
    10fe:	0000                	unimp
    1100:	7400                	flw	fs0,40(s0)
    1102:	0001                	nop
    1104:	0100                	addi	s0,sp,128
    1106:	5900                	lw	s0,48(a0)
    1108:	0174                	addi	a3,sp,140
    110a:	0000                	unimp
    110c:	0188                	addi	a0,sp,192
    110e:	0000                	unimp
    1110:	0001                	nop
    1112:	8c5a                	mv	s8,s6
    1114:	0002                	c.slli64	zero
    1116:	9c00                	0x9c00
    1118:	0002                	c.slli64	zero
    111a:	0100                	addi	s0,sp,128
    111c:	5900                	lw	s0,48(a0)
    111e:	02e8                	addi	a0,sp,332
    1120:	0000                	unimp
    1122:	031c                	addi	a5,sp,384
    1124:	0000                	unimp
    1126:	0001                	nop
    1128:	2059                	jal	11ae <ROM_BASE-0xbfffee52>
    112a:	24000003          	lb	zero,576(zero) # 240 <ROM_BASE-0xbffffdc0>
    112e:	01000003          	lb	zero,16(zero) # 10 <ROM_BASE-0xbffffff0>
    1132:	5a00                	lw	s0,48(a2)
    1134:	0324                	addi	s1,sp,392
    1136:	0000                	unimp
    1138:	0358                	addi	a4,sp,388
    113a:	0000                	unimp
    113c:	0001                	nop
    113e:	5865                	li	a6,-7
    1140:	8c000003          	lb	zero,-1856(zero) # fffff8c0 <_BSS_END_+0x3fffe580>
    1144:	01000003          	lb	zero,16(zero) # 10 <ROM_BASE-0xbffffff0>
    1148:	5900                	lw	s0,48(a0)
	...
    1152:	0068                	addi	a0,sp,12
    1154:	0000                	unimp
    1156:	0160                	addi	s0,sp,140
    1158:	0000                	unimp
    115a:	0001                	nop
    115c:	6052                	flw	ft0,20(sp)
    115e:	0001                	nop
    1160:	7c00                	flw	fs0,56(s0)
    1162:	0001                	nop
    1164:	0100                	addi	s0,sp,128
    1166:	6200                	flw	fs0,0(a2)
    1168:	0320                	addi	s0,sp,392
    116a:	0000                	unimp
    116c:	0358                	addi	a4,sp,388
    116e:	0000                	unimp
    1170:	0001                	nop
    1172:	0062                	c.slli	zero,0x18
    1174:	0000                	unimp
    1176:	0000                	unimp
    1178:	0000                	unimp
    117a:	7000                	flw	fs0,32(s0)
    117c:	0001                	nop
    117e:	9c00                	0x9c00
    1180:	0002                	c.slli64	zero
    1182:	0200                	addi	s0,sp,256
    1184:	7200                	flw	fs0,32(a2)
    1186:	e800                	fsw	fs0,16(s0)
    1188:	0002                	c.slli64	zero
    118a:	5800                	lw	s0,48(s0)
    118c:	02000003          	lb	zero,32(zero) # 20 <ROM_BASE-0xbfffffe0>
    1190:	7200                	flw	fs0,32(a2)
	...
    119a:	6400                	flw	fs0,8(s0)
    119c:	0002                	c.slli64	zero
    119e:	9c00                	0x9c00
    11a0:	0002                	c.slli64	zero
    11a2:	0100                	addi	s0,sp,128
    11a4:	5200                	lw	s0,32(a2)
    11a6:	02e8                	addi	a0,sp,332
    11a8:	0000                	unimp
    11aa:	0320                	addi	s0,sp,392
    11ac:	0000                	unimp
    11ae:	0001                	nop
    11b0:	0052                	c.slli	zero,0x14
    11b2:	0000                	unimp
    11b4:	0000                	unimp
    11b6:	0000                	unimp
    11b8:	8800                	0x8800
    11ba:	0001                	nop
    11bc:	5000                	lw	s0,32(s0)
    11be:	0002                	c.slli64	zero
    11c0:	0100                	addi	s0,sp,128
    11c2:	6500                	flw	fs0,8(a0)
    11c4:	0250                	addi	a2,sp,260
    11c6:	0000                	unimp
    11c8:	0254                	addi	a3,sp,260
    11ca:	0000                	unimp
    11cc:	7f850003          	lb	zero,2040(a0) # 1b7f8 <ROM_BASE-0xbffe4808>
    11d0:	549f 0002 9c00      	0x9c000002549f
    11d6:	0002                	c.slli64	zero
    11d8:	0100                	addi	s0,sp,128
    11da:	6500                	flw	fs0,8(a0)
    11dc:	02e8                	addi	a0,sp,332
    11de:	0000                	unimp
    11e0:	0320                	addi	s0,sp,392
    11e2:	0000                	unimp
    11e4:	0001                	nop
    11e6:	0065                	c.nop	25
    11e8:	0000                	unimp
    11ea:	0000                	unimp
    11ec:	0000                	unimp
    11ee:	8800                	0x8800
    11f0:	0001                	nop
    11f2:	5800                	lw	s0,48(s0)
    11f4:	0002                	c.slli64	zero
    11f6:	0400                	addi	s0,sp,512
    11f8:	8200                	0x8200
    11fa:	7f80                	flw	fs0,56(a5)
    11fc:	009f 0000 0000      	0x9f
    1202:	0000                	unimp
    1204:	a800                	fsd	fs0,16(s0)
    1206:	0001                	nop
    1208:	ac00                	fsd	fs0,24(s0)
    120a:	0001                	nop
    120c:	0200                	addi	s0,sp,256
    120e:	3000                	fld	fs0,32(s0)
    1210:	ac9f 0001 b400      	0xb4000001ac9f
    1216:	0001                	nop
    1218:	0900                	addi	s0,sp,144
    121a:	7900                	flw	fs0,48(a0)
    121c:	8200                	0x8200
    121e:	1c00                	addi	s0,sp,560
    1220:	9f018023          	sb	a6,-1568(gp)
    1224:	01b4                	addi	a3,sp,200
    1226:	0000                	unimp
    1228:	01b8                	addi	a4,sp,200
    122a:	0000                	unimp
    122c:	0008                	0x8
    122e:	0079                	c.nop	30
    1230:	0082                	c.slli64	ra
    1232:	231c                	fld	fa5,0(a4)
    1234:	9f7f                	0x9f7f
	...
    123e:	01c8                	addi	a0,sp,196
    1240:	0000                	unimp
    1242:	01cc                	addi	a1,sp,196
    1244:	0000                	unimp
    1246:	0002                	c.slli64	zero
    1248:	9f30                	0x9f30
    124a:	01cc                	addi	a1,sp,196
    124c:	0000                	unimp
    124e:	01d4                	addi	a3,sp,196
    1250:	0000                	unimp
    1252:	0008                	0x8
    1254:	0079                	c.nop	30
    1256:	0082                	c.slli64	ra
    1258:	231c                	fld	fa5,0(a4)
    125a:	9f70                	0x9f70
    125c:	01d4                	addi	a3,sp,196
    125e:	0000                	unimp
    1260:	01d8                	addi	a4,sp,196
    1262:	0000                	unimp
    1264:	0008                	0x8
    1266:	0079                	c.nop	30
    1268:	0082                	c.slli64	ra
    126a:	231c                	fld	fa5,0(a4)
    126c:	00009f6f          	jal	t5,a26c <ROM_BASE-0xbfff5d94>
    1270:	0000                	unimp
    1272:	0000                	unimp
    1274:	0000                	unimp
    1276:	0234                	addi	a3,sp,264
    1278:	0000                	unimp
    127a:	023c                	addi	a5,sp,264
    127c:	0000                	unimp
    127e:	0008                	0x8
    1280:	0079                	c.nop	30
    1282:	0082                	c.slli64	ra
    1284:	231c                	fld	fa5,0(a4)
    1286:	9f48                	0x9f48
    1288:	023c                	addi	a5,sp,264
    128a:	0000                	unimp
    128c:	0240                	addi	s0,sp,260
    128e:	0000                	unimp
    1290:	0008                	0x8
    1292:	0079                	c.nop	30
    1294:	0082                	c.slli64	ra
    1296:	231c                	fld	fa5,0(a4)
    1298:	00009f47          	fmsub.s	ft10,ft1,ft0,ft0,rtz
    129c:	0000                	unimp
    129e:	0000                	unimp
    12a0:	0000                	unimp
    12a2:	0048                	addi	a0,sp,4
    12a4:	0000                	unimp
    12a6:	029c                	addi	a5,sp,320
    12a8:	0000                	unimp
    12aa:	0004                	0x4
    12ac:	ff0a                	fsw	ft2,188(sp)
    12ae:	9f01                	0x9f01
    12b0:	02e8                	addi	a0,sp,332
    12b2:	0000                	unimp
    12b4:	0390                	addi	a2,sp,448
    12b6:	0000                	unimp
    12b8:	0004                	0x4
    12ba:	ff0a                	fsw	ft2,188(sp)
    12bc:	9f01                	0x9f01
	...
    12c6:	0158                	addi	a4,sp,132
    12c8:	0000                	unimp
    12ca:	029c                	addi	a5,sp,320
    12cc:	0000                	unimp
    12ce:	0004                	0x4
    12d0:	ff0a                	fsw	ft2,188(sp)
    12d2:	9f01                	0x9f01
    12d4:	02e8                	addi	a0,sp,332
    12d6:	0000                	unimp
    12d8:	0358                	addi	a4,sp,388
    12da:	0000                	unimp
    12dc:	0004                	0x4
    12de:	ff0a                	fsw	ft2,188(sp)
    12e0:	9f01                	0x9f01
	...
